Archive member included to satisfy reference by file (symbol)

/usr/lib/gcc/arm-none-eabi/8.3.1/../../../arm-none-eabi/lib/thumb/v7e-m+fp/hard/libm.a(lib_a-sf_cos.o)
                              parwave.o (cosf)
/usr/lib/gcc/arm-none-eabi/8.3.1/../../../arm-none-eabi/lib/thumb/v7e-m+fp/hard/libm.a(lib_a-sf_fabs.o)
                              newvotrax.o (fabsf)
/usr/lib/gcc/arm-none-eabi/8.3.1/../../../arm-none-eabi/lib/thumb/v7e-m+fp/hard/libm.a(lib_a-sf_sin.o)
                              nvp.o (sinf)
/usr/lib/gcc/arm-none-eabi/8.3.1/../../../arm-none-eabi/lib/thumb/v7e-m+fp/hard/libm.a(lib_a-sf_tan.o)
                              newvotrax.o (tanf)
/usr/lib/gcc/arm-none-eabi/8.3.1/../../../arm-none-eabi/lib/thumb/v7e-m+fp/hard/libm.a(lib_a-wf_exp.o)
                              parwave.o (expf)
/usr/lib/gcc/arm-none-eabi/8.3.1/../../../arm-none-eabi/lib/thumb/v7e-m+fp/hard/libm.a(lib_a-wf_fmod.o)
                              nvp.o (fmodf)
/usr/lib/gcc/arm-none-eabi/8.3.1/../../../arm-none-eabi/lib/thumb/v7e-m+fp/hard/libm.a(lib_a-wf_pow.o)
                              rsynth_2005/opsynth.o (powf)
/usr/lib/gcc/arm-none-eabi/8.3.1/../../../arm-none-eabi/lib/thumb/v7e-m+fp/hard/libm.a(lib_a-wf_sqrt.o)
                              newvotrax.o (sqrtf)
/usr/lib/gcc/arm-none-eabi/8.3.1/../../../arm-none-eabi/lib/thumb/v7e-m+fp/hard/libm.a(lib_a-ef_exp.o)
                              /usr/lib/gcc/arm-none-eabi/8.3.1/../../../arm-none-eabi/lib/thumb/v7e-m+fp/hard/libm.a(lib_a-wf_exp.o) (__ieee754_expf)
/usr/lib/gcc/arm-none-eabi/8.3.1/../../../arm-none-eabi/lib/thumb/v7e-m+fp/hard/libm.a(lib_a-ef_fmod.o)
                              /usr/lib/gcc/arm-none-eabi/8.3.1/../../../arm-none-eabi/lib/thumb/v7e-m+fp/hard/libm.a(lib_a-wf_fmod.o) (__ieee754_fmodf)
/usr/lib/gcc/arm-none-eabi/8.3.1/../../../arm-none-eabi/lib/thumb/v7e-m+fp/hard/libm.a(lib_a-ef_pow.o)
                              /usr/lib/gcc/arm-none-eabi/8.3.1/../../../arm-none-eabi/lib/thumb/v7e-m+fp/hard/libm.a(lib_a-wf_pow.o) (__ieee754_powf)
/usr/lib/gcc/arm-none-eabi/8.3.1/../../../arm-none-eabi/lib/thumb/v7e-m+fp/hard/libm.a(lib_a-ef_rem_pio2.o)
                              /usr/lib/gcc/arm-none-eabi/8.3.1/../../../arm-none-eabi/lib/thumb/v7e-m+fp/hard/libm.a(lib_a-sf_cos.o) (__ieee754_rem_pio2f)
/usr/lib/gcc/arm-none-eabi/8.3.1/../../../arm-none-eabi/lib/thumb/v7e-m+fp/hard/libm.a(lib_a-ef_sqrt.o)
                              /usr/lib/gcc/arm-none-eabi/8.3.1/../../../arm-none-eabi/lib/thumb/v7e-m+fp/hard/libm.a(lib_a-wf_sqrt.o) (__ieee754_sqrtf)
/usr/lib/gcc/arm-none-eabi/8.3.1/../../../arm-none-eabi/lib/thumb/v7e-m+fp/hard/libm.a(lib_a-kf_cos.o)
                              /usr/lib/gcc/arm-none-eabi/8.3.1/../../../arm-none-eabi/lib/thumb/v7e-m+fp/hard/libm.a(lib_a-sf_cos.o) (__kernel_cosf)
/usr/lib/gcc/arm-none-eabi/8.3.1/../../../arm-none-eabi/lib/thumb/v7e-m+fp/hard/libm.a(lib_a-kf_rem_pio2.o)
                              /usr/lib/gcc/arm-none-eabi/8.3.1/../../../arm-none-eabi/lib/thumb/v7e-m+fp/hard/libm.a(lib_a-ef_rem_pio2.o) (__kernel_rem_pio2f)
/usr/lib/gcc/arm-none-eabi/8.3.1/../../../arm-none-eabi/lib/thumb/v7e-m+fp/hard/libm.a(lib_a-kf_sin.o)
                              /usr/lib/gcc/arm-none-eabi/8.3.1/../../../arm-none-eabi/lib/thumb/v7e-m+fp/hard/libm.a(lib_a-sf_cos.o) (__kernel_sinf)
/usr/lib/gcc/arm-none-eabi/8.3.1/../../../arm-none-eabi/lib/thumb/v7e-m+fp/hard/libm.a(lib_a-kf_tan.o)
                              /usr/lib/gcc/arm-none-eabi/8.3.1/../../../arm-none-eabi/lib/thumb/v7e-m+fp/hard/libm.a(lib_a-sf_tan.o) (__kernel_tanf)
/usr/lib/gcc/arm-none-eabi/8.3.1/../../../arm-none-eabi/lib/thumb/v7e-m+fp/hard/libm.a(lib_a-s_lib_ver.o)
                              /usr/lib/gcc/arm-none-eabi/8.3.1/../../../arm-none-eabi/lib/thumb/v7e-m+fp/hard/libm.a(lib_a-wf_exp.o) (__fdlib_version)
/usr/lib/gcc/arm-none-eabi/8.3.1/../../../arm-none-eabi/lib/thumb/v7e-m+fp/hard/libm.a(lib_a-sf_finite.o)
                              /usr/lib/gcc/arm-none-eabi/8.3.1/../../../arm-none-eabi/lib/thumb/v7e-m+fp/hard/libm.a(lib_a-wf_exp.o) (finitef)
/usr/lib/gcc/arm-none-eabi/8.3.1/../../../arm-none-eabi/lib/thumb/v7e-m+fp/hard/libm.a(lib_a-sf_floor.o)
                              /usr/lib/gcc/arm-none-eabi/8.3.1/../../../arm-none-eabi/lib/thumb/v7e-m+fp/hard/libm.a(lib_a-kf_rem_pio2.o) (floorf)
/usr/lib/gcc/arm-none-eabi/8.3.1/../../../arm-none-eabi/lib/thumb/v7e-m+fp/hard/libm.a(lib_a-sf_nan.o)
                              /usr/lib/gcc/arm-none-eabi/8.3.1/../../../arm-none-eabi/lib/thumb/v7e-m+fp/hard/libm.a(lib_a-ef_pow.o) (nanf)
/usr/lib/gcc/arm-none-eabi/8.3.1/../../../arm-none-eabi/lib/thumb/v7e-m+fp/hard/libm.a(lib_a-sf_rint.o)
                              /usr/lib/gcc/arm-none-eabi/8.3.1/../../../arm-none-eabi/lib/thumb/v7e-m+fp/hard/libm.a(lib_a-wf_pow.o) (rintf)
/usr/lib/gcc/arm-none-eabi/8.3.1/../../../arm-none-eabi/lib/thumb/v7e-m+fp/hard/libm.a(lib_a-sf_scalbn.o)
                              /usr/lib/gcc/arm-none-eabi/8.3.1/../../../arm-none-eabi/lib/thumb/v7e-m+fp/hard/libm.a(lib_a-ef_pow.o) (scalbnf)
/usr/lib/gcc/arm-none-eabi/8.3.1/../../../arm-none-eabi/lib/thumb/v7e-m+fp/hard/libc.a(lib_a-atexit.o)
                              /usr/lib/gcc/arm-none-eabi/8.3.1/../../../arm-none-eabi/lib/thumb/v7e-m+fp/hard/crt0.o (atexit)
/usr/lib/gcc/arm-none-eabi/8.3.1/../../../arm-none-eabi/lib/thumb/v7e-m+fp/hard/libc.a(lib_a-ctype_.o)
                              ./english2phoneme/parse.o (_ctype_)
/usr/lib/gcc/arm-none-eabi/8.3.1/../../../arm-none-eabi/lib/thumb/v7e-m+fp/hard/libc.a(lib_a-errno.o)
                              syscalls.o (__errno)
/usr/lib/gcc/arm-none-eabi/8.3.1/../../../arm-none-eabi/lib/thumb/v7e-m+fp/hard/libc.a(lib_a-exit.o)
                              /usr/lib/gcc/arm-none-eabi/8.3.1/../../../arm-none-eabi/lib/thumb/v7e-m+fp/hard/crt0.o (exit)
/usr/lib/gcc/arm-none-eabi/8.3.1/../../../arm-none-eabi/lib/thumb/v7e-m+fp/hard/libc.a(lib_a-fini.o)
                              /usr/lib/gcc/arm-none-eabi/8.3.1/../../../arm-none-eabi/lib/thumb/v7e-m+fp/hard/crt0.o (__libc_fini_array)
/usr/lib/gcc/arm-none-eabi/8.3.1/../../../arm-none-eabi/lib/thumb/v7e-m+fp/hard/libc.a(lib_a-impure.o)
                              /usr/lib/gcc/arm-none-eabi/8.3.1/../../../arm-none-eabi/lib/thumb/v7e-m+fp/hard/libc.a(lib_a-exit.o) (_global_impure_ptr)
/usr/lib/gcc/arm-none-eabi/8.3.1/../../../arm-none-eabi/lib/thumb/v7e-m+fp/hard/libc.a(lib_a-init.o)
                              /usr/lib/gcc/arm-none-eabi/8.3.1/../../../arm-none-eabi/lib/thumb/v7e-m+fp/hard/crt0.o (__libc_init_array)
/usr/lib/gcc/arm-none-eabi/8.3.1/../../../arm-none-eabi/lib/thumb/v7e-m+fp/hard/libc.a(lib_a-memcpy.o)
                              nvp.o (memcpy)
/usr/lib/gcc/arm-none-eabi/8.3.1/../../../arm-none-eabi/lib/thumb/v7e-m+fp/hard/libc.a(lib_a-memset.o)
                              /usr/lib/gcc/arm-none-eabi/8.3.1/../../../arm-none-eabi/lib/thumb/v7e-m+fp/hard/crt0.o (memset)
/usr/lib/gcc/arm-none-eabi/8.3.1/../../../arm-none-eabi/lib/thumb/v7e-m+fp/hard/libc.a(lib_a-rand.o)
                              parwave.o (rand)
/usr/lib/gcc/arm-none-eabi/8.3.1/../../../arm-none-eabi/lib/thumb/v7e-m+fp/hard/libc.a(lib_a-strcat.o)
                              sam.o (strcat)
/usr/lib/gcc/arm-none-eabi/8.3.1/../../../arm-none-eabi/lib/thumb/v7e-m+fp/hard/libc.a(lib_a-strcmp.o)
                              ./english2phoneme/parse.o (strcmp)
/usr/lib/gcc/arm-none-eabi/8.3.1/../../../arm-none-eabi/lib/thumb/v7e-m+fp/hard/libc.a(lib_a-strcpy.o)
                              sam.o (strcpy)
/usr/lib/gcc/arm-none-eabi/8.3.1/../../../arm-none-eabi/lib/thumb/v7e-m+fp/hard/libc.a(lib_a-strlen.o)
                              ./english2phoneme/parse.o (strlen)
/usr/lib/gcc/arm-none-eabi/8.3.1/../../../arm-none-eabi/lib/thumb/v7e-m+fp/hard/libc.a(lib_a-__atexit.o)
                              /usr/lib/gcc/arm-none-eabi/8.3.1/../../../arm-none-eabi/lib/thumb/v7e-m+fp/hard/libc.a(lib_a-atexit.o) (__register_exitproc)
/usr/lib/gcc/arm-none-eabi/8.3.1/../../../arm-none-eabi/lib/thumb/v7e-m+fp/hard/libc.a(lib_a-__call_atexit.o)
                              /usr/lib/gcc/arm-none-eabi/8.3.1/../../../arm-none-eabi/lib/thumb/v7e-m+fp/hard/libc.a(lib_a-exit.o) (__call_exitprocs)

Discarded input sections

 .text          0x0000000000000000        0x0 /usr/lib/gcc/arm-none-eabi/8.3.1/thumb/v7e-m+fp/hard/crti.o
 .data          0x0000000000000000        0x0 /usr/lib/gcc/arm-none-eabi/8.3.1/thumb/v7e-m+fp/hard/crti.o
 .bss           0x0000000000000000        0x0 /usr/lib/gcc/arm-none-eabi/8.3.1/thumb/v7e-m+fp/hard/crti.o
 .data          0x0000000000000000        0x4 /usr/lib/gcc/arm-none-eabi/8.3.1/thumb/v7e-m+fp/hard/crtbegin.o
 .text          0x0000000000000000       0x70 /usr/lib/gcc/arm-none-eabi/8.3.1/../../../arm-none-eabi/lib/thumb/v7e-m+fp/hard/crt0.o
 .data          0x0000000000000000        0x0 /usr/lib/gcc/arm-none-eabi/8.3.1/../../../arm-none-eabi/lib/thumb/v7e-m+fp/hard/crt0.o
 .bss           0x0000000000000000        0x0 /usr/lib/gcc/arm-none-eabi/8.3.1/../../../arm-none-eabi/lib/thumb/v7e-m+fp/hard/crt0.o
 .ARM.extab     0x0000000000000000        0x0 /usr/lib/gcc/arm-none-eabi/8.3.1/../../../arm-none-eabi/lib/thumb/v7e-m+fp/hard/crt0.o
 .ARM.exidx     0x0000000000000000       0x10 /usr/lib/gcc/arm-none-eabi/8.3.1/../../../arm-none-eabi/lib/thumb/v7e-m+fp/hard/crt0.o
 .debug_line    0x0000000000000000       0x87 /usr/lib/gcc/arm-none-eabi/8.3.1/../../../arm-none-eabi/lib/thumb/v7e-m+fp/hard/crt0.o
 .debug_info    0x0000000000000000       0x26 /usr/lib/gcc/arm-none-eabi/8.3.1/../../../arm-none-eabi/lib/thumb/v7e-m+fp/hard/crt0.o
 .debug_abbrev  0x0000000000000000       0x14 /usr/lib/gcc/arm-none-eabi/8.3.1/../../../arm-none-eabi/lib/thumb/v7e-m+fp/hard/crt0.o
 .debug_aranges
                0x0000000000000000       0x20 /usr/lib/gcc/arm-none-eabi/8.3.1/../../../arm-none-eabi/lib/thumb/v7e-m+fp/hard/crt0.o
 .debug_str     0x0000000000000000       0x9b /usr/lib/gcc/arm-none-eabi/8.3.1/../../../arm-none-eabi/lib/thumb/v7e-m+fp/hard/crt0.o
 .ARM.attributes
                0x0000000000000000       0x1c /usr/lib/gcc/arm-none-eabi/8.3.1/../../../arm-none-eabi/lib/thumb/v7e-m+fp/hard/crt0.o
 .text          0x0000000000000000       0x14 startup_stm32f4xx.o
 .data          0x0000000000000000        0x0 startup_stm32f4xx.o
 .bss           0x0000000000000000        0x0 startup_stm32f4xx.o
 .text          0x0000000000000000        0x0 system_stm32f4xx.o
 .data          0x0000000000000000        0x0 system_stm32f4xx.o
 .bss           0x0000000000000000        0x0 system_stm32f4xx.o
 .text.SystemCoreClockUpdate
                0x0000000000000000       0x74 system_stm32f4xx.o
 .data.AHBPrescTable
                0x0000000000000000       0x10 system_stm32f4xx.o
 .data.SystemCoreClock
                0x0000000000000000        0x4 system_stm32f4xx.o
 .debug_info    0x0000000000000000      0x6bc system_stm32f4xx.o
 .debug_abbrev  0x0000000000000000      0x1b0 system_stm32f4xx.o
 .debug_loc     0x0000000000000000      0x16a system_stm32f4xx.o
 .debug_aranges
                0x0000000000000000       0x28 system_stm32f4xx.o
 .debug_ranges  0x0000000000000000       0x18 system_stm32f4xx.o
 .debug_line    0x0000000000000000      0x2b3 system_stm32f4xx.o
 .debug_str     0x0000000000000000      0x445 system_stm32f4xx.o
 .debug_frame   0x0000000000000000       0x40 system_stm32f4xx.o
 .text          0x0000000000000000        0x0 main.o
 .data          0x0000000000000000        0x0 main.o
 .bss           0x0000000000000000        0x0 main.o
 .debug_info    0x0000000000000000     0x1f4b main.o
 .debug_abbrev  0x0000000000000000      0x2bc main.o
 .debug_loc     0x0000000000000000       0x87 main.o
 .debug_aranges
                0x0000000000000000       0x60 main.o
 .debug_ranges  0x0000000000000000       0x50 main.o
 .debug_line    0x0000000000000000      0x3fa main.o
 .debug_str     0x0000000000000000     0x125a main.o
 .debug_frame   0x0000000000000000       0xa8 main.o
 .text          0x0000000000000000        0x0 codec.o
 .data          0x0000000000000000        0x0 codec.o
 .bss           0x0000000000000000        0x0 codec.o
 .text.Codec_TIMEOUT_UserCallback
                0x0000000000000000        0x4 codec.o
 .bss.OutputDev
                0x0000000000000000        0x1 codec.o
 .debug_info    0x0000000000000000      0xc42 codec.o
 .debug_abbrev  0x0000000000000000      0x250 codec.o
 .debug_loc     0x0000000000000000      0x24a codec.o
 .debug_aranges
                0x0000000000000000       0x50 codec.o
 .debug_ranges  0x0000000000000000       0x40 codec.o
 .debug_line    0x0000000000000000      0x356 codec.o
 .debug_str     0x0000000000000000      0x75f codec.o
 .debug_frame   0x0000000000000000       0xd0 codec.o
 .text          0x0000000000000000        0x0 i2s.o
 .data          0x0000000000000000        0x0 i2s.o
 .bss           0x0000000000000000        0x0 i2s.o
 .debug_info    0x0000000000000000     0x2099 i2s.o
 .debug_abbrev  0x0000000000000000      0x350 i2s.o
 .debug_loc     0x0000000000000000      0x220 i2s.o
 .debug_aranges
                0x0000000000000000       0x30 i2s.o
 .debug_ranges  0x0000000000000000       0x38 i2s.o
 .debug_line    0x0000000000000000      0x426 i2s.o
 .debug_str     0x0000000000000000     0x1712 i2s.o
 .debug_frame   0x0000000000000000       0x90 i2s.o
 .text          0x0000000000000000        0x0 stm32f4xx_tim.o
 .data          0x0000000000000000        0x0 stm32f4xx_tim.o
 .bss           0x0000000000000000        0x0 stm32f4xx_tim.o
 .text.TI1_Config
                0x0000000000000000       0x2a stm32f4xx_tim.o
 .text.TI2_Config
                0x0000000000000000       0x32 stm32f4xx_tim.o
 .text.TIM_DeInit
                0x0000000000000000      0x16c stm32f4xx_tim.o
 .text.TIM_TimeBaseInit
                0x0000000000000000       0x80 stm32f4xx_tim.o
 .text.TIM_TimeBaseStructInit
                0x0000000000000000       0x1e stm32f4xx_tim.o
 .text.TIM_PrescalerConfig
                0x0000000000000000        0x6 stm32f4xx_tim.o
 .text.TIM_CounterModeConfig
                0x0000000000000000        0xe stm32f4xx_tim.o
 .text.TIM_SetCounter
                0x0000000000000000        0x4 stm32f4xx_tim.o
 .text.TIM_SetAutoreload
                0x0000000000000000        0x4 stm32f4xx_tim.o
 .text.TIM_GetCounter
                0x0000000000000000        0x4 stm32f4xx_tim.o
 .text.TIM_GetPrescaler
                0x0000000000000000        0x4 stm32f4xx_tim.o
 .text.TIM_UpdateDisableConfig
                0x0000000000000000       0x12 stm32f4xx_tim.o
 .text.TIM_UpdateRequestConfig
                0x0000000000000000       0x12 stm32f4xx_tim.o
 .text.TIM_ARRPreloadConfig
                0x0000000000000000       0x12 stm32f4xx_tim.o
 .text.TIM_SelectOnePulseMode
                0x0000000000000000       0x10 stm32f4xx_tim.o
 .text.TIM_SetClockDivision
                0x0000000000000000       0x10 stm32f4xx_tim.o
 .text.TIM_Cmd  0x0000000000000000       0x12 stm32f4xx_tim.o
 .text.TIM_OC1Init
                0x0000000000000000       0x64 stm32f4xx_tim.o
 .text.TIM_OC2Init
                0x0000000000000000       0x7c stm32f4xx_tim.o
 .text.TIM_OC3Init
                0x0000000000000000       0x78 stm32f4xx_tim.o
 .text.TIM_OC4Init
                0x0000000000000000       0x5c stm32f4xx_tim.o
 .text.TIM_OCStructInit
                0x0000000000000000       0x28 stm32f4xx_tim.o
 .text.TIM_SelectOCxM
                0x0000000000000000       0x48 stm32f4xx_tim.o
 .text.TIM_SetCompare1
                0x0000000000000000        0x4 stm32f4xx_tim.o
 .text.TIM_SetCompare2
                0x0000000000000000        0x4 stm32f4xx_tim.o
 .text.TIM_SetCompare3
                0x0000000000000000        0x4 stm32f4xx_tim.o
 .text.TIM_SetCompare4
                0x0000000000000000        0x4 stm32f4xx_tim.o
 .text.TIM_ForcedOC1Config
                0x0000000000000000        0xe stm32f4xx_tim.o
 .text.TIM_ForcedOC2Config
                0x0000000000000000       0x10 stm32f4xx_tim.o
 .text.TIM_ForcedOC3Config
                0x0000000000000000        0xe stm32f4xx_tim.o
 .text.TIM_ForcedOC4Config
                0x0000000000000000       0x10 stm32f4xx_tim.o
 .text.TIM_OC1PreloadConfig
                0x0000000000000000        0xe stm32f4xx_tim.o
 .text.TIM_OC2PreloadConfig
                0x0000000000000000       0x10 stm32f4xx_tim.o
 .text.TIM_OC3PreloadConfig
                0x0000000000000000        0xe stm32f4xx_tim.o
 .text.TIM_OC4PreloadConfig
                0x0000000000000000       0x10 stm32f4xx_tim.o
 .text.TIM_OC1FastConfig
                0x0000000000000000        0xe stm32f4xx_tim.o
 .text.TIM_OC2FastConfig
                0x0000000000000000       0x10 stm32f4xx_tim.o
 .text.TIM_OC3FastConfig
                0x0000000000000000        0xe stm32f4xx_tim.o
 .text.TIM_OC4FastConfig
                0x0000000000000000       0x10 stm32f4xx_tim.o
 .text.TIM_ClearOC1Ref
                0x0000000000000000        0xe stm32f4xx_tim.o
 .text.TIM_ClearOC2Ref
                0x0000000000000000        0xe stm32f4xx_tim.o
 .text.TIM_ClearOC3Ref
                0x0000000000000000        0xe stm32f4xx_tim.o
 .text.TIM_ClearOC4Ref
                0x0000000000000000        0xe stm32f4xx_tim.o
 .text.TIM_OC1PolarityConfig
                0x0000000000000000        0xe stm32f4xx_tim.o
 .text.TIM_OC1NPolarityConfig
                0x0000000000000000        0xe stm32f4xx_tim.o
 .text.TIM_OC2PolarityConfig
                0x0000000000000000       0x10 stm32f4xx_tim.o
 .text.TIM_OC2NPolarityConfig
                0x0000000000000000       0x10 stm32f4xx_tim.o
 .text.TIM_OC3PolarityConfig
                0x0000000000000000       0x10 stm32f4xx_tim.o
 .text.TIM_OC3NPolarityConfig
                0x0000000000000000       0x10 stm32f4xx_tim.o
 .text.TIM_OC4PolarityConfig
                0x0000000000000000       0x10 stm32f4xx_tim.o
 .text.TIM_CCxCmd
                0x0000000000000000       0x1a stm32f4xx_tim.o
 .text.TIM_CCxNCmd
                0x0000000000000000       0x1a stm32f4xx_tim.o
 .text.TIM_ICStructInit
                0x0000000000000000       0x1a stm32f4xx_tim.o
 .text.TIM_GetCapture1
                0x0000000000000000        0x4 stm32f4xx_tim.o
 .text.TIM_GetCapture2
                0x0000000000000000        0x4 stm32f4xx_tim.o
 .text.TIM_GetCapture3
                0x0000000000000000        0x4 stm32f4xx_tim.o
 .text.TIM_GetCapture4
                0x0000000000000000        0x4 stm32f4xx_tim.o
 .text.TIM_SetIC1Prescaler
                0x0000000000000000       0x10 stm32f4xx_tim.o
 .text.TIM_SetIC2Prescaler
                0x0000000000000000       0x12 stm32f4xx_tim.o
 .text.TIM_PWMIConfig
                0x0000000000000000       0x60 stm32f4xx_tim.o
 .text.TIM_SetIC3Prescaler
                0x0000000000000000       0x10 stm32f4xx_tim.o
 .text.TIM_SetIC4Prescaler
                0x0000000000000000       0x12 stm32f4xx_tim.o
 .text.TIM_ICInit
                0x0000000000000000       0xae stm32f4xx_tim.o
 .text.TIM_BDTRConfig
                0x0000000000000000       0x20 stm32f4xx_tim.o
 .text.TIM_BDTRStructInit
                0x0000000000000000       0x20 stm32f4xx_tim.o
 .text.TIM_CtrlPWMOutputs
                0x0000000000000000       0x1a stm32f4xx_tim.o
 .text.TIM_SelectCOM
                0x0000000000000000       0x12 stm32f4xx_tim.o
 .text.TIM_CCPreloadControl
                0x0000000000000000       0x12 stm32f4xx_tim.o
 .text.TIM_ITConfig
                0x0000000000000000       0x14 stm32f4xx_tim.o
 .text.TIM_GenerateEvent
                0x0000000000000000        0x4 stm32f4xx_tim.o
 .text.TIM_GetFlagStatus
                0x0000000000000000        0xc stm32f4xx_tim.o
 .text.TIM_ClearFlag
                0x0000000000000000        0x6 stm32f4xx_tim.o
 .text.TIM_GetITStatus
                0x0000000000000000       0x14 stm32f4xx_tim.o
 .text.TIM_ClearITPendingBit
                0x0000000000000000        0x6 stm32f4xx_tim.o
 .text.TIM_DMAConfig
                0x0000000000000000        0x8 stm32f4xx_tim.o
 .text.TIM_DMACmd
                0x0000000000000000        0x4 stm32f4xx_tim.o
 .text.TIM_SelectCCDMA
                0x0000000000000000       0x12 stm32f4xx_tim.o
 .text.TIM_InternalClockConfig
                0x0000000000000000        0xa stm32f4xx_tim.o
 .text.TIM_ITRxExternalClockConfig
                0x0000000000000000       0x16 stm32f4xx_tim.o
 .text.TIM_TIxExternalClockConfig
                0x0000000000000000       0x30 stm32f4xx_tim.o
 .text.TIM_SelectInputTrigger
                0x0000000000000000        0xe stm32f4xx_tim.o
 .text.TIM_SelectOutputTrigger
                0x0000000000000000       0x10 stm32f4xx_tim.o
 .text.TIM_SelectSlaveMode
                0x0000000000000000       0x10 stm32f4xx_tim.o
 .text.TIM_SelectMasterSlaveMode
                0x0000000000000000       0x10 stm32f4xx_tim.o
 .text.TIM_ETRConfig
                0x0000000000000000       0x12 stm32f4xx_tim.o
 .text.TIM_ETRClockMode1Config
                0x0000000000000000       0x16 stm32f4xx_tim.o
 .text.TIM_ETRClockMode2Config
                0x0000000000000000       0x10 stm32f4xx_tim.o
 .text.TIM_EncoderInterfaceConfig
                0x0000000000000000       0x34 stm32f4xx_tim.o
 .text.TIM_SelectHallSensor
                0x0000000000000000       0x12 stm32f4xx_tim.o
 .text.TIM_RemapConfig
                0x0000000000000000        0x6 stm32f4xx_tim.o
 .debug_info    0x0000000000000000     0x25fe stm32f4xx_tim.o
 .debug_abbrev  0x0000000000000000      0x341 stm32f4xx_tim.o
 .debug_loc     0x0000000000000000     0x22d9 stm32f4xx_tim.o
 .debug_aranges
                0x0000000000000000      0x2d8 stm32f4xx_tim.o
 .debug_ranges  0x0000000000000000      0x300 stm32f4xx_tim.o
 .debug_line    0x0000000000000000     0x176a stm32f4xx_tim.o
 .debug_str     0x0000000000000000      0xea3 stm32f4xx_tim.o
 .comment       0x0000000000000000       0x52 stm32f4xx_tim.o
 .debug_frame   0x0000000000000000      0x6c0 stm32f4xx_tim.o
 .ARM.attributes
                0x0000000000000000       0x34 stm32f4xx_tim.o
 .text          0x0000000000000000        0x0 adc.o
 .data          0x0000000000000000        0x0 adc.o
 .bss           0x0000000000000000        0x0 adc.o
 .text.ADC1_Measure
                0x0000000000000000       0x38 adc.o
 .text.ADC1_Initonce
                0x0000000000000000       0x98 adc.o
 .debug_info    0x0000000000000000     0x109d adc.o
 .debug_abbrev  0x0000000000000000      0x267 adc.o
 .debug_loc     0x0000000000000000      0x11f adc.o
 .debug_aranges
                0x0000000000000000       0x38 adc.o
 .debug_ranges  0x0000000000000000       0x28 adc.o
 .debug_line    0x0000000000000000      0x30d adc.o
 .debug_str     0x0000000000000000      0xdcc adc.o
 .debug_frame   0x0000000000000000       0x9c adc.o
 .text          0x0000000000000000        0x0 stm32f4xx_pwr.o
 .data          0x0000000000000000        0x0 stm32f4xx_pwr.o
 .bss           0x0000000000000000        0x0 stm32f4xx_pwr.o
 .text.PWR_DeInit
                0x0000000000000000       0x1a stm32f4xx_pwr.o
 .text.PWR_BackupAccessCmd
                0x0000000000000000        0xc stm32f4xx_pwr.o
 .text.PWR_PVDLevelConfig
                0x0000000000000000       0x14 stm32f4xx_pwr.o
 .text.PWR_PVDCmd
                0x0000000000000000        0xc stm32f4xx_pwr.o
 .text.PWR_WakeUpPinCmd
                0x0000000000000000        0xc stm32f4xx_pwr.o
 .text.PWR_BackupRegulatorCmd
                0x0000000000000000        0xc stm32f4xx_pwr.o
 .text.PWR_MainRegulatorModeConfig
                0x0000000000000000       0x18 stm32f4xx_pwr.o
 .text.PWR_FlashPowerDownCmd
                0x0000000000000000        0xc stm32f4xx_pwr.o
 .text.PWR_EnterSTOPMode
                0x0000000000000000       0x34 stm32f4xx_pwr.o
 .text.PWR_EnterSTANDBYMode
                0x0000000000000000       0x28 stm32f4xx_pwr.o
 .text.PWR_GetFlagStatus
                0x0000000000000000       0x14 stm32f4xx_pwr.o
 .text.PWR_ClearFlag
                0x0000000000000000       0x10 stm32f4xx_pwr.o
 .debug_info    0x0000000000000000      0x615 stm32f4xx_pwr.o
 .debug_abbrev  0x0000000000000000      0x22c stm32f4xx_pwr.o
 .debug_loc     0x0000000000000000      0x15f stm32f4xx_pwr.o
 .debug_aranges
                0x0000000000000000       0x78 stm32f4xx_pwr.o
 .debug_ranges  0x0000000000000000       0x68 stm32f4xx_pwr.o
 .debug_line    0x0000000000000000      0x2de stm32f4xx_pwr.o
 .debug_str     0x0000000000000000      0x44d stm32f4xx_pwr.o
 .comment       0x0000000000000000       0x52 stm32f4xx_pwr.o
 .debug_frame   0x0000000000000000       0xdc stm32f4xx_pwr.o
 .ARM.attributes
                0x0000000000000000       0x34 stm32f4xx_pwr.o
 .text          0x0000000000000000        0x0 stm32f4xx_gpio.o
 .data          0x0000000000000000        0x0 stm32f4xx_gpio.o
 .bss           0x0000000000000000        0x0 stm32f4xx_gpio.o
 .text.GPIO_DeInit
                0x0000000000000000       0xe8 stm32f4xx_gpio.o
 .text.GPIO_StructInit
                0x0000000000000000       0x18 stm32f4xx_gpio.o
 .text.GPIO_PinLockConfig
                0x0000000000000000       0x24 stm32f4xx_gpio.o
 .text.GPIO_ReadInputDataBit
                0x0000000000000000        0xc stm32f4xx_gpio.o
 .text.GPIO_ReadInputData
                0x0000000000000000        0x6 stm32f4xx_gpio.o
 .text.GPIO_ReadOutputDataBit
                0x0000000000000000        0xc stm32f4xx_gpio.o
 .text.GPIO_ReadOutputData
                0x0000000000000000        0x6 stm32f4xx_gpio.o
 .text.GPIO_SetBits
                0x0000000000000000        0x4 stm32f4xx_gpio.o
 .text.GPIO_ResetBits
                0x0000000000000000        0x4 stm32f4xx_gpio.o
 .text.GPIO_WriteBit
                0x0000000000000000        0xa stm32f4xx_gpio.o
 .text.GPIO_Write
                0x0000000000000000        0x4 stm32f4xx_gpio.o
 .text.GPIO_ToggleBits
                0x0000000000000000        0x8 stm32f4xx_gpio.o
 .debug_info    0x0000000000000000      0x7e3 stm32f4xx_gpio.o
 .debug_abbrev  0x0000000000000000      0x27d stm32f4xx_gpio.o
 .debug_loc     0x0000000000000000      0x462 stm32f4xx_gpio.o
 .debug_aranges
                0x0000000000000000       0x88 stm32f4xx_gpio.o
 .debug_ranges  0x0000000000000000       0x78 stm32f4xx_gpio.o
 .debug_line    0x0000000000000000      0x467 stm32f4xx_gpio.o
 .debug_str     0x0000000000000000      0x55f stm32f4xx_gpio.o
 .debug_frame   0x0000000000000000      0x124 stm32f4xx_gpio.o
 .text          0x0000000000000000        0x0 stm32f4xx_i2c.o
 .data          0x0000000000000000        0x0 stm32f4xx_i2c.o
 .bss           0x0000000000000000        0x0 stm32f4xx_i2c.o
 .text.I2C_StructInit
                0x0000000000000000       0x30 stm32f4xx_i2c.o
 .text.I2C_AcknowledgeConfig
                0x0000000000000000       0x12 stm32f4xx_i2c.o
 .text.I2C_OwnAddress2Config
                0x0000000000000000       0x10 stm32f4xx_i2c.o
 .text.I2C_DualAddressCmd
                0x0000000000000000       0x12 stm32f4xx_i2c.o
 .text.I2C_GeneralCallCmd
                0x0000000000000000       0x12 stm32f4xx_i2c.o
 .text.I2C_SoftwareResetCmd
                0x0000000000000000       0x16 stm32f4xx_i2c.o
 .text.I2C_StretchClockCmd
                0x0000000000000000       0x12 stm32f4xx_i2c.o
 .text.I2C_FastModeDutyCycleConfig
                0x0000000000000000       0x14 stm32f4xx_i2c.o
 .text.I2C_NACKPositionConfig
                0x0000000000000000       0x14 stm32f4xx_i2c.o
 .text.I2C_SMBusAlertConfig
                0x0000000000000000       0x14 stm32f4xx_i2c.o
 .text.I2C_ARPCmd
                0x0000000000000000       0x12 stm32f4xx_i2c.o
 .text.I2C_ReceiveData
                0x0000000000000000        0x6 stm32f4xx_i2c.o
 .text.I2C_TransmitPEC
                0x0000000000000000       0x12 stm32f4xx_i2c.o
 .text.I2C_PECPositionConfig
                0x0000000000000000        0x4 stm32f4xx_i2c.o
 .text.I2C_CalculatePEC
                0x0000000000000000       0x12 stm32f4xx_i2c.o
 .text.I2C_GetPEC
                0x0000000000000000        0x6 stm32f4xx_i2c.o
 .text.I2C_DMACmd
                0x0000000000000000       0x12 stm32f4xx_i2c.o
 .text.I2C_DMALastTransferCmd
                0x0000000000000000       0x12 stm32f4xx_i2c.o
 .text.I2C_ReadRegister
                0x0000000000000000       0x16 stm32f4xx_i2c.o
 .text.I2C_ITConfig
                0x0000000000000000       0x14 stm32f4xx_i2c.o
 .text.I2C_GetLastEvent
                0x0000000000000000        0xe stm32f4xx_i2c.o
 .text.I2C_ClearFlag
                0x0000000000000000        0x6 stm32f4xx_i2c.o
 .text.I2C_GetITStatus
                0x0000000000000000       0x18 stm32f4xx_i2c.o
 .text.I2C_ClearITPendingBit
                0x0000000000000000        0x6 stm32f4xx_i2c.o
 .debug_info    0x0000000000000000      0xd3b stm32f4xx_i2c.o
 .debug_abbrev  0x0000000000000000      0x2bd stm32f4xx_i2c.o
 .debug_loc     0x0000000000000000      0x7f2 stm32f4xx_i2c.o
 .debug_aranges
                0x0000000000000000      0x110 stm32f4xx_i2c.o
 .debug_ranges  0x0000000000000000      0x100 stm32f4xx_i2c.o
 .debug_line    0x0000000000000000      0x83e stm32f4xx_i2c.o
 .debug_str     0x0000000000000000      0x733 stm32f4xx_i2c.o
 .debug_frame   0x0000000000000000      0x258 stm32f4xx_i2c.o
 .text          0x0000000000000000        0x0 stm32f4xx_rcc.o
 .data          0x0000000000000000        0x0 stm32f4xx_rcc.o
 .bss           0x0000000000000000        0x0 stm32f4xx_rcc.o
 .text.RCC_DeInit
                0x0000000000000000       0x34 stm32f4xx_rcc.o
 .text.RCC_HSEConfig
                0x0000000000000000       0x10 stm32f4xx_rcc.o
 .text.RCC_AdjustHSICalibrationValue
                0x0000000000000000       0x14 stm32f4xx_rcc.o
 .text.RCC_HSICmd
                0x0000000000000000        0xc stm32f4xx_rcc.o
 .text.RCC_LSEConfig
                0x0000000000000000       0x20 stm32f4xx_rcc.o
 .text.RCC_LSICmd
                0x0000000000000000        0xc stm32f4xx_rcc.o
 .text.RCC_PLLConfig
                0x0000000000000000       0x20 stm32f4xx_rcc.o
 .text.RCC_PLLCmd
                0x0000000000000000        0xc stm32f4xx_rcc.o
 .text.RCC_PLLI2SConfig
                0x0000000000000000       0x14 stm32f4xx_rcc.o
 .text.RCC_PLLI2SCmd
                0x0000000000000000        0xc stm32f4xx_rcc.o
 .text.RCC_ClockSecuritySystemCmd
                0x0000000000000000        0xc stm32f4xx_rcc.o
 .text.RCC_MCO1Config
                0x0000000000000000       0x14 stm32f4xx_rcc.o
 .text.RCC_MCO2Config
                0x0000000000000000       0x14 stm32f4xx_rcc.o
 .text.RCC_SYSCLKConfig
                0x0000000000000000       0x14 stm32f4xx_rcc.o
 .text.RCC_GetSYSCLKSource
                0x0000000000000000       0x10 stm32f4xx_rcc.o
 .text.RCC_HCLKConfig
                0x0000000000000000       0x14 stm32f4xx_rcc.o
 .text.RCC_PCLK1Config
                0x0000000000000000       0x14 stm32f4xx_rcc.o
 .text.RCC_PCLK2Config
                0x0000000000000000       0x14 stm32f4xx_rcc.o
 .text.RCC_RTCCLKConfig
                0x0000000000000000       0x30 stm32f4xx_rcc.o
 .text.RCC_RTCCLKCmd
                0x0000000000000000        0xc stm32f4xx_rcc.o
 .text.RCC_BackupResetCmd
                0x0000000000000000        0xc stm32f4xx_rcc.o
 .text.RCC_I2SCLKConfig
                0x0000000000000000        0xc stm32f4xx_rcc.o
 .text.RCC_AHB2PeriphClockCmd
                0x0000000000000000       0x1c stm32f4xx_rcc.o
 .text.RCC_AHB3PeriphClockCmd
                0x0000000000000000       0x1c stm32f4xx_rcc.o
 .text.RCC_AHB1PeriphResetCmd
                0x0000000000000000       0x1c stm32f4xx_rcc.o
 .text.RCC_AHB2PeriphResetCmd
                0x0000000000000000       0x1c stm32f4xx_rcc.o
 .text.RCC_AHB3PeriphResetCmd
                0x0000000000000000       0x1c stm32f4xx_rcc.o
 .text.RCC_AHB1PeriphClockLPModeCmd
                0x0000000000000000       0x1c stm32f4xx_rcc.o
 .text.RCC_AHB2PeriphClockLPModeCmd
                0x0000000000000000       0x1c stm32f4xx_rcc.o
 .text.RCC_AHB3PeriphClockLPModeCmd
                0x0000000000000000       0x1c stm32f4xx_rcc.o
 .text.RCC_APB1PeriphClockLPModeCmd
                0x0000000000000000       0x1c stm32f4xx_rcc.o
 .text.RCC_APB2PeriphClockLPModeCmd
                0x0000000000000000       0x1c stm32f4xx_rcc.o
 .text.RCC_ITConfig
                0x0000000000000000       0x1c stm32f4xx_rcc.o
 .text.RCC_GetFlagStatus
                0x0000000000000000       0x28 stm32f4xx_rcc.o
 .text.RCC_WaitForHSEStartUp
                0x0000000000000000       0x30 stm32f4xx_rcc.o
 .text.RCC_ClearFlag
                0x0000000000000000       0x10 stm32f4xx_rcc.o
 .text.RCC_GetITStatus
                0x0000000000000000       0x14 stm32f4xx_rcc.o
 .text.RCC_ClearITPendingBit
                0x0000000000000000        0xc stm32f4xx_rcc.o
 .debug_info    0x0000000000000000      0xef4 stm32f4xx_rcc.o
 .debug_abbrev  0x0000000000000000      0x293 stm32f4xx_rcc.o
 .debug_loc     0x0000000000000000      0xa86 stm32f4xx_rcc.o
 .debug_aranges
                0x0000000000000000      0x178 stm32f4xx_rcc.o
 .debug_ranges  0x0000000000000000      0x168 stm32f4xx_rcc.o
 .debug_line    0x0000000000000000      0x9b2 stm32f4xx_rcc.o
 .debug_str     0x0000000000000000      0x8f5 stm32f4xx_rcc.o
 .debug_frame   0x0000000000000000      0x2e8 stm32f4xx_rcc.o
 .text          0x0000000000000000        0x0 stm32f4xx_spi.o
 .data          0x0000000000000000        0x0 stm32f4xx_spi.o
 .bss           0x0000000000000000        0x0 stm32f4xx_spi.o
 .text.SPI_Init
                0x0000000000000000       0x38 stm32f4xx_spi.o
 .text.SPI_StructInit
                0x0000000000000000       0x2a stm32f4xx_spi.o
 .text.I2S_StructInit
                0x0000000000000000       0x22 stm32f4xx_spi.o
 .text.SPI_Cmd  0x0000000000000000       0x12 stm32f4xx_spi.o
 .text.SPI_DataSizeConfig
                0x0000000000000000       0x10 stm32f4xx_spi.o
 .text.SPI_BiDirectionalLineConfig
                0x0000000000000000       0x14 stm32f4xx_spi.o
 .text.SPI_NSSInternalSoftwareConfig
                0x0000000000000000       0x16 stm32f4xx_spi.o
 .text.SPI_SSOutputCmd
                0x0000000000000000       0x12 stm32f4xx_spi.o
 .text.SPI_TIModeCmd
                0x0000000000000000       0x12 stm32f4xx_spi.o
 .text.SPI_I2S_ReceiveData
                0x0000000000000000        0x4 stm32f4xx_spi.o
 .text.SPI_I2S_SendData
                0x0000000000000000        0x4 stm32f4xx_spi.o
 .text.SPI_CalculateCRC
                0x0000000000000000       0x12 stm32f4xx_spi.o
 .text.SPI_TransmitCRC
                0x0000000000000000        0xa stm32f4xx_spi.o
 .text.SPI_GetCRC
                0x0000000000000000        0xa stm32f4xx_spi.o
 .text.SPI_GetCRCPolynomial
                0x0000000000000000        0x4 stm32f4xx_spi.o
 .text.SPI_I2S_ITConfig
                0x0000000000000000       0x1a stm32f4xx_spi.o
 .text.SPI_I2S_GetFlagStatus
                0x0000000000000000        0xc stm32f4xx_spi.o
 .text.SPI_I2S_ClearFlag
                0x0000000000000000        0x6 stm32f4xx_spi.o
 .text.SPI_I2S_GetITStatus
                0x0000000000000000       0x22 stm32f4xx_spi.o
 .text.SPI_I2S_ClearITPendingBit
                0x0000000000000000        0xe stm32f4xx_spi.o
 .debug_info    0x0000000000000000      0xd9c stm32f4xx_spi.o
 .debug_abbrev  0x0000000000000000      0x24f stm32f4xx_spi.o
 .debug_loc     0x0000000000000000      0x741 stm32f4xx_spi.o
 .debug_aranges
                0x0000000000000000       0xe0 stm32f4xx_spi.o
 .debug_ranges  0x0000000000000000       0xd0 stm32f4xx_spi.o
 .debug_line    0x0000000000000000      0x75c stm32f4xx_spi.o
 .debug_str     0x0000000000000000      0x75d stm32f4xx_spi.o
 .debug_frame   0x0000000000000000      0x1e4 stm32f4xx_spi.o
 .text          0x0000000000000000        0x0 stm32f4xx_dma.o
 .data          0x0000000000000000        0x0 stm32f4xx_dma.o
 .bss           0x0000000000000000        0x0 stm32f4xx_dma.o
 .text.DMA_StructInit
                0x0000000000000000       0xb4 stm32f4xx_dma.o
 .text.DMA_PeriphIncOffsetSizeConfig
                0x0000000000000000       0x12 stm32f4xx_dma.o
 .text.DMA_FlowControllerConfig
                0x0000000000000000       0x12 stm32f4xx_dma.o
 .text.DMA_SetCurrDataCounter
                0x0000000000000000        0x4 stm32f4xx_dma.o
 .text.DMA_GetCurrDataCounter
                0x0000000000000000        0x6 stm32f4xx_dma.o
 .text.DMA_DoubleBufferModeConfig
                0x0000000000000000       0x14 stm32f4xx_dma.o
 .text.DMA_DoubleBufferModeCmd
                0x0000000000000000       0x12 stm32f4xx_dma.o
 .text.DMA_MemoryTargetConfig
                0x0000000000000000        0xa stm32f4xx_dma.o
 .text.DMA_GetCurrentMemoryTarget
                0x0000000000000000        0x8 stm32f4xx_dma.o
 .text.DMA_GetCmdStatus
                0x0000000000000000        0x8 stm32f4xx_dma.o
 .text.DMA_GetFIFOStatus
                0x0000000000000000        0x8 stm32f4xx_dma.o
 .text.DMA_GetITStatus
                0x0000000000000000       0x54 stm32f4xx_dma.o
 .text.DMA_ClearITPendingBit
                0x0000000000000000        0x4 stm32f4xx_dma.o
 .debug_info    0x0000000000000000      0x852 stm32f4xx_dma.o
 .debug_abbrev  0x0000000000000000      0x213 stm32f4xx_dma.o
 .debug_loc     0x0000000000000000      0x4b2 stm32f4xx_dma.o
 .debug_aranges
                0x0000000000000000       0xa8 stm32f4xx_dma.o
 .debug_ranges  0x0000000000000000       0x98 stm32f4xx_dma.o
 .debug_line    0x0000000000000000      0x6b0 stm32f4xx_dma.o
 .debug_str     0x0000000000000000      0x5f1 stm32f4xx_dma.o
 .debug_frame   0x0000000000000000      0x160 stm32f4xx_dma.o
 .text          0x0000000000000000        0x0 stm32f4xx_adc.o
 .data          0x0000000000000000        0x0 stm32f4xx_adc.o
 .bss           0x0000000000000000        0x0 stm32f4xx_adc.o
 .text.ADC_StructInit
                0x0000000000000000       0x2c stm32f4xx_adc.o
 .text.ADC_CommonStructInit
                0x0000000000000000       0x24 stm32f4xx_adc.o
 .text.ADC_AnalogWatchdogCmd
                0x0000000000000000       0x10 stm32f4xx_adc.o
 .text.ADC_AnalogWatchdogThresholdsConfig
                0x0000000000000000        0x6 stm32f4xx_adc.o
 .text.ADC_AnalogWatchdogSingleChannelConfig
                0x0000000000000000        0xc stm32f4xx_adc.o
 .text.ADC_TempSensorVrefintCmd
                0x0000000000000000       0x18 stm32f4xx_adc.o
 .text.ADC_VBATCmd
                0x0000000000000000       0x18 stm32f4xx_adc.o
 .text.ADC_GetSoftwareStartConvStatus
                0x0000000000000000        0x8 stm32f4xx_adc.o
 .text.ADC_EOCOnEachRegularChannelCmd
                0x0000000000000000       0x12 stm32f4xx_adc.o
 .text.ADC_ContinuousModeCmd
                0x0000000000000000       0x12 stm32f4xx_adc.o
 .text.ADC_DiscModeChannelCountConfig
                0x0000000000000000       0x10 stm32f4xx_adc.o
 .text.ADC_DiscModeCmd
                0x0000000000000000       0x12 stm32f4xx_adc.o
 .text.ADC_GetConversionValue
                0x0000000000000000        0x6 stm32f4xx_adc.o
 .text.ADC_GetMultiModeConversionValue
                0x0000000000000000        0xc stm32f4xx_adc.o
 .text.ADC_MultiModeDMARequestAfterLastTransferCmd
                0x0000000000000000       0x18 stm32f4xx_adc.o
 .text.ADC_InjectedChannelConfig
                0x0000000000000000       0x58 stm32f4xx_adc.o
 .text.ADC_InjectedSequencerLengthConfig
                0x0000000000000000       0x10 stm32f4xx_adc.o
 .text.ADC_SetInjectedOffset
                0x0000000000000000       0x16 stm32f4xx_adc.o
 .text.ADC_ExternalTrigInjectedConvConfig
                0x0000000000000000        0xc stm32f4xx_adc.o
 .text.ADC_ExternalTrigInjectedConvEdgeConfig
                0x0000000000000000        0xc stm32f4xx_adc.o
 .text.ADC_SoftwareStartInjectedConv
                0x0000000000000000        0xa stm32f4xx_adc.o
 .text.ADC_GetSoftwareStartInjectedConvCmdStatus
                0x0000000000000000        0x4 stm32f4xx_adc.o
 .text.ADC_AutoInjectedConvCmd
                0x0000000000000000       0x12 stm32f4xx_adc.o
 .text.ADC_InjectedDiscModeCmd
                0x0000000000000000       0x12 stm32f4xx_adc.o
 .text.ADC_GetInjectedConversionValue
                0x0000000000000000       0x1a stm32f4xx_adc.o
 .text.ADC_ITConfig
                0x0000000000000000       0x18 stm32f4xx_adc.o
 .text.ADC_GetFlagStatus
                0x0000000000000000        0xc stm32f4xx_adc.o
 .text.ADC_ClearFlag
                0x0000000000000000        0x6 stm32f4xx_adc.o
 .text.ADC_GetITStatus
                0x0000000000000000       0x1c stm32f4xx_adc.o
 .text.ADC_ClearITPendingBit
                0x0000000000000000        0x8 stm32f4xx_adc.o
 .debug_info    0x0000000000000000      0xeaf stm32f4xx_adc.o
 .debug_abbrev  0x0000000000000000      0x27f stm32f4xx_adc.o
 .debug_loc     0x0000000000000000      0xcec stm32f4xx_adc.o
 .debug_aranges
                0x0000000000000000      0x140 stm32f4xx_adc.o
 .debug_ranges  0x0000000000000000      0x130 stm32f4xx_adc.o
 .debug_line    0x0000000000000000      0xa01 stm32f4xx_adc.o
 .debug_str     0x0000000000000000      0x8c0 stm32f4xx_adc.o
 .debug_frame   0x0000000000000000      0x2b4 stm32f4xx_adc.o
 .text          0x0000000000000000        0x0 syscalls.o
 .data          0x0000000000000000        0x0 syscalls.o
 .bss           0x0000000000000000        0x0 syscalls.o
 .text._write   0x0000000000000000        0x8 syscalls.o
 .text._getpid  0x0000000000000000        0x4 syscalls.o
 .text._kill    0x0000000000000000        0x4 syscalls.o
 .text._close   0x0000000000000000        0x4 syscalls.o
 .text._fstat   0x0000000000000000        0x4 syscalls.o
 .text._isatty  0x0000000000000000        0x4 syscalls.o
 .text._lseek   0x0000000000000000        0x4 syscalls.o
 .text._open    0x0000000000000000        0x6 syscalls.o
 .text._read    0x0000000000000000        0x4 syscalls.o
 .text._sbrk    0x0000000000000000       0x30 syscalls.o
 .bss.heap_end.5468
                0x0000000000000000        0x4 syscalls.o
 .debug_info    0x0000000000000000      0xf62 syscalls.o
 .debug_abbrev  0x0000000000000000      0x2f5 syscalls.o
 .debug_loc     0x0000000000000000      0x1ac syscalls.o
 .debug_aranges
                0x0000000000000000       0x58 syscalls.o
 .debug_ranges  0x0000000000000000       0x48 syscalls.o
 .debug_line    0x0000000000000000      0x242 syscalls.o
 .debug_str     0x0000000000000000      0x7ea syscalls.o
 .comment       0x0000000000000000       0x52 syscalls.o
 .debug_frame   0x0000000000000000       0xb8 syscalls.o
 .ARM.attributes
                0x0000000000000000       0x34 syscalls.o
 .text          0x0000000000000000        0x0 resources.o
 .data          0x0000000000000000        0x0 resources.o
 .bss           0x0000000000000000        0x0 resources.o
 .debug_info    0x0000000000000000       0xb6 resources.o
 .debug_abbrev  0x0000000000000000       0x50 resources.o
 .debug_aranges
                0x0000000000000000       0x18 resources.o
 .debug_line    0x0000000000000000       0x2c resources.o
 .debug_str     0x0000000000000000      0x1c8 resources.o
 .text          0x0000000000000000        0x0 audio.o
 .data          0x0000000000000000        0x0 audio.o
 .bss           0x0000000000000000        0x0 audio.o
 .text.none_get_sample
                0x0000000000000000        0x4 audio.o
 .text.none_newsay
                0x0000000000000000        0x2 audio.o
 .debug_info    0x0000000000000000     0x2192 audio.o
 .debug_abbrev  0x0000000000000000      0x447 audio.o
 .debug_loc     0x0000000000000000      0x7af audio.o
 .debug_aranges
                0x0000000000000000       0x58 audio.o
 .debug_ranges  0x0000000000000000       0x98 audio.o
 .debug_line    0x0000000000000000      0x8fb audio.o
 .debug_str     0x0000000000000000     0x1480 audio.o
 .debug_frame   0x0000000000000000       0xf8 audio.o
 .text          0x0000000000000000        0x0 sp0256.o
 .data          0x0000000000000000        0x0 sp0256.o
 .bss           0x0000000000000000        0x0 sp0256.o
 .text.bitrevbuff
                0x0000000000000000       0x38 sp0256.o
 .debug_info    0x0000000000000000     0x3f25 sp0256.o
 .debug_abbrev  0x0000000000000000      0x4fd sp0256.o
 .debug_loc     0x0000000000000000     0x10be sp0256.o
 .debug_aranges
                0x0000000000000000       0xb8 sp0256.o
 .debug_ranges  0x0000000000000000      0x1c0 sp0256.o
 .debug_line    0x0000000000000000     0x1160 sp0256.o
 .debug_str     0x0000000000000000     0x2277 sp0256.o
 .debug_frame   0x0000000000000000      0x22c sp0256.o
 .text          0x0000000000000000        0x0 simpleklatt.o
 .data          0x0000000000000000        0x0 simpleklatt.o
 .bss           0x0000000000000000        0x0 simpleklatt.o
 .debug_info    0x0000000000000000     0x1b72 simpleklatt.o
 .debug_abbrev  0x0000000000000000      0x33a simpleklatt.o
 .debug_loc     0x0000000000000000       0x8b simpleklatt.o
 .debug_aranges
                0x0000000000000000       0x38 simpleklatt.o
 .debug_ranges  0x0000000000000000       0x28 simpleklatt.o
 .debug_line    0x0000000000000000      0x2c5 simpleklatt.o
 .debug_str     0x0000000000000000     0x10de simpleklatt.o
 .debug_frame   0x0000000000000000       0x74 simpleklatt.o
 .text          0x0000000000000000        0x0 parwave.o
 .data          0x0000000000000000        0x0 parwave.o
 .bss           0x0000000000000000        0x0 parwave.o
 .text.single_parwave
                0x0000000000000000      0x2d0 parwave.o
 .bss.glotlast.11149
                0x0000000000000000        0x4 parwave.o
 .bss.vlast.11150
                0x0000000000000000        0x4 parwave.o
 .debug_info    0x0000000000000000     0x292a parwave.o
 .debug_abbrev  0x0000000000000000      0x580 parwave.o
 .debug_loc     0x0000000000000000      0xcf4 parwave.o
 .debug_aranges
                0x0000000000000000       0x78 parwave.o
 .debug_ranges  0x0000000000000000      0x128 parwave.o
 .debug_line    0x0000000000000000      0xf6f parwave.o
 .debug_str     0x0000000000000000     0x1177 parwave.o
 .debug_frame   0x0000000000000000      0x1a4 parwave.o
 .text          0x0000000000000000        0x0 sam.o
 .data          0x0000000000000000        0x0 sam.o
 .bss           0x0000000000000000        0x0 sam.o
 .text.Code47503
                0x0000000000000000       0x9c sam.o
 .debug_info    0x0000000000000000     0x3126 sam.o
 .debug_abbrev  0x0000000000000000      0x461 sam.o
 .debug_loc     0x0000000000000000     0x15e9 sam.o
 .debug_aranges
                0x0000000000000000      0x150 sam.o
 .debug_ranges  0x0000000000000000      0x218 sam.o
 .debug_line    0x0000000000000000     0x1c61 sam.o
 .debug_str     0x0000000000000000     0x1578 sam.o
 .debug_frame   0x0000000000000000      0x524 sam.o
 .text          0x0000000000000000        0x0 render.o
 .data          0x0000000000000000        0x0 render.o
 .bss           0x0000000000000000        0x0 render.o
 .data.wait1    0x0000000000000000        0x1 render.o
 .data.wait2    0x0000000000000000        0x1 render.o
 .debug_info    0x0000000000000000     0x262e render.o
 .debug_abbrev  0x0000000000000000      0x581 render.o
 .debug_loc     0x0000000000000000      0xcd3 render.o
 .debug_aranges
                0x0000000000000000       0x70 render.o
 .debug_ranges  0x0000000000000000      0x220 render.o
 .debug_line    0x0000000000000000     0x1571 render.o
 .debug_str     0x0000000000000000     0x1278 render.o
 .debug_frame   0x0000000000000000      0x168 render.o
 .text          0x0000000000000000        0x0 tms5200x.o
 .data          0x0000000000000000        0x0 tms5200x.o
 .bss           0x0000000000000000        0x0 tms5200x.o
 .text.process5100raw_no_inter
                0x0000000000000000      0x118 tms5200x.o
 .bss.m_DDIS    0x0000000000000000        0x1 tms5200x.o
 .bss.m_SPEN    0x0000000000000000        0x1 tms5200x.o
 .bss.m_TALK    0x0000000000000000        0x1 tms5200x.o
 .bss.m_TALKD   0x0000000000000000        0x1 tms5200x.o
 .bss.m_buffer_empty
                0x0000000000000000        0x1 tms5200x.o
 .bss.m_buffer_low
                0x0000000000000000        0x1 tms5200x.o
 .bss.m_io_ready
                0x0000000000000000        0x1 tms5200x.o
 .bss.m_irq_pin
                0x0000000000000000        0x1 tms5200x.o
 .bss.m_old_uv_zpar
                0x0000000000000000        0x1 tms5200x.o
 .bss.m_old_zpar
                0x0000000000000000        0x1 tms5200x.o
 .bss.m_pitch_zero
                0x0000000000000000        0x1 tms5200x.o
 .bss.m_previous_TALK_STATUS
                0x0000000000000000        0x1 tms5200x.o
 .bss.m_ready_pin
                0x0000000000000000        0x1 tms5200x.o
 .bss.m_speaking_now
                0x0000000000000000        0x1 tms5200x.o
 .bss.m_true_timing
                0x0000000000000000        0x1 tms5200x.o
 .bss.m_uv_zpar
                0x0000000000000000        0x1 tms5200x.o
 .bss.m_zpar    0x0000000000000000        0x1 tms5200x.o
 .debug_info    0x0000000000000000    0x23d49 tms5200x.o
 .debug_abbrev  0x0000000000000000      0x49e tms5200x.o
 .debug_loc     0x0000000000000000     0x1b0b tms5200x.o
 .debug_aranges
                0x0000000000000000      0x1e8 tms5200x.o
 .debug_ranges  0x0000000000000000      0x2d0 tms5200x.o
 .debug_line    0x0000000000000000     0x372c tms5200x.o
 .debug_str     0x0000000000000000    0x134eb tms5200x.o
 .debug_frame   0x0000000000000000      0x5c4 tms5200x.o
 .text          0x0000000000000000        0x0 digitalker.o
 .data          0x0000000000000000        0x0 digitalker.o
 .bss           0x0000000000000000        0x0 digitalker.o
 .debug_info    0x0000000000000000     0x24ce digitalker.o
 .debug_abbrev  0x0000000000000000      0x39f digitalker.o
 .debug_loc     0x0000000000000000     0x13ec digitalker.o
 .debug_aranges
                0x0000000000000000       0xa0 digitalker.o
 .debug_ranges  0x0000000000000000      0x190 digitalker.o
 .debug_line    0x0000000000000000     0x16cd digitalker.o
 .debug_str     0x0000000000000000     0x1153 digitalker.o
 .debug_frame   0x0000000000000000      0x248 digitalker.o
 .text          0x0000000000000000        0x0 nvp.o
 .data          0x0000000000000000        0x0 nvp.o
 .bss           0x0000000000000000        0x0 nvp.o
 .text.calculateValueAtFadePosition
                0x0000000000000000        0xa nvp.o
 .text.getNextNOISE
                0x0000000000000000       0x30 nvp.o
 .text.getNextFREQ
                0x0000000000000000       0x28 nvp.o
 .text.getNextVOICE
                0x0000000000000000       0xc4 nvp.o
 .text.INITRES  0x0000000000000000       0x12 nvp.o
 .text.setParamsRES
                0x0000000000000000       0xd8 nvp.o
 .text.resonateRES
                0x0000000000000000       0x68 nvp.o
 .text.getNextCASC
                0x0000000000000000       0xe0 nvp.o
 .text.getNextPARALLEL
                0x0000000000000000      0x138 nvp.o
 .text.change_nvpparams
                0x0000000000000000       0x40 nvp.o
 .text.nvp_newsay
                0x0000000000000000       0xec nvp.o
 .text.nvp_newsay_vocab
                0x0000000000000000      0x18c nvp.o
 .text.nvp_newsay_vocab_trigger
                0x0000000000000000      0x174 nvp.o
 .text.nvp_get_sample
                0x0000000000000000      0x16c nvp.o
 .text.nvp_get_sample_vocab
                0x0000000000000000      0x180 nvp.o
 .text.nvp_get_sample_vocab_sing
                0x0000000000000000      0x16c nvp.o
 .bss.changed   0x0000000000000000        0x1 nvp.o
 .bss.count     0x0000000000000000        0x2 nvp.o
 .bss.counter   0x0000000000000000        0x1 nvp.o
 .bss.lastCyclePosOne
                0x0000000000000000        0x4 nvp.o
 .bss.lastCyclePosTwo
                0x0000000000000000        0x4 nvp.o
 .bss.lastValueOne
                0x0000000000000000        0x4 nvp.o
 .bss.lastValueTwo
                0x0000000000000000        0x4 nvp.o
 .bss.nextframe.10489
                0x0000000000000000        0x1 nvp.o
 .bss.tempframe
                0x0000000000000000       0xbc nvp.o
 .bss.this_pitch
                0x0000000000000000        0x4 nvp.o
 .bss.this_pitch_inc
                0x0000000000000000        0x4 nvp.o
 .rodata.PITWO  0x0000000000000000        0x4 nvp.o
 .rodata.nvp_vocab
                0x0000000000000000      0x200 nvp.o
 .debug_info    0x0000000000000000     0x38fe nvp.o
 .debug_abbrev  0x0000000000000000      0x4f4 nvp.o
 .debug_loc     0x0000000000000000     0x1281 nvp.o
 .debug_aranges
                0x0000000000000000       0xa8 nvp.o
 .debug_ranges  0x0000000000000000      0x178 nvp.o
 .debug_line    0x0000000000000000     0x117d nvp.o
 .debug_str     0x0000000000000000     0x19b1 nvp.o
 .debug_frame   0x0000000000000000      0x274 nvp.o
 .text          0x0000000000000000        0x0 samplerate.o
 .data          0x0000000000000000        0x0 samplerate.o
 .bss           0x0000000000000000        0x0 samplerate.o
 .debug_info    0x0000000000000000     0x1b5e samplerate.o
 .debug_abbrev  0x0000000000000000      0x383 samplerate.o
 .debug_loc     0x0000000000000000      0x7f9 samplerate.o
 .debug_aranges
                0x0000000000000000       0x40 samplerate.o
 .debug_ranges  0x0000000000000000       0x90 samplerate.o
 .debug_line    0x0000000000000000      0x643 samplerate.o
 .debug_str     0x0000000000000000      0xfb3 samplerate.o
 .debug_frame   0x0000000000000000       0xe8 samplerate.o
 .text          0x0000000000000000        0x0 newvotrax.o
 .data          0x0000000000000000        0x0 newvotrax.o
 .bss           0x0000000000000000        0x0 newvotrax.o
 .text.build_injection_filter
                0x0000000000000000       0x10 newvotrax.o
 .text.generate_votrax_samples
                0x0000000000000000       0x24 newvotrax.o
 .bss.m_rom_cld_orig
                0x0000000000000000        0x1 newvotrax.o
 .bss.m_rom_duration_orig
                0x0000000000000000        0x1 newvotrax.o
 .bss.m_rom_f1_orig
                0x0000000000000000        0x1 newvotrax.o
 .bss.m_rom_f2_orig
                0x0000000000000000        0x1 newvotrax.o
 .bss.m_rom_f2q_orig
                0x0000000000000000        0x1 newvotrax.o
 .bss.m_rom_f3_orig
                0x0000000000000000        0x1 newvotrax.o
 .bss.m_rom_fa_orig
                0x0000000000000000        0x1 newvotrax.o
 .bss.m_rom_fc_orig
                0x0000000000000000        0x1 newvotrax.o
 .bss.m_rom_va_orig
                0x0000000000000000        0x1 newvotrax.o
 .bss.m_rom_vd_orig
                0x0000000000000000        0x1 newvotrax.o
 .debug_info    0x0000000000000000     0x50a8 newvotrax.o
 .debug_abbrev  0x0000000000000000      0x5c8 newvotrax.o
 .debug_loc     0x0000000000000000     0x1eec newvotrax.o
 .debug_aranges
                0x0000000000000000      0x160 newvotrax.o
 .debug_ranges  0x0000000000000000      0x2c8 newvotrax.o
 .debug_line    0x0000000000000000     0x1fe3 newvotrax.o
 .debug_str     0x0000000000000000     0x198f newvotrax.o
 .debug_frame   0x0000000000000000      0x4ac newvotrax.o
 .text          0x0000000000000000        0x0 sp0256bend.o
 .data          0x0000000000000000        0x0 sp0256bend.o
 .bss           0x0000000000000000        0x0 sp0256bend.o
 .debug_info    0x0000000000000000     0x2084 sp0256bend.o
 .debug_abbrev  0x0000000000000000      0x477 sp0256bend.o
 .debug_loc     0x0000000000000000      0xde0 sp0256bend.o
 .debug_aranges
                0x0000000000000000       0x40 sp0256bend.o
 .debug_ranges  0x0000000000000000      0x128 sp0256bend.o
 .debug_line    0x0000000000000000      0xa6d sp0256bend.o
 .debug_str     0x0000000000000000     0x10e5 sp0256bend.o
 .debug_frame   0x0000000000000000       0xa8 sp0256bend.o
 .text          0x0000000000000000        0x0 ./english2phoneme/parse.o
 .data          0x0000000000000000        0x0 ./english2phoneme/parse.o
 .bss           0x0000000000000000        0x0 ./english2phoneme/parse.o
 .text.text2speech
                0x0000000000000000       0x4c ./english2phoneme/parse.o
 .debug_info    0x0000000000000000     0x12e3 ./english2phoneme/parse.o
 .debug_abbrev  0x0000000000000000      0x358 ./english2phoneme/parse.o
 .debug_loc     0x0000000000000000      0x6bf ./english2phoneme/parse.o
 .debug_aranges
                0x0000000000000000       0x78 ./english2phoneme/parse.o
 .debug_ranges  0x0000000000000000      0x140 ./english2phoneme/parse.o
 .debug_line    0x0000000000000000      0x936 ./english2phoneme/parse.o
 .debug_str     0x0000000000000000      0x7ce ./english2phoneme/parse.o
 .debug_frame   0x0000000000000000      0x19c ./english2phoneme/parse.o
 .text          0x0000000000000000        0x0 ./english2phoneme/saynum.o
 .data          0x0000000000000000        0x0 ./english2phoneme/saynum.o
 .bss           0x0000000000000000        0x0 ./english2phoneme/saynum.o
 .debug_info    0x0000000000000000      0xd5e ./english2phoneme/saynum.o
 .debug_abbrev  0x0000000000000000      0x236 ./english2phoneme/saynum.o
 .debug_loc     0x0000000000000000      0x17c ./english2phoneme/saynum.o
 .debug_aranges
                0x0000000000000000       0x28 ./english2phoneme/saynum.o
 .debug_ranges  0x0000000000000000       0x18 ./english2phoneme/saynum.o
 .debug_line    0x0000000000000000      0x2b6 ./english2phoneme/saynum.o
 .debug_str     0x0000000000000000      0x667 ./english2phoneme/saynum.o
 .debug_frame   0x0000000000000000       0x68 ./english2phoneme/saynum.o
 .text          0x0000000000000000        0x0 ./english2phoneme/newenglish.o
 .data          0x0000000000000000        0x0 ./english2phoneme/newenglish.o
 .bss           0x0000000000000000        0x0 ./english2phoneme/newenglish.o
 .debug_info    0x0000000000000000      0x478 ./english2phoneme/newenglish.o
 .debug_abbrev  0x0000000000000000       0xc5 ./english2phoneme/newenglish.o
 .debug_aranges
                0x0000000000000000       0x18 ./english2phoneme/newenglish.o
 .debug_line    0x0000000000000000       0x3d ./english2phoneme/newenglish.o
 .debug_str     0x0000000000000000      0x2b7 ./english2phoneme/newenglish.o
 .text          0x0000000000000000        0x0 ./english2phoneme/phoneme.o
 .data          0x0000000000000000        0x0 ./english2phoneme/phoneme.o
 .bss           0x0000000000000000        0x0 ./english2phoneme/phoneme.o
 .debug_info    0x0000000000000000      0xf10 ./english2phoneme/phoneme.o
 .debug_abbrev  0x0000000000000000      0x34b ./english2phoneme/phoneme.o
 .debug_loc     0x0000000000000000      0x657 ./english2phoneme/phoneme.o
 .debug_aranges
                0x0000000000000000       0x50 ./english2phoneme/phoneme.o
 .debug_ranges  0x0000000000000000       0x68 ./english2phoneme/phoneme.o
 .debug_line    0x0000000000000000      0x46a ./english2phoneme/phoneme.o
 .debug_str     0x0000000000000000      0x6d6 ./english2phoneme/phoneme.o
 .debug_frame   0x0000000000000000       0xcc ./english2phoneme/phoneme.o
 .text          0x0000000000000000        0x0 ./english2phoneme/spellwor.o
 .data          0x0000000000000000        0x0 ./english2phoneme/spellwor.o
 .bss           0x0000000000000000        0x0 ./english2phoneme/spellwor.o
 .debug_info    0x0000000000000000      0xaa3 ./english2phoneme/spellwor.o
 .debug_abbrev  0x0000000000000000      0x214 ./english2phoneme/spellwor.o
 .debug_loc     0x0000000000000000       0x83 ./english2phoneme/spellwor.o
 .debug_aranges
                0x0000000000000000       0x28 ./english2phoneme/spellwor.o
 .debug_ranges  0x0000000000000000       0x18 ./english2phoneme/spellwor.o
 .debug_line    0x0000000000000000      0x10d ./english2phoneme/spellwor.o
 .debug_str     0x0000000000000000      0x631 ./english2phoneme/spellwor.o
 .debug_frame   0x0000000000000000       0x3c ./english2phoneme/spellwor.o
 .text          0x0000000000000000        0x0 rsynth_2005/holmes.o
 .data          0x0000000000000000        0x0 rsynth_2005/holmes.o
 .bss           0x0000000000000000        0x0 rsynth_2005/holmes.o
 .bss.contour   0x0000000000000000        0xc rsynth_2005/holmes.o
 .debug_info    0x0000000000000000     0x28a3 rsynth_2005/holmes.o
 .debug_abbrev  0x0000000000000000      0x502 rsynth_2005/holmes.o
 .debug_loc     0x0000000000000000      0xeaa rsynth_2005/holmes.o
 .debug_aranges
                0x0000000000000000       0x70 rsynth_2005/holmes.o
 .debug_ranges  0x0000000000000000      0x158 rsynth_2005/holmes.o
 .debug_line    0x0000000000000000      0xfd3 rsynth_2005/holmes.o
 .debug_str     0x0000000000000000     0x10ba rsynth_2005/holmes.o
 .debug_frame   0x0000000000000000      0x1a0 rsynth_2005/holmes.o
 .text          0x0000000000000000        0x0 rsynth_2005/elements.o
 .data          0x0000000000000000        0x0 rsynth_2005/elements.o
 .bss           0x0000000000000000        0x0 rsynth_2005/elements.o
 .data.num_Elementz
                0x0000000000000000        0x4 rsynth_2005/elements.o
 .debug_info    0x0000000000000000      0xd82 rsynth_2005/elements.o
 .debug_abbrev  0x0000000000000000      0x24b rsynth_2005/elements.o
 .debug_loc     0x0000000000000000       0x25 rsynth_2005/elements.o
 .debug_aranges
                0x0000000000000000       0x20 rsynth_2005/elements.o
 .debug_ranges  0x0000000000000000       0x10 rsynth_2005/elements.o
 .debug_line    0x0000000000000000      0x18a rsynth_2005/elements.o
 .debug_str     0x0000000000000000      0x743 rsynth_2005/elements.o
 .debug_frame   0x0000000000000000       0x20 rsynth_2005/elements.o
 .text          0x0000000000000000        0x0 rsynth_2005/opsynth.o
 .data          0x0000000000000000        0x0 rsynth_2005/opsynth.o
 .bss           0x0000000000000000        0x0 rsynth_2005/opsynth.o
 .debug_info    0x0000000000000000     0x1ffa rsynth_2005/opsynth.o
 .debug_abbrev  0x0000000000000000      0x4d3 rsynth_2005/opsynth.o
 .debug_loc     0x0000000000000000      0xed3 rsynth_2005/opsynth.o
 .debug_aranges
                0x0000000000000000       0x50 rsynth_2005/opsynth.o
 .debug_ranges  0x0000000000000000      0x298 rsynth_2005/opsynth.o
 .debug_line    0x0000000000000000      0x95a rsynth_2005/opsynth.o
 .debug_str     0x0000000000000000      0x947 rsynth_2005/opsynth.o
 .debug_frame   0x0000000000000000      0x114 rsynth_2005/opsynth.o
 .text          0x0000000000000000        0x0 ./rsynth-2.0-port/holmes.o
 .data          0x0000000000000000        0x0 ./rsynth-2.0-port/holmes.o
 .bss           0x0000000000000000        0x0 ./rsynth-2.0-port/holmes.o
 .debug_info    0x0000000000000000     0x385d ./rsynth-2.0-port/holmes.o
 .debug_abbrev  0x0000000000000000      0x515 ./rsynth-2.0-port/holmes.o
 .debug_loc     0x0000000000000000     0x14f1 ./rsynth-2.0-port/holmes.o
 .debug_aranges
                0x0000000000000000       0x70 ./rsynth-2.0-port/holmes.o
 .debug_ranges  0x0000000000000000      0x310 ./rsynth-2.0-port/holmes.o
 .debug_line    0x0000000000000000     0x2114 ./rsynth-2.0-port/holmes.o
 .debug_str     0x0000000000000000     0x1baa ./rsynth-2.0-port/holmes.o
 .debug_frame   0x0000000000000000      0x1d8 ./rsynth-2.0-port/holmes.o
 .text          0x0000000000000000        0x0 ./rsynth-2.0-port/elements.o
 .data          0x0000000000000000        0x0 ./rsynth-2.0-port/elements.o
 .bss           0x0000000000000000        0x0 ./rsynth-2.0-port/elements.o
 .data.Ep_name  0x0000000000000000       0x4c ./rsynth-2.0-port/elements.o
 .data.num_Elements
                0x0000000000000000        0x4 ./rsynth-2.0-port/elements.o
 .debug_info    0x0000000000000000      0xc0a ./rsynth-2.0-port/elements.o
 .debug_abbrev  0x0000000000000000      0x1e8 ./rsynth-2.0-port/elements.o
 .debug_aranges
                0x0000000000000000       0x18 ./rsynth-2.0-port/elements.o
 .debug_line    0x0000000000000000       0xd5 ./rsynth-2.0-port/elements.o
 .debug_str     0x0000000000000000      0x6b0 ./rsynth-2.0-port/elements.o
 .text          0x0000000000000000        0x0 ./rsynth-2.0-port/nsynth.o
 .data          0x0000000000000000        0x0 ./rsynth-2.0-port/nsynth.o
 .bss           0x0000000000000000        0x0 ./rsynth-2.0-port/nsynth.o
 .text.parwavesample
                0x0000000000000000      0x268 ./rsynth-2.0-port/nsynth.o
 .data.par_name
                0x0000000000000000       0xa0 ./rsynth-2.0-port/nsynth.o
 .data.seed.11405
                0x0000000000000000        0x4 ./rsynth-2.0-port/nsynth.o
 .debug_info    0x0000000000000000     0x2fef ./rsynth-2.0-port/nsynth.o
 .debug_abbrev  0x0000000000000000      0x47b ./rsynth-2.0-port/nsynth.o
 .debug_loc     0x0000000000000000     0x12e4 ./rsynth-2.0-port/nsynth.o
 .debug_aranges
                0x0000000000000000       0x60 ./rsynth-2.0-port/nsynth.o
 .debug_ranges  0x0000000000000000      0x210 ./rsynth-2.0-port/nsynth.o
 .debug_line    0x0000000000000000      0xef7 ./rsynth-2.0-port/nsynth.o
 .debug_str     0x0000000000000000     0x12b5 ./rsynth-2.0-port/nsynth.o
 .debug_frame   0x0000000000000000      0x198 ./rsynth-2.0-port/nsynth.o
 .text          0x0000000000000000        0x0 ./rsynth-2.0-port/def_pars.o
 .data          0x0000000000000000        0x0 ./rsynth-2.0-port/def_pars.o
 .bss           0x0000000000000000        0x0 ./rsynth-2.0-port/def_pars.o
 .debug_info    0x0000000000000000      0xd90 ./rsynth-2.0-port/def_pars.o
 .debug_abbrev  0x0000000000000000      0x21a ./rsynth-2.0-port/def_pars.o
 .debug_loc     0x0000000000000000       0x20 ./rsynth-2.0-port/def_pars.o
 .debug_aranges
                0x0000000000000000       0x20 ./rsynth-2.0-port/def_pars.o
 .debug_ranges  0x0000000000000000       0x10 ./rsynth-2.0-port/def_pars.o
 .debug_line    0x0000000000000000      0x171 ./rsynth-2.0-port/def_pars.o
 .debug_str     0x0000000000000000      0x793 ./rsynth-2.0-port/def_pars.o
 .debug_frame   0x0000000000000000       0x2c ./rsynth-2.0-port/def_pars.o
 .data          0x0000000000000000        0x0 /usr/lib/gcc/arm-none-eabi/8.3.1/../../../arm-none-eabi/lib/thumb/v7e-m+fp/hard/libm.a(lib_a-sf_cos.o)
 .bss           0x0000000000000000        0x0 /usr/lib/gcc/arm-none-eabi/8.3.1/../../../arm-none-eabi/lib/thumb/v7e-m+fp/hard/libm.a(lib_a-sf_cos.o)
 .data          0x0000000000000000        0x0 /usr/lib/gcc/arm-none-eabi/8.3.1/../../../arm-none-eabi/lib/thumb/v7e-m+fp/hard/libm.a(lib_a-sf_fabs.o)
 .bss           0x0000000000000000        0x0 /usr/lib/gcc/arm-none-eabi/8.3.1/../../../arm-none-eabi/lib/thumb/v7e-m+fp/hard/libm.a(lib_a-sf_fabs.o)
 .data          0x0000000000000000        0x0 /usr/lib/gcc/arm-none-eabi/8.3.1/../../../arm-none-eabi/lib/thumb/v7e-m+fp/hard/libm.a(lib_a-sf_sin.o)
 .bss           0x0000000000000000        0x0 /usr/lib/gcc/arm-none-eabi/8.3.1/../../../arm-none-eabi/lib/thumb/v7e-m+fp/hard/libm.a(lib_a-sf_sin.o)
 .data          0x0000000000000000        0x0 /usr/lib/gcc/arm-none-eabi/8.3.1/../../../arm-none-eabi/lib/thumb/v7e-m+fp/hard/libm.a(lib_a-sf_tan.o)
 .bss           0x0000000000000000        0x0 /usr/lib/gcc/arm-none-eabi/8.3.1/../../../arm-none-eabi/lib/thumb/v7e-m+fp/hard/libm.a(lib_a-sf_tan.o)
 .data          0x0000000000000000        0x0 /usr/lib/gcc/arm-none-eabi/8.3.1/../../../arm-none-eabi/lib/thumb/v7e-m+fp/hard/libm.a(lib_a-wf_exp.o)
 .bss           0x0000000000000000        0x0 /usr/lib/gcc/arm-none-eabi/8.3.1/../../../arm-none-eabi/lib/thumb/v7e-m+fp/hard/libm.a(lib_a-wf_exp.o)
 .text          0x0000000000000000       0x60 /usr/lib/gcc/arm-none-eabi/8.3.1/../../../arm-none-eabi/lib/thumb/v7e-m+fp/hard/libm.a(lib_a-wf_fmod.o)
 .data          0x0000000000000000        0x0 /usr/lib/gcc/arm-none-eabi/8.3.1/../../../arm-none-eabi/lib/thumb/v7e-m+fp/hard/libm.a(lib_a-wf_fmod.o)
 .bss           0x0000000000000000        0x0 /usr/lib/gcc/arm-none-eabi/8.3.1/../../../arm-none-eabi/lib/thumb/v7e-m+fp/hard/libm.a(lib_a-wf_fmod.o)
 .comment       0x0000000000000000       0x4f /usr/lib/gcc/arm-none-eabi/8.3.1/../../../arm-none-eabi/lib/thumb/v7e-m+fp/hard/libm.a(lib_a-wf_fmod.o)
 .ARM.attributes
                0x0000000000000000       0x34 /usr/lib/gcc/arm-none-eabi/8.3.1/../../../arm-none-eabi/lib/thumb/v7e-m+fp/hard/libm.a(lib_a-wf_fmod.o)
 .data          0x0000000000000000        0x0 /usr/lib/gcc/arm-none-eabi/8.3.1/../../../arm-none-eabi/lib/thumb/v7e-m+fp/hard/libm.a(lib_a-wf_pow.o)
 .bss           0x0000000000000000        0x0 /usr/lib/gcc/arm-none-eabi/8.3.1/../../../arm-none-eabi/lib/thumb/v7e-m+fp/hard/libm.a(lib_a-wf_pow.o)
 .data          0x0000000000000000        0x0 /usr/lib/gcc/arm-none-eabi/8.3.1/../../../arm-none-eabi/lib/thumb/v7e-m+fp/hard/libm.a(lib_a-wf_sqrt.o)
 .bss           0x0000000000000000        0x0 /usr/lib/gcc/arm-none-eabi/8.3.1/../../../arm-none-eabi/lib/thumb/v7e-m+fp/hard/libm.a(lib_a-wf_sqrt.o)
 .data          0x0000000000000000        0x0 /usr/lib/gcc/arm-none-eabi/8.3.1/../../../arm-none-eabi/lib/thumb/v7e-m+fp/hard/libm.a(lib_a-ef_exp.o)
 .bss           0x0000000000000000        0x0 /usr/lib/gcc/arm-none-eabi/8.3.1/../../../arm-none-eabi/lib/thumb/v7e-m+fp/hard/libm.a(lib_a-ef_exp.o)
 .text          0x0000000000000000      0x128 /usr/lib/gcc/arm-none-eabi/8.3.1/../../../arm-none-eabi/lib/thumb/v7e-m+fp/hard/libm.a(lib_a-ef_fmod.o)
 .data          0x0000000000000000        0x0 /usr/lib/gcc/arm-none-eabi/8.3.1/../../../arm-none-eabi/lib/thumb/v7e-m+fp/hard/libm.a(lib_a-ef_fmod.o)
 .bss           0x0000000000000000        0x0 /usr/lib/gcc/arm-none-eabi/8.3.1/../../../arm-none-eabi/lib/thumb/v7e-m+fp/hard/libm.a(lib_a-ef_fmod.o)
 .rodata        0x0000000000000000        0x8 /usr/lib/gcc/arm-none-eabi/8.3.1/../../../arm-none-eabi/lib/thumb/v7e-m+fp/hard/libm.a(lib_a-ef_fmod.o)
 .comment       0x0000000000000000       0x4f /usr/lib/gcc/arm-none-eabi/8.3.1/../../../arm-none-eabi/lib/thumb/v7e-m+fp/hard/libm.a(lib_a-ef_fmod.o)
 .ARM.attributes
                0x0000000000000000       0x34 /usr/lib/gcc/arm-none-eabi/8.3.1/../../../arm-none-eabi/lib/thumb/v7e-m+fp/hard/libm.a(lib_a-ef_fmod.o)
 .data          0x0000000000000000        0x0 /usr/lib/gcc/arm-none-eabi/8.3.1/../../../arm-none-eabi/lib/thumb/v7e-m+fp/hard/libm.a(lib_a-ef_pow.o)
 .bss           0x0000000000000000        0x0 /usr/lib/gcc/arm-none-eabi/8.3.1/../../../arm-none-eabi/lib/thumb/v7e-m+fp/hard/libm.a(lib_a-ef_pow.o)
 .data          0x0000000000000000        0x0 /usr/lib/gcc/arm-none-eabi/8.3.1/../../../arm-none-eabi/lib/thumb/v7e-m+fp/hard/libm.a(lib_a-ef_rem_pio2.o)
 .bss           0x0000000000000000        0x0 /usr/lib/gcc/arm-none-eabi/8.3.1/../../../arm-none-eabi/lib/thumb/v7e-m+fp/hard/libm.a(lib_a-ef_rem_pio2.o)
 .data          0x0000000000000000        0x0 /usr/lib/gcc/arm-none-eabi/8.3.1/../../../arm-none-eabi/lib/thumb/v7e-m+fp/hard/libm.a(lib_a-ef_sqrt.o)
 .bss           0x0000000000000000        0x0 /usr/lib/gcc/arm-none-eabi/8.3.1/../../../arm-none-eabi/lib/thumb/v7e-m+fp/hard/libm.a(lib_a-ef_sqrt.o)
 .data          0x0000000000000000        0x0 /usr/lib/gcc/arm-none-eabi/8.3.1/../../../arm-none-eabi/lib/thumb/v7e-m+fp/hard/libm.a(lib_a-kf_cos.o)
 .bss           0x0000000000000000        0x0 /usr/lib/gcc/arm-none-eabi/8.3.1/../../../arm-none-eabi/lib/thumb/v7e-m+fp/hard/libm.a(lib_a-kf_cos.o)
 .data          0x0000000000000000        0x0 /usr/lib/gcc/arm-none-eabi/8.3.1/../../../arm-none-eabi/lib/thumb/v7e-m+fp/hard/libm.a(lib_a-kf_rem_pio2.o)
 .bss           0x0000000000000000        0x0 /usr/lib/gcc/arm-none-eabi/8.3.1/../../../arm-none-eabi/lib/thumb/v7e-m+fp/hard/libm.a(lib_a-kf_rem_pio2.o)
 .data          0x0000000000000000        0x0 /usr/lib/gcc/arm-none-eabi/8.3.1/../../../arm-none-eabi/lib/thumb/v7e-m+fp/hard/libm.a(lib_a-kf_sin.o)
 .bss           0x0000000000000000        0x0 /usr/lib/gcc/arm-none-eabi/8.3.1/../../../arm-none-eabi/lib/thumb/v7e-m+fp/hard/libm.a(lib_a-kf_sin.o)
 .data          0x0000000000000000        0x0 /usr/lib/gcc/arm-none-eabi/8.3.1/../../../arm-none-eabi/lib/thumb/v7e-m+fp/hard/libm.a(lib_a-kf_tan.o)
 .bss           0x0000000000000000        0x0 /usr/lib/gcc/arm-none-eabi/8.3.1/../../../arm-none-eabi/lib/thumb/v7e-m+fp/hard/libm.a(lib_a-kf_tan.o)
 .text          0x0000000000000000        0x0 /usr/lib/gcc/arm-none-eabi/8.3.1/../../../arm-none-eabi/lib/thumb/v7e-m+fp/hard/libm.a(lib_a-s_lib_ver.o)
 .bss           0x0000000000000000        0x0 /usr/lib/gcc/arm-none-eabi/8.3.1/../../../arm-none-eabi/lib/thumb/v7e-m+fp/hard/libm.a(lib_a-s_lib_ver.o)
 .data          0x0000000000000000        0x0 /usr/lib/gcc/arm-none-eabi/8.3.1/../../../arm-none-eabi/lib/thumb/v7e-m+fp/hard/libm.a(lib_a-sf_finite.o)
 .bss           0x0000000000000000        0x0 /usr/lib/gcc/arm-none-eabi/8.3.1/../../../arm-none-eabi/lib/thumb/v7e-m+fp/hard/libm.a(lib_a-sf_finite.o)
 .data          0x0000000000000000        0x0 /usr/lib/gcc/arm-none-eabi/8.3.1/../../../arm-none-eabi/lib/thumb/v7e-m+fp/hard/libm.a(lib_a-sf_floor.o)
 .bss           0x0000000000000000        0x0 /usr/lib/gcc/arm-none-eabi/8.3.1/../../../arm-none-eabi/lib/thumb/v7e-m+fp/hard/libm.a(lib_a-sf_floor.o)
 .data          0x0000000000000000        0x0 /usr/lib/gcc/arm-none-eabi/8.3.1/../../../arm-none-eabi/lib/thumb/v7e-m+fp/hard/libm.a(lib_a-sf_nan.o)
 .bss           0x0000000000000000        0x0 /usr/lib/gcc/arm-none-eabi/8.3.1/../../../arm-none-eabi/lib/thumb/v7e-m+fp/hard/libm.a(lib_a-sf_nan.o)
 .data          0x0000000000000000        0x0 /usr/lib/gcc/arm-none-eabi/8.3.1/../../../arm-none-eabi/lib/thumb/v7e-m+fp/hard/libm.a(lib_a-sf_rint.o)
 .bss           0x0000000000000000        0x0 /usr/lib/gcc/arm-none-eabi/8.3.1/../../../arm-none-eabi/lib/thumb/v7e-m+fp/hard/libm.a(lib_a-sf_rint.o)
 .data          0x0000000000000000        0x0 /usr/lib/gcc/arm-none-eabi/8.3.1/../../../arm-none-eabi/lib/thumb/v7e-m+fp/hard/libm.a(lib_a-sf_scalbn.o)
 .bss           0x0000000000000000        0x0 /usr/lib/gcc/arm-none-eabi/8.3.1/../../../arm-none-eabi/lib/thumb/v7e-m+fp/hard/libm.a(lib_a-sf_scalbn.o)
 .data          0x0000000000000000        0x0 /usr/lib/gcc/arm-none-eabi/8.3.1/../../../arm-none-eabi/lib/thumb/v7e-m+fp/hard/libc.a(lib_a-atexit.o)
 .bss           0x0000000000000000        0x0 /usr/lib/gcc/arm-none-eabi/8.3.1/../../../arm-none-eabi/lib/thumb/v7e-m+fp/hard/libc.a(lib_a-atexit.o)
 .text          0x0000000000000000        0x0 /usr/lib/gcc/arm-none-eabi/8.3.1/../../../arm-none-eabi/lib/thumb/v7e-m+fp/hard/libc.a(lib_a-ctype_.o)
 .data          0x0000000000000000        0x0 /usr/lib/gcc/arm-none-eabi/8.3.1/../../../arm-none-eabi/lib/thumb/v7e-m+fp/hard/libc.a(lib_a-ctype_.o)
 .bss           0x0000000000000000        0x0 /usr/lib/gcc/arm-none-eabi/8.3.1/../../../arm-none-eabi/lib/thumb/v7e-m+fp/hard/libc.a(lib_a-ctype_.o)
 .data          0x0000000000000000        0x0 /usr/lib/gcc/arm-none-eabi/8.3.1/../../../arm-none-eabi/lib/thumb/v7e-m+fp/hard/libc.a(lib_a-errno.o)
 .bss           0x0000000000000000        0x0 /usr/lib/gcc/arm-none-eabi/8.3.1/../../../arm-none-eabi/lib/thumb/v7e-m+fp/hard/libc.a(lib_a-errno.o)
 .text          0x0000000000000000       0x20 /usr/lib/gcc/arm-none-eabi/8.3.1/../../../arm-none-eabi/lib/thumb/v7e-m+fp/hard/libc.a(lib_a-exit.o)
 .data          0x0000000000000000        0x0 /usr/lib/gcc/arm-none-eabi/8.3.1/../../../arm-none-eabi/lib/thumb/v7e-m+fp/hard/libc.a(lib_a-exit.o)
 .bss           0x0000000000000000        0x0 /usr/lib/gcc/arm-none-eabi/8.3.1/../../../arm-none-eabi/lib/thumb/v7e-m+fp/hard/libc.a(lib_a-exit.o)
 .comment       0x0000000000000000       0x4f /usr/lib/gcc/arm-none-eabi/8.3.1/../../../arm-none-eabi/lib/thumb/v7e-m+fp/hard/libc.a(lib_a-exit.o)
 .ARM.attributes
                0x0000000000000000       0x34 /usr/lib/gcc/arm-none-eabi/8.3.1/../../../arm-none-eabi/lib/thumb/v7e-m+fp/hard/libc.a(lib_a-exit.o)
 .data          0x0000000000000000        0x0 /usr/lib/gcc/arm-none-eabi/8.3.1/../../../arm-none-eabi/lib/thumb/v7e-m+fp/hard/libc.a(lib_a-fini.o)
 .bss           0x0000000000000000        0x0 /usr/lib/gcc/arm-none-eabi/8.3.1/../../../arm-none-eabi/lib/thumb/v7e-m+fp/hard/libc.a(lib_a-fini.o)
 .text          0x0000000000000000        0x0 /usr/lib/gcc/arm-none-eabi/8.3.1/../../../arm-none-eabi/lib/thumb/v7e-m+fp/hard/libc.a(lib_a-impure.o)
 .bss           0x0000000000000000        0x0 /usr/lib/gcc/arm-none-eabi/8.3.1/../../../arm-none-eabi/lib/thumb/v7e-m+fp/hard/libc.a(lib_a-impure.o)
 .text          0x0000000000000000       0x48 /usr/lib/gcc/arm-none-eabi/8.3.1/../../../arm-none-eabi/lib/thumb/v7e-m+fp/hard/libc.a(lib_a-init.o)
 .data          0x0000000000000000        0x0 /usr/lib/gcc/arm-none-eabi/8.3.1/../../../arm-none-eabi/lib/thumb/v7e-m+fp/hard/libc.a(lib_a-init.o)
 .bss           0x0000000000000000        0x0 /usr/lib/gcc/arm-none-eabi/8.3.1/../../../arm-none-eabi/lib/thumb/v7e-m+fp/hard/libc.a(lib_a-init.o)
 .comment       0x0000000000000000       0x4f /usr/lib/gcc/arm-none-eabi/8.3.1/../../../arm-none-eabi/lib/thumb/v7e-m+fp/hard/libc.a(lib_a-init.o)
 .ARM.attributes
                0x0000000000000000       0x34 /usr/lib/gcc/arm-none-eabi/8.3.1/../../../arm-none-eabi/lib/thumb/v7e-m+fp/hard/libc.a(lib_a-init.o)
 .data          0x0000000000000000        0x0 /usr/lib/gcc/arm-none-eabi/8.3.1/../../../arm-none-eabi/lib/thumb/v7e-m+fp/hard/libc.a(lib_a-memcpy.o)
 .bss           0x0000000000000000        0x0 /usr/lib/gcc/arm-none-eabi/8.3.1/../../../arm-none-eabi/lib/thumb/v7e-m+fp/hard/libc.a(lib_a-memcpy.o)
 .data          0x0000000000000000        0x0 /usr/lib/gcc/arm-none-eabi/8.3.1/../../../arm-none-eabi/lib/thumb/v7e-m+fp/hard/libc.a(lib_a-memset.o)
 .bss           0x0000000000000000        0x0 /usr/lib/gcc/arm-none-eabi/8.3.1/../../../arm-none-eabi/lib/thumb/v7e-m+fp/hard/libc.a(lib_a-memset.o)
 .data          0x0000000000000000        0x0 /usr/lib/gcc/arm-none-eabi/8.3.1/../../../arm-none-eabi/lib/thumb/v7e-m+fp/hard/libc.a(lib_a-rand.o)
 .bss           0x0000000000000000        0x0 /usr/lib/gcc/arm-none-eabi/8.3.1/../../../arm-none-eabi/lib/thumb/v7e-m+fp/hard/libc.a(lib_a-rand.o)
 .data          0x0000000000000000        0x0 /usr/lib/gcc/arm-none-eabi/8.3.1/../../../arm-none-eabi/lib/thumb/v7e-m+fp/hard/libc.a(lib_a-strcat.o)
 .bss           0x0000000000000000        0x0 /usr/lib/gcc/arm-none-eabi/8.3.1/../../../arm-none-eabi/lib/thumb/v7e-m+fp/hard/libc.a(lib_a-strcat.o)
 .data          0x0000000000000000        0x0 /usr/lib/gcc/arm-none-eabi/8.3.1/../../../arm-none-eabi/lib/thumb/v7e-m+fp/hard/libc.a(lib_a-strcmp.o)
 .bss           0x0000000000000000        0x0 /usr/lib/gcc/arm-none-eabi/8.3.1/../../../arm-none-eabi/lib/thumb/v7e-m+fp/hard/libc.a(lib_a-strcmp.o)
 .data          0x0000000000000000        0x0 /usr/lib/gcc/arm-none-eabi/8.3.1/../../../arm-none-eabi/lib/thumb/v7e-m+fp/hard/libc.a(lib_a-strcpy.o)
 .bss           0x0000000000000000        0x0 /usr/lib/gcc/arm-none-eabi/8.3.1/../../../arm-none-eabi/lib/thumb/v7e-m+fp/hard/libc.a(lib_a-strcpy.o)
 .data          0x0000000000000000        0x0 /usr/lib/gcc/arm-none-eabi/8.3.1/../../../arm-none-eabi/lib/thumb/v7e-m+fp/hard/libc.a(lib_a-strlen.o)
 .bss           0x0000000000000000        0x0 /usr/lib/gcc/arm-none-eabi/8.3.1/../../../arm-none-eabi/lib/thumb/v7e-m+fp/hard/libc.a(lib_a-strlen.o)
 .data          0x0000000000000000        0x0 /usr/lib/gcc/arm-none-eabi/8.3.1/../../../arm-none-eabi/lib/thumb/v7e-m+fp/hard/libc.a(lib_a-__atexit.o)
 .bss           0x0000000000000000        0x0 /usr/lib/gcc/arm-none-eabi/8.3.1/../../../arm-none-eabi/lib/thumb/v7e-m+fp/hard/libc.a(lib_a-__atexit.o)
 .text          0x0000000000000000       0x9c /usr/lib/gcc/arm-none-eabi/8.3.1/../../../arm-none-eabi/lib/thumb/v7e-m+fp/hard/libc.a(lib_a-__call_atexit.o)
 .data          0x0000000000000000        0x0 /usr/lib/gcc/arm-none-eabi/8.3.1/../../../arm-none-eabi/lib/thumb/v7e-m+fp/hard/libc.a(lib_a-__call_atexit.o)
 .bss           0x0000000000000000        0x0 /usr/lib/gcc/arm-none-eabi/8.3.1/../../../arm-none-eabi/lib/thumb/v7e-m+fp/hard/libc.a(lib_a-__call_atexit.o)
 .text          0x0000000000000000        0x0 /usr/lib/gcc/arm-none-eabi/8.3.1/thumb/v7e-m+fp/hard/crtend.o
 .data          0x0000000000000000        0x0 /usr/lib/gcc/arm-none-eabi/8.3.1/thumb/v7e-m+fp/hard/crtend.o
 .bss           0x0000000000000000        0x0 /usr/lib/gcc/arm-none-eabi/8.3.1/thumb/v7e-m+fp/hard/crtend.o
 .eh_frame      0x0000000000000000        0x4 /usr/lib/gcc/arm-none-eabi/8.3.1/thumb/v7e-m+fp/hard/crtend.o
 .text          0x0000000000000000        0x0 /usr/lib/gcc/arm-none-eabi/8.3.1/thumb/v7e-m+fp/hard/crtn.o
 .data          0x0000000000000000        0x0 /usr/lib/gcc/arm-none-eabi/8.3.1/thumb/v7e-m+fp/hard/crtn.o
 .bss           0x0000000000000000        0x0 /usr/lib/gcc/arm-none-eabi/8.3.1/thumb/v7e-m+fp/hard/crtn.o

Memory Configuration

Name             Origin             Length             Attributes
FLASH            0x0000000008000000 0x0000000000100000 xr
RAM              0x0000000020000000 0x0000000000020000 xrw
CCM              0x0000000010000000 0x0000000000010000 xrw
*default*        0x0000000000000000 0xffffffffffffffff

Linker script and memory map

LOAD /usr/lib/gcc/arm-none-eabi/8.3.1/thumb/v7e-m+fp/hard/crti.o
LOAD /usr/lib/gcc/arm-none-eabi/8.3.1/thumb/v7e-m+fp/hard/crtbegin.o
LOAD /usr/lib/gcc/arm-none-eabi/8.3.1/../../../arm-none-eabi/lib/thumb/v7e-m+fp/hard/crt0.o
LOAD startup_stm32f4xx.o
LOAD system_stm32f4xx.o
LOAD main.o
LOAD codec.o
LOAD i2s.o
LOAD stm32f4xx_tim.o
LOAD adc.o
LOAD stm32f4xx_pwr.o
LOAD stm32f4xx_gpio.o
LOAD stm32f4xx_i2c.o
LOAD stm32f4xx_rcc.o
LOAD stm32f4xx_spi.o
LOAD stm32f4xx_dma.o
LOAD stm32f4xx_adc.o
LOAD syscalls.o
LOAD resources.o
LOAD audio.o
LOAD sp0256.o
LOAD simpleklatt.o
LOAD parwave.o
LOAD sam.o
LOAD render.o
LOAD tms5200x.o
LOAD digitalker.o
LOAD nvp.o
LOAD samplerate.o
LOAD newvotrax.o
LOAD sp0256bend.o
LOAD ./english2phoneme/parse.o
LOAD ./english2phoneme/saynum.o
LOAD ./english2phoneme/newenglish.o
LOAD ./english2phoneme/phoneme.o
LOAD ./english2phoneme/spellwor.o
LOAD rsynth_2005/holmes.o
LOAD rsynth_2005/elements.o
LOAD rsynth_2005/opsynth.o
LOAD ./rsynth-2.0-port/holmes.o
LOAD ./rsynth-2.0-port/elements.o
LOAD ./rsynth-2.0-port/nsynth.o
LOAD ./rsynth-2.0-port/def_pars.o
LOAD /usr/lib/gcc/arm-none-eabi/8.3.1/../../../arm-none-eabi/lib/thumb/v7e-m+fp/hard/libm.a
LOAD /usr/lib/gcc/arm-none-eabi/8.3.1/../../../arm-none-eabi/lib/thumb/v7e-m+fp/hard/libc.a
START GROUP
LOAD /usr/lib/gcc/arm-none-eabi/8.3.1/thumb/v7e-m+fp/hard/libgcc.a
LOAD /usr/lib/gcc/arm-none-eabi/8.3.1/../../../arm-none-eabi/lib/thumb/v7e-m+fp/hard/libc.a
END GROUP
LOAD /usr/lib/gcc/arm-none-eabi/8.3.1/thumb/v7e-m+fp/hard/crtend.o
LOAD /usr/lib/gcc/arm-none-eabi/8.3.1/thumb/v7e-m+fp/hard/crtn.o
                0x0000000020020000                _estack = 0x20020000
                0x0000000000000200                _Min_Heap_Size = 0x200
                0x0000000000001000                _Min_Stack_Size = 0x1000

.isr_vector     0x0000000008000000      0x188
                0x0000000008000000                . = ALIGN (0x4)
 *(.isr_vector)
 .isr_vector    0x0000000008000000      0x188 startup_stm32f4xx.o
                0x0000000008000000                g_pfnVectors
                0x0000000008000188                . = ALIGN (0x4)

.text           0x00000000080001c0    0x1d600
                0x00000000080001c0                . = ALIGN (0x4)
 *(.text)
 .text          0x00000000080001c0       0x88 /usr/lib/gcc/arm-none-eabi/8.3.1/thumb/v7e-m+fp/hard/crtbegin.o
 .text          0x0000000008000248       0x90 /usr/lib/gcc/arm-none-eabi/8.3.1/../../../arm-none-eabi/lib/thumb/v7e-m+fp/hard/libm.a(lib_a-sf_cos.o)
                0x0000000008000248                cosf
 .text          0x00000000080002d8       0x10 /usr/lib/gcc/arm-none-eabi/8.3.1/../../../arm-none-eabi/lib/thumb/v7e-m+fp/hard/libm.a(lib_a-sf_fabs.o)
                0x00000000080002d8                fabsf
 .text          0x00000000080002e8       0x94 /usr/lib/gcc/arm-none-eabi/8.3.1/../../../arm-none-eabi/lib/thumb/v7e-m+fp/hard/libm.a(lib_a-sf_sin.o)
                0x00000000080002e8                sinf
 .text          0x000000000800037c       0x5c /usr/lib/gcc/arm-none-eabi/8.3.1/../../../arm-none-eabi/lib/thumb/v7e-m+fp/hard/libm.a(lib_a-sf_tan.o)
                0x000000000800037c                tanf
 .text          0x00000000080003d8       0x7c /usr/lib/gcc/arm-none-eabi/8.3.1/../../../arm-none-eabi/lib/thumb/v7e-m+fp/hard/libm.a(lib_a-wf_exp.o)
                0x00000000080003d8                expf
 .text          0x0000000008000454      0x140 /usr/lib/gcc/arm-none-eabi/8.3.1/../../../arm-none-eabi/lib/thumb/v7e-m+fp/hard/libm.a(lib_a-wf_pow.o)
                0x0000000008000454                powf
 .text          0x0000000008000594       0x50 /usr/lib/gcc/arm-none-eabi/8.3.1/../../../arm-none-eabi/lib/thumb/v7e-m+fp/hard/libm.a(lib_a-wf_sqrt.o)
                0x0000000008000594                sqrtf
 .text          0x00000000080005e4      0x1e4 /usr/lib/gcc/arm-none-eabi/8.3.1/../../../arm-none-eabi/lib/thumb/v7e-m+fp/hard/libm.a(lib_a-ef_exp.o)
                0x00000000080005e4                __ieee754_expf
 .text          0x00000000080007c8      0x614 /usr/lib/gcc/arm-none-eabi/8.3.1/../../../arm-none-eabi/lib/thumb/v7e-m+fp/hard/libm.a(lib_a-ef_pow.o)
                0x00000000080007c8                __ieee754_powf
 .text          0x0000000008000ddc      0x298 /usr/lib/gcc/arm-none-eabi/8.3.1/../../../arm-none-eabi/lib/thumb/v7e-m+fp/hard/libm.a(lib_a-ef_rem_pio2.o)
                0x0000000008000ddc                __ieee754_rem_pio2f
 .text          0x0000000008001074        0x8 /usr/lib/gcc/arm-none-eabi/8.3.1/../../../arm-none-eabi/lib/thumb/v7e-m+fp/hard/libm.a(lib_a-ef_sqrt.o)
                0x0000000008001074                __ieee754_sqrtf
 .text          0x000000000800107c      0x104 /usr/lib/gcc/arm-none-eabi/8.3.1/../../../arm-none-eabi/lib/thumb/v7e-m+fp/hard/libm.a(lib_a-kf_cos.o)
                0x000000000800107c                __kernel_cosf
 .text          0x0000000008001180      0x664 /usr/lib/gcc/arm-none-eabi/8.3.1/../../../arm-none-eabi/lib/thumb/v7e-m+fp/hard/libm.a(lib_a-kf_rem_pio2.o)
                0x0000000008001180                __kernel_rem_pio2f
 .text          0x00000000080017e4       0x90 /usr/lib/gcc/arm-none-eabi/8.3.1/../../../arm-none-eabi/lib/thumb/v7e-m+fp/hard/libm.a(lib_a-kf_sin.o)
                0x00000000080017e4                __kernel_sinf
 .text          0x0000000008001874      0x1c8 /usr/lib/gcc/arm-none-eabi/8.3.1/../../../arm-none-eabi/lib/thumb/v7e-m+fp/hard/libm.a(lib_a-kf_tan.o)
                0x0000000008001874                __kernel_tanf
 .text          0x0000000008001a3c       0x14 /usr/lib/gcc/arm-none-eabi/8.3.1/../../../arm-none-eabi/lib/thumb/v7e-m+fp/hard/libm.a(lib_a-sf_finite.o)
                0x0000000008001a3c                finitef
 .text          0x0000000008001a50       0x88 /usr/lib/gcc/arm-none-eabi/8.3.1/../../../arm-none-eabi/lib/thumb/v7e-m+fp/hard/libm.a(lib_a-sf_floor.o)
                0x0000000008001a50                floorf
 .text          0x0000000008001ad8        0xc /usr/lib/gcc/arm-none-eabi/8.3.1/../../../arm-none-eabi/lib/thumb/v7e-m+fp/hard/libm.a(lib_a-sf_nan.o)
                0x0000000008001ad8                nanf
 .text          0x0000000008001ae4       0xb8 /usr/lib/gcc/arm-none-eabi/8.3.1/../../../arm-none-eabi/lib/thumb/v7e-m+fp/hard/libm.a(lib_a-sf_rint.o)
                0x0000000008001ae4                rintf
 .text          0x0000000008001b9c       0xe4 /usr/lib/gcc/arm-none-eabi/8.3.1/../../../arm-none-eabi/lib/thumb/v7e-m+fp/hard/libm.a(lib_a-sf_scalbn.o)
                0x0000000008001b9c                scalbnf
 .text          0x0000000008001c80        0xc /usr/lib/gcc/arm-none-eabi/8.3.1/../../../arm-none-eabi/lib/thumb/v7e-m+fp/hard/libc.a(lib_a-atexit.o)
                0x0000000008001c80                atexit
 .text          0x0000000008001c8c        0xc /usr/lib/gcc/arm-none-eabi/8.3.1/../../../arm-none-eabi/lib/thumb/v7e-m+fp/hard/libc.a(lib_a-errno.o)
                0x0000000008001c8c                __errno
 .text          0x0000000008001c98       0x34 /usr/lib/gcc/arm-none-eabi/8.3.1/../../../arm-none-eabi/lib/thumb/v7e-m+fp/hard/libc.a(lib_a-fini.o)
                0x0000000008001c98                __libc_fini_array
 .text          0x0000000008001ccc      0x134 /usr/lib/gcc/arm-none-eabi/8.3.1/../../../arm-none-eabi/lib/thumb/v7e-m+fp/hard/libc.a(lib_a-memcpy.o)
                0x0000000008001ccc                memcpy
 .text          0x0000000008001e00       0xa0 /usr/lib/gcc/arm-none-eabi/8.3.1/../../../arm-none-eabi/lib/thumb/v7e-m+fp/hard/libc.a(lib_a-memset.o)
                0x0000000008001e00                memset
 .text          0x0000000008001ea0       0x4c /usr/lib/gcc/arm-none-eabi/8.3.1/../../../arm-none-eabi/lib/thumb/v7e-m+fp/hard/libc.a(lib_a-rand.o)
                0x0000000008001ea0                srand
                0x0000000008001eb0                rand
 .text          0x0000000008001eec       0x40 /usr/lib/gcc/arm-none-eabi/8.3.1/../../../arm-none-eabi/lib/thumb/v7e-m+fp/hard/libc.a(lib_a-strcat.o)
                0x0000000008001eec                strcat
 *fill*         0x0000000008001f2c       0x14 
 .text          0x0000000008001f40      0x2dc /usr/lib/gcc/arm-none-eabi/8.3.1/../../../arm-none-eabi/lib/thumb/v7e-m+fp/hard/libc.a(lib_a-strcmp.o)
                0x0000000008001f48                strcmp
 .text          0x000000000800221c       0xbc /usr/lib/gcc/arm-none-eabi/8.3.1/../../../arm-none-eabi/lib/thumb/v7e-m+fp/hard/libc.a(lib_a-strcpy.o)
                0x000000000800221c                strcpy
 *fill*         0x00000000080022d8       0x28 
 .text          0x0000000008002300       0xdc /usr/lib/gcc/arm-none-eabi/8.3.1/../../../arm-none-eabi/lib/thumb/v7e-m+fp/hard/libc.a(lib_a-strlen.o)
                0x0000000008002300                strlen
 .text          0x00000000080023dc       0x68 /usr/lib/gcc/arm-none-eabi/8.3.1/../../../arm-none-eabi/lib/thumb/v7e-m+fp/hard/libc.a(lib_a-__atexit.o)
                0x00000000080023dc                __register_exitproc
 *(.text*)
 .text.Reset_Handler
                0x0000000008002444       0x44 startup_stm32f4xx.o
                0x0000000008002444                Reset_Handler
 .text.Default_Handler
                0x0000000008002488        0x2 startup_stm32f4xx.o
                0x0000000008002488                OTG_FS_WKUP_IRQHandler
                0x0000000008002488                TIM8_TRG_COM_TIM14_IRQHandler
                0x0000000008002488                Default_Handler
                0x0000000008002488                EXTI1_IRQHandler
                0x0000000008002488                TIM5_IRQHandler
                0x0000000008002488                ADC_IRQHandler
                0x0000000008002488                EXTI4_IRQHandler
                0x0000000008002488                ETH_WKUP_IRQHandler
                0x0000000008002488                DMA1_Stream7_IRQHandler
                0x0000000008002488                CAN1_RX0_IRQHandler
                0x0000000008002488                CRYP_IRQHandler
                0x0000000008002488                CAN1_TX_IRQHandler
                0x0000000008002488                I2C3_ER_IRQHandler
                0x0000000008002488                DMA2_Stream6_IRQHandler
                0x0000000008002488                TIM1_UP_TIM10_IRQHandler
                0x0000000008002488                OTG_HS_IRQHandler
                0x0000000008002488                DMA1_Stream5_IRQHandler
                0x0000000008002488                OTG_HS_EP1_IN_IRQHandler
                0x0000000008002488                UART4_IRQHandler
                0x0000000008002488                USART1_IRQHandler
                0x0000000008002488                TIM8_UP_TIM13_IRQHandler
                0x0000000008002488                EXTI9_5_IRQHandler
                0x0000000008002488                I2C3_EV_IRQHandler
                0x0000000008002488                DMA2_Stream3_IRQHandler
                0x0000000008002488                TIM1_BRK_TIM9_IRQHandler
                0x0000000008002488                FLASH_IRQHandler
                0x0000000008002488                DMA2_Stream4_IRQHandler
                0x0000000008002488                SysTick_Handler
                0x0000000008002488                I2C2_EV_IRQHandler
                0x0000000008002488                RCC_IRQHandler
                0x0000000008002488                UART5_IRQHandler
                0x0000000008002488                RTC_WKUP_IRQHandler
                0x0000000008002488                I2C2_ER_IRQHandler
                0x0000000008002488                SPI2_IRQHandler
                0x0000000008002488                USART3_IRQHandler
                0x0000000008002488                FSMC_IRQHandler
                0x0000000008002488                OTG_HS_WKUP_IRQHandler
                0x0000000008002488                SPI1_IRQHandler
                0x0000000008002488                CAN2_RX1_IRQHandler
                0x0000000008002488                EXTI15_10_IRQHandler
                0x0000000008002488                HASH_RNG_IRQHandler
                0x0000000008002488                OTG_HS_EP1_OUT_IRQHandler
                0x0000000008002488                EXTI3_IRQHandler
                0x0000000008002488                I2C1_EV_IRQHandler
                0x0000000008002488                TIM6_DAC_IRQHandler
                0x0000000008002488                TAMP_STAMP_IRQHandler
                0x0000000008002488                EXTI0_IRQHandler
                0x0000000008002488                TIM4_IRQHandler
                0x0000000008002488                DMA1_Stream0_IRQHandler
                0x0000000008002488                USART6_IRQHandler
                0x0000000008002488                OTG_FS_IRQHandler
                0x0000000008002488                SPI3_IRQHandler
                0x0000000008002488                TIM1_TRG_COM_TIM11_IRQHandler
                0x0000000008002488                TIM2_IRQHandler
                0x0000000008002488                CAN2_RX0_IRQHandler
                0x0000000008002488                TIM7_IRQHandler
                0x0000000008002488                CAN2_TX_IRQHandler
                0x0000000008002488                DCMI_IRQHandler
                0x0000000008002488                CAN1_SCE_IRQHandler
                0x0000000008002488                ETH_IRQHandler
                0x0000000008002488                DMA2_Stream7_IRQHandler
                0x0000000008002488                I2C1_ER_IRQHandler
                0x0000000008002488                TIM3_IRQHandler
                0x0000000008002488                CAN1_RX1_IRQHandler
                0x0000000008002488                DMA1_Stream1_IRQHandler
                0x0000000008002488                RTC_Alarm_IRQHandler
                0x0000000008002488                TIM8_CC_IRQHandler
                0x0000000008002488                DMA1_Stream2_IRQHandler
                0x0000000008002488                SDIO_IRQHandler
                0x0000000008002488                USART2_IRQHandler
                0x0000000008002488                DMA2_Stream2_IRQHandler
                0x0000000008002488                FPU_IRQHandler
                0x0000000008002488                DMA1_Stream4_IRQHandler
                0x0000000008002488                PVD_IRQHandler
                0x0000000008002488                TIM1_CC_IRQHandler
                0x0000000008002488                WWDG_IRQHandler
                0x0000000008002488                DMA2_Stream5_IRQHandler
                0x0000000008002488                EXTI2_IRQHandler
                0x0000000008002488                CAN2_SCE_IRQHandler
                0x0000000008002488                TIM8_BRK_TIM12_IRQHandler
                0x0000000008002488                DMA2_Stream1_IRQHandler
                0x0000000008002488                DMA1_Stream6_IRQHandler
 *fill*         0x000000000800248a        0x2 
 .text.SystemInit
                0x000000000800248c      0x118 system_stm32f4xx.o
                0x000000000800248c                SystemInit
 .text.startup.main
                0x00000000080025a4       0xb8 main.o
                0x00000000080025a4                main
 .text.NMI_Handler
                0x000000000800265c        0x2 main.o
                0x000000000800265c                NMI_Handler
 .text.HardFault_Handler
                0x000000000800265e        0x2 main.o
                0x000000000800265e                HardFault_Handler
 .text.MemManage_Handler
                0x0000000008002660        0x2 main.o
                0x0000000008002660                MemManage_Handler
 .text.BusFault_Handler
                0x0000000008002662        0x2 main.o
                0x0000000008002662                BusFault_Handler
 .text.UsageFault_Handler
                0x0000000008002664        0x2 main.o
                0x0000000008002664                UsageFault_Handler
 .text.SVC_Handler
                0x0000000008002666        0x2 main.o
                0x0000000008002666                SVC_Handler
 .text.DebugMon_Handler
                0x0000000008002668        0x2 main.o
                0x0000000008002668                DebugMon_Handler
 .text.PendSV_Handler
                0x000000000800266a        0x2 main.o
                0x000000000800266a                PendSV_Handler
 .text.Codec_WriteRegister
                0x000000000800266c      0x104 codec.o
                0x000000000800266c                Codec_WriteRegister
 .text.Codec_Reset
                0x0000000008002770       0x24 codec.o
                0x0000000008002770                Codec_Reset
 .text.Codec_CtrlInterface_Init
                0x0000000008002794       0x4c codec.o
                0x0000000008002794                Codec_CtrlInterface_Init
 .text.Codec_AudioInterface_Init
                0x00000000080027e0       0x48 codec.o
                0x00000000080027e0                Codec_AudioInterface_Init
 .text.Codec_GPIO_Init
                0x0000000008002828       0x98 codec.o
                0x0000000008002828                Codec_GPIO_Init
 .text.Codec_Init
                0x00000000080028c0       0x1a codec.o
                0x00000000080028c0                Codec_Init
 *fill*         0x00000000080028da        0x2 
 .text.I2S_Block_Init
                0x00000000080028dc      0x224 i2s.o
                0x00000000080028dc                I2S_Block_Init
 .text.I2S_Block_PlayRec
                0x0000000008002b00       0x80 i2s.o
                0x0000000008002b00                I2S_Block_PlayRec
 .text.DMA1_Stream3_IRQHandler
                0x0000000008002b80       0x74 i2s.o
                0x0000000008002b80                DMA1_Stream3_IRQHandler
 .text.ADC1_Init
                0x0000000008002bf4      0x158 adc.o
                0x0000000008002bf4                ADC1_Init
 .text.DMA2_Stream0_IRQHandler
                0x0000000008002d4c       0x2c adc.o
                0x0000000008002d4c                DMA2_Stream0_IRQHandler
 .text.GPIO_Init
                0x0000000008002d78       0x9e stm32f4xx_gpio.o
                0x0000000008002d78                GPIO_Init
 .text.GPIO_PinAFConfig
                0x0000000008002e16       0x24 stm32f4xx_gpio.o
                0x0000000008002e16                GPIO_PinAFConfig
 *fill*         0x0000000008002e3a        0x2 
 .text.I2C_DeInit
                0x0000000008002e3c       0x60 stm32f4xx_i2c.o
                0x0000000008002e3c                I2C_DeInit
 .text.I2C_Init
                0x0000000008002e9c       0xc0 stm32f4xx_i2c.o
                0x0000000008002e9c                I2C_Init
 .text.I2C_Cmd  0x0000000008002f5c       0x12 stm32f4xx_i2c.o
                0x0000000008002f5c                I2C_Cmd
 .text.I2C_GenerateSTART
                0x0000000008002f6e       0x12 stm32f4xx_i2c.o
                0x0000000008002f6e                I2C_GenerateSTART
 .text.I2C_GenerateSTOP
                0x0000000008002f80       0x12 stm32f4xx_i2c.o
                0x0000000008002f80                I2C_GenerateSTOP
 .text.I2C_Send7bitAddress
                0x0000000008002f92       0x10 stm32f4xx_i2c.o
                0x0000000008002f92                I2C_Send7bitAddress
 .text.I2C_SendData
                0x0000000008002fa2        0x4 stm32f4xx_i2c.o
                0x0000000008002fa2                I2C_SendData
 .text.I2C_CheckEvent
                0x0000000008002fa6       0x16 stm32f4xx_i2c.o
                0x0000000008002fa6                I2C_CheckEvent
 .text.I2C_GetFlagStatus
                0x0000000008002fbc       0x34 stm32f4xx_i2c.o
                0x0000000008002fbc                I2C_GetFlagStatus
 .text.RCC_GetClocksFreq
                0x0000000008002ff0       0x9c stm32f4xx_rcc.o
                0x0000000008002ff0                RCC_GetClocksFreq
 .text.RCC_AHB1PeriphClockCmd
                0x000000000800308c       0x1c stm32f4xx_rcc.o
                0x000000000800308c                RCC_AHB1PeriphClockCmd
 .text.RCC_APB1PeriphClockCmd
                0x00000000080030a8       0x1c stm32f4xx_rcc.o
                0x00000000080030a8                RCC_APB1PeriphClockCmd
 .text.RCC_APB2PeriphClockCmd
                0x00000000080030c4       0x1c stm32f4xx_rcc.o
                0x00000000080030c4                RCC_APB2PeriphClockCmd
 .text.RCC_APB1PeriphResetCmd
                0x00000000080030e0       0x1c stm32f4xx_rcc.o
                0x00000000080030e0                RCC_APB1PeriphResetCmd
 .text.RCC_APB2PeriphResetCmd
                0x00000000080030fc       0x1c stm32f4xx_rcc.o
                0x00000000080030fc                RCC_APB2PeriphResetCmd
 .text.SPI_I2S_DeInit
                0x0000000008003118       0x64 stm32f4xx_spi.o
                0x0000000008003118                SPI_I2S_DeInit
 .text.I2S_Init
                0x000000000800317c       0xd8 stm32f4xx_spi.o
                0x000000000800317c                I2S_Init
 .text.I2S_Cmd  0x0000000008003254       0x12 stm32f4xx_spi.o
                0x0000000008003254                I2S_Cmd
 .text.I2S_FullDuplexConfig
                0x0000000008003266       0x4a stm32f4xx_spi.o
                0x0000000008003266                I2S_FullDuplexConfig
 .text.SPI_I2S_DMACmd
                0x00000000080032b0       0x14 stm32f4xx_spi.o
                0x00000000080032b0                SPI_I2S_DMACmd
 .text.DMA_DeInit
                0x00000000080032c4      0x164 stm32f4xx_dma.o
                0x00000000080032c4                DMA_DeInit
 .text.DMA_Init
                0x0000000008003428       0x54 stm32f4xx_dma.o
                0x0000000008003428                DMA_Init
 .text.DMA_Cmd  0x000000000800347c       0x12 stm32f4xx_dma.o
                0x000000000800347c                DMA_Cmd
 *fill*         0x000000000800348e        0x2 
 .text.DMA_GetFlagStatus
                0x0000000008003490       0x38 stm32f4xx_dma.o
                0x0000000008003490                DMA_GetFlagStatus
 .text.DMA_ClearFlag
                0x00000000080034c8       0x30 stm32f4xx_dma.o
                0x00000000080034c8                DMA_ClearFlag
 .text.DMA_ITConfig
                0x00000000080034f8       0x3e stm32f4xx_dma.o
                0x00000000080034f8                DMA_ITConfig
 .text.ADC_DeInit
                0x0000000008003536       0x1a stm32f4xx_adc.o
                0x0000000008003536                ADC_DeInit
 .text.ADC_Init
                0x0000000008003550       0x50 stm32f4xx_adc.o
                0x0000000008003550                ADC_Init
 .text.ADC_CommonInit
                0x00000000080035a0       0x28 stm32f4xx_adc.o
                0x00000000080035a0                ADC_CommonInit
 .text.ADC_Cmd  0x00000000080035c8       0x12 stm32f4xx_adc.o
                0x00000000080035c8                ADC_Cmd
 .text.ADC_RegularChannelConfig
                0x00000000080035da       0x8c stm32f4xx_adc.o
                0x00000000080035da                ADC_RegularChannelConfig
 .text.ADC_SoftwareStartConv
                0x0000000008003666        0xa stm32f4xx_adc.o
                0x0000000008003666                ADC_SoftwareStartConv
 .text.ADC_DMACmd
                0x0000000008003670       0x12 stm32f4xx_adc.o
                0x0000000008003670                ADC_DMACmd
 .text.ADC_DMARequestAfterLastTransferCmd
                0x0000000008003682       0x12 stm32f4xx_adc.o
                0x0000000008003682                ADC_DMARequestAfterLastTransferCmd
 .text.doadc    0x0000000008003694      0x100 audio.o
 .text.doadc_compost
                0x0000000008003794       0x34 audio.o
 .text.compost_get_sample
                0x00000000080037c8      0x1f4 audio.o
                0x00000000080037c8                compost_get_sample
 .text.compost_newsay_frozen
                0x00000000080039bc       0x10 audio.o
                0x00000000080039bc                compost_newsay_frozen
 .text.compost_newsay
                0x00000000080039cc       0x60 audio.o
                0x00000000080039cc                compost_newsay
 .text.I2S_RX_CallBack
                0x0000000008003a2c      0x390 audio.o
                0x0000000008003a2c                I2S_RX_CallBack
 .text.bitrev32
                0x0000000008003dbc       0x2e sp0256.o
 *fill*         0x0000000008003dea        0x2 
 .text.lpc12_update.constprop.2
                0x0000000008003dec      0x1bc sp0256.o
 .text.getb     0x0000000008003fa8       0xb4 sp0256.o
                0x0000000008003fa8                getb
 .text.micro    0x000000000800405c      0x3dc sp0256.o
                0x000000000800405c                micro
 .text.sp0256_newsay1219
                0x0000000008004438       0xac sp0256.o
                0x0000000008004438                sp0256_newsay1219
 .text.sp0256_get_sample1219
                0x00000000080044e4       0x40 sp0256.o
                0x00000000080044e4                sp0256_get_sample1219
 .text.sp0256_newsay
                0x0000000008004524       0x70 sp0256.o
                0x0000000008004524                sp0256_newsay
 .text.sp0256_get_sample
                0x0000000008004594       0x40 sp0256.o
                0x0000000008004594                sp0256_get_sample
 .text.sp0256_get_sample_sing
                0x00000000080045d4       0x40 sp0256.o
                0x00000000080045d4                sp0256_get_sample_sing
 .text.sp0256_newsayTTS
                0x0000000008004614       0x80 sp0256.o
                0x0000000008004614                sp0256_newsayTTS
 .text.sp0256_get_sampleTTS
                0x0000000008004694       0x40 sp0256.o
                0x0000000008004694                sp0256_get_sampleTTS
 .text.sp0256_retriggerTTS
                0x00000000080046d4       0x74 sp0256.o
                0x00000000080046d4                sp0256_retriggerTTS
 .text.sp0256_newsayvocabbankone
                0x0000000008004748       0xb4 sp0256.o
                0x0000000008004748                sp0256_newsayvocabbankone
 .text.sp0256_get_samplevocabbankone
                0x00000000080047fc       0x44 sp0256.o
                0x00000000080047fc                sp0256_get_samplevocabbankone
 .text.sp0256_newsayvocabbankonea
                0x0000000008004840        0x6 sp0256.o
                0x0000000008004840                sp0256_newsayvocabbankonea
 *fill*         0x0000000008004846        0x2 
 .text.sp0256_newsayvocabbanktwo
                0x0000000008004848       0xb4 sp0256.o
                0x0000000008004848                sp0256_newsayvocabbanktwo
 .text.sp0256_get_samplevocabbanktwo
                0x00000000080048fc       0x44 sp0256.o
                0x00000000080048fc                sp0256_get_samplevocabbanktwo
 .text.sp0256_newsayvocabbanktwoa
                0x0000000008004940        0x6 sp0256.o
                0x0000000008004940                sp0256_newsayvocabbanktwoa
 *fill*         0x0000000008004946        0x2 
 .text.sp0256_init
                0x0000000008004948       0xb8 sp0256.o
                0x0000000008004948                sp0256_init
 .text.simpleklatt_init
                0x0000000008004a00       0x48 simpleklatt.o
                0x0000000008004a00                simpleklatt_init
 .text.generate_exy_frame
                0x0000000008004a48       0x58 simpleklatt.o
                0x0000000008004a48                generate_exy_frame
 .text.simpleklatt_newsay
                0x0000000008004aa0       0x30 simpleklatt.o
                0x0000000008004aa0                simpleklatt_newsay
 .text.simpleklatt_get_sample
                0x0000000008004ad0       0x68 simpleklatt.o
                0x0000000008004ad0                simpleklatt_get_sample
 .text.resonator
                0x0000000008004b38       0x3a parwave.o
 *fill*         0x0000000008004b72        0x2 
 .text.sampled_source
                0x0000000008004b74       0x78 parwave.o
 .text.impulsive_source
                0x0000000008004bec       0x30 parwave.o
 .text.DBtoLIN  0x0000000008004c1c       0x2c parwave.o
 .text.gen_noise
                0x0000000008004c48       0x44 parwave.o
 .text.setabc   0x0000000008004c8c       0x94 parwave.o
 .text.pitch_synch_par_reset
                0x0000000008004d20      0x1b0 parwave.o
 .text.natural_source
                0x0000000008004ed0       0x58 parwave.o
 .text.single_single_parwave
                0x0000000008004f28      0x2b8 parwave.o
                0x0000000008004f28                single_single_parwave
 .text.simple_parwave_init
                0x00000000080051e0       0xec parwave.o
                0x00000000080051e0                simple_parwave_init
 .text.frame_init
                0x00000000080052cc      0x3ac parwave.o
                0x00000000080052cc                frame_init
 .text.Init     0x0000000008005678       0x70 sam.o
                0x0000000008005678                Init
 .text.CopyStress
                0x00000000080056e8       0x4c sam.o
                0x00000000080056e8                CopyStress
 .text.Insert   0x0000000008005734       0x50 sam.o
                0x0000000008005734                Insert
 .text.InsertBreath
                0x0000000008005784       0xb4 sam.o
                0x0000000008005784                InsertBreath
 .text.Parser1  0x0000000008005838      0x124 sam.o
                0x0000000008005838                Parser1
 .text.SetPhonemeLength
                0x000000000800595c       0x3c sam.o
                0x000000000800595c                SetPhonemeLength
 .text.Code41240
                0x0000000008005998       0xbc sam.o
                0x0000000008005998                Code41240
 .text.Parser2  0x0000000008005a54      0x238 sam.o
                0x0000000008005a54                Parser2
 .text.AdjustLengths
                0x0000000008005c8c      0x1c8 sam.o
                0x0000000008005c8c                AdjustLengths
 .text.sam_newsay_banks0.part.0
                0x0000000008005e54       0xd8 sam.o
 .text.sam_newsay_xy
                0x0000000008005f2c       0x98 sam.o
                0x0000000008005f2c                sam_newsay_xy
 .text.sam_get_sample_xy
                0x0000000008005fc4       0x5c sam.o
                0x0000000008005fc4                sam_get_sample_xy
 .text.sam_get_sample_xya
                0x0000000008006020       0x28 sam.o
                0x0000000008006020                sam_get_sample_xya
 .text.sam_get_sample_bend
                0x0000000008006048       0x5c sam.o
                0x0000000008006048                sam_get_sample_bend
 .text.sam_get_sample_benda
                0x00000000080060a4       0x28 sam.o
                0x00000000080060a4                sam_get_sample_benda
 .text.sam_newsay_param
                0x00000000080060cc       0x7c sam.o
                0x00000000080060cc                sam_newsay_param
 .text.sam_get_sample_param
                0x0000000008006148       0x5c sam.o
                0x0000000008006148                sam_get_sample_param
 .text.sam_get_sample_parama
                0x00000000080061a4       0x28 sam.o
                0x00000000080061a4                sam_get_sample_parama
 .text.sam_newsay_banks0
                0x00000000080061cc       0xc4 sam.o
                0x00000000080061cc                sam_newsay_banks0
 .text.sam_init
                0x0000000008006290       0x20 sam.o
                0x0000000008006290                sam_init
 .text.sam_get_sample_banks0
                0x00000000080062b0       0x5c sam.o
                0x00000000080062b0                sam_get_sample_banks0
 .text.sam_get_sample_banks0a
                0x000000000800630c       0x28 sam.o
                0x000000000800630c                sam_get_sample_banks0a
 .text.sam_get_sample_banks1
                0x0000000008006334       0x5c sam.o
                0x0000000008006334                sam_get_sample_banks1
 .text.sam_get_sample_banks1a
                0x0000000008006390       0x28 sam.o
                0x0000000008006390                sam_get_sample_banks1a
 .text.sam_newsay_TTS.part.1
                0x00000000080063b8       0xd8 sam.o
 .text.sam_newsay_phon
                0x0000000008006490       0xc4 sam.o
                0x0000000008006490                sam_newsay_phon
 .text.sam_get_sample_phon
                0x0000000008006554       0x98 sam.o
                0x0000000008006554                sam_get_sample_phon
 .text.sam_get_sample_phona
                0x00000000080065ec       0x28 sam.o
                0x00000000080065ec                sam_get_sample_phona
 .text.sam_get_sample_phons
                0x0000000008006614       0x98 sam.o
                0x0000000008006614                sam_get_sample_phons
 .text.sam_get_sample_phonsa
                0x00000000080066ac       0x28 sam.o
                0x00000000080066ac                sam_get_sample_phonsa
 .text.sam_newsay_phonsing
                0x00000000080066d4       0xc4 sam.o
                0x00000000080066d4                sam_newsay_phonsing
 .text.sam_get_sample_phonsing
                0x0000000008006798       0x98 sam.o
                0x0000000008006798                sam_get_sample_phonsing
 .text.sam_get_sample_phonsinga
                0x0000000008006830       0x28 sam.o
                0x0000000008006830                sam_get_sample_phonsinga
 .text.sam_newsay_TTS
                0x0000000008006858       0x9c sam.o
                0x0000000008006858                sam_newsay_TTS
 .text.sam_get_sample_TTS
                0x00000000080068f4       0x5c sam.o
                0x00000000080068f4                sam_get_sample_TTS
 .text.sam_get_sample_TTSa
                0x0000000008006950       0x28 sam.o
                0x0000000008006950                sam_get_sample_TTSa
 .text.sam_get_sample_TTSs
                0x0000000008006978       0x5c sam.o
                0x0000000008006978                sam_get_sample_TTSs
 .text.sam_get_sample_TTSsa
                0x00000000080069d4       0x28 sam.o
                0x00000000080069d4                sam_get_sample_TTSsa
 .text.Output   0x00000000080069fc       0x18 render.o
 .text.renderunvoicedsample.isra.1
                0x0000000008006a14       0xf0 render.o
 .text.rendervoicedsample.constprop.3
                0x0000000008006b04      0x1c4 render.o
 .text.Read     0x0000000008006cc8       0x50 render.o
                0x0000000008006cc8                Read
 .text.Write    0x0000000008006d18       0x4c render.o
                0x0000000008006d18                Write
 .text.sam_frame_rerun
                0x0000000008006d64      0x190 render.o
                0x0000000008006d64                sam_frame_rerun
 .text.rendersamsample
                0x0000000008006ef4      0x6bc render.o
                0x0000000008006ef4                rendersamsample
 .text.AddInflection
                0x00000000080075b0       0x74 render.o
                0x00000000080075b0                AddInflection
 .text.renderframe
                0x0000000008007624      0x558 render.o
                0x0000000008007624                renderframe
 .text.trans    0x0000000008007b7c       0x58 render.o
                0x0000000008007b7c                trans
 .text.SetMouthThroat
                0x0000000008007bd4       0xa4 render.o
                0x0000000008007bd4                SetMouthThroat
 .text.clip_analog
                0x0000000008007c78       0x1e tms5200x.o
 .text.matrix_multiply
                0x0000000008007c96       0x42 tms5200x.o
 .text.parse_frame_raw_5100.part.1
                0x0000000008007cd8       0x84 tms5200x.o
 .text.extract_bits
                0x0000000008007d5c       0x60 tms5200x.o
                0x0000000008007d5c                extract_bits
 .text.lattice_filter
                0x0000000008007dbc      0x194 tms5200x.o
                0x0000000008007dbc                lattice_filter
 .text.parse_frame
                0x0000000008007f50       0xb8 tms5200x.o
                0x0000000008007f50                parse_frame
 .text.parse_frame_bend_5200
                0x0000000008008008      0x304 tms5200x.o
                0x0000000008008008                parse_frame_bend_5200
 .text.parse_frame_raw_5100
                0x000000000800830c       0xb4 tms5200x.o
                0x000000000800830c                parse_frame_raw_5100
 .text.parse_frame_raw_5200
                0x00000000080083c0       0xb8 tms5200x.o
                0x00000000080083c0                parse_frame_raw_5200
 .text.process  0x0000000008008478      0x57c tms5200x.o
                0x0000000008008478                process
 .text.process_k_tabled5100
                0x00000000080089f4      0x3d8 tms5200x.o
                0x00000000080089f4                process_k_tabled5100
 .text.process_pitchk_tabled5100
                0x0000000008008dcc      0x434 tms5200x.o
                0x0000000008008dcc                process_pitchk_tabled5100
 .text.process_pitch_tabled5100
                0x0000000008009200      0x390 tms5200x.o
                0x0000000008009200                process_pitch_tabled5100
 .text.processbend5100
                0x0000000008009590      0x458 tms5200x.o
                0x0000000008009590                processbend5100
 .text.process5100raw
                0x00000000080099e8      0x338 tms5200x.o
                0x00000000080099e8                process5100raw
 .text.tms_init
                0x0000000008009d20       0x84 tms5200x.o
                0x0000000008009d20                tms_init
 .text.tms_newsay
                0x0000000008009da4       0xd0 tms5200x.o
                0x0000000008009da4                tms_newsay
 .text.tms_newsay_lowbit
                0x0000000008009e74       0xd0 tms5200x.o
                0x0000000008009e74                tms_newsay_lowbit
 .text.tms_newsay_allphon
                0x0000000008009f44       0x9c tms5200x.o
                0x0000000008009f44                tms_newsay_allphon
 .text.tms_newsay_TTS
                0x0000000008009fe0       0xa4 tms5200x.o
                0x0000000008009fe0                tms_newsay_TTS
 .text.tms_retriggerTTS
                0x000000000800a084       0x98 tms5200x.o
                0x000000000800a084                tms_retriggerTTS
 .text.tms_newsay_raw5100
                0x000000000800a11c       0x54 tms5200x.o
                0x000000000800a11c                tms_newsay_raw5100
 .text.tms_newsay_raw5200
                0x000000000800a170       0x50 tms5200x.o
                0x000000000800a170                tms_newsay_raw5200
 .text.tms_newsay_raw5220
                0x000000000800a1c0       0x34 tms5200x.o
                0x000000000800a1c0                tms_newsay_raw5220
 .text.tms_newsay_specific
                0x000000000800a1f4       0x9c tms5200x.o
                0x000000000800a1f4                tms_newsay_specific
 .text.tms_newsay_specifica
                0x000000000800a290        0x6 tms5200x.o
                0x000000000800a290                tms_newsay_specifica
 .text.tms_newsay_specificx
                0x000000000800a296        0x6 tms5200x.o
                0x000000000800a296                tms_newsay_specificx
 .text.tms_newsay_specific5100
                0x000000000800a29c        0x6 tms5200x.o
                0x000000000800a29c                tms_newsay_specific5100
 *fill*         0x000000000800a2a2        0x2 
 .text.tms_get_sample_allphon
                0x000000000800a2a4       0x30 tms5200x.o
                0x000000000800a2a4                tms_get_sample_allphon
 .text.tms_get_sample_allphon_sing
                0x000000000800a2d4       0x30 tms5200x.o
                0x000000000800a2d4                tms_get_sample_allphon_sing
 .text.tms_get_sample
                0x000000000800a304       0x30 tms5200x.o
                0x000000000800a304                tms_get_sample
 .text.tms_get_sample_sing
                0x000000000800a334       0x30 tms5200x.o
                0x000000000800a334                tms_get_sample_sing
 .text.tms_get_sample_lowbit
                0x000000000800a364       0x30 tms5200x.o
                0x000000000800a364                tms_get_sample_lowbit
 .text.tms_get_sample_TTS
                0x000000000800a394       0x30 tms5200x.o
                0x000000000800a394                tms_get_sample_TTS
 .text.tms_get_sample_bendlength
                0x000000000800a3c4       0x30 tms5200x.o
                0x000000000800a3c4                tms_get_sample_bendlength
 .text.tms_get_sample_raw5100
                0x000000000800a3f4       0x1c tms5200x.o
                0x000000000800a3f4                tms_get_sample_raw5100
 .text.tms_get_sample_raw5200
                0x000000000800a410       0x1c tms5200x.o
                0x000000000800a410                tms_get_sample_raw5200
 .text.tms_get_sample_raw5220
                0x000000000800a42c       0x1c tms5200x.o
                0x000000000800a42c                tms_get_sample_raw5220
 .text.tms_get_sample_bend5100
                0x000000000800a448       0x40 tms5200x.o
                0x000000000800a448                tms_get_sample_bend5100
 .text.tms_get_sample_bend5100w
                0x000000000800a488        0x6 tms5200x.o
                0x000000000800a488                tms_get_sample_bend5100w
 *fill*         0x000000000800a48e        0x2 
 .text.tms_get_sample_bend5200
                0x000000000800a490       0x40 tms5200x.o
                0x000000000800a490                tms_get_sample_bend5200
 .text.tms_get_sample_bend5200a
                0x000000000800a4d0        0x6 tms5200x.o
                0x000000000800a4d0                tms_get_sample_bend5200a
 .text.tms_get_sample_bend5200x
                0x000000000800a4d6        0x6 tms5200x.o
                0x000000000800a4d6                tms_get_sample_bend5200x
 .text.tms_get_sample_5100pitchtable
                0x000000000800a4dc       0x40 tms5200x.o
                0x000000000800a4dc                tms_get_sample_5100pitchtable
 .text.tms_get_sample_5100pitchtablew
                0x000000000800a51c        0x6 tms5200x.o
                0x000000000800a51c                tms_get_sample_5100pitchtablew
 *fill*         0x000000000800a522        0x2 
 .text.tms_get_sample_5200pitchtable
                0x000000000800a524       0x40 tms5200x.o
                0x000000000800a524                tms_get_sample_5200pitchtable
 .text.tms_get_sample_5200pitchtablea
                0x000000000800a564        0x6 tms5200x.o
                0x000000000800a564                tms_get_sample_5200pitchtablea
 .text.tms_get_sample_5200pitchtablex
                0x000000000800a56a        0x6 tms5200x.o
                0x000000000800a56a                tms_get_sample_5200pitchtablex
 .text.tms_get_sample_5100ktable
                0x000000000800a570       0x40 tms5200x.o
                0x000000000800a570                tms_get_sample_5100ktable
 .text.tms_get_sample_5100ktablew
                0x000000000800a5b0        0x6 tms5200x.o
                0x000000000800a5b0                tms_get_sample_5100ktablew
 *fill*         0x000000000800a5b6        0x2 
 .text.tms_get_sample_5200ktable
                0x000000000800a5b8       0x40 tms5200x.o
                0x000000000800a5b8                tms_get_sample_5200ktable
 .text.tms_get_sample_5200ktablea
                0x000000000800a5f8        0x6 tms5200x.o
                0x000000000800a5f8                tms_get_sample_5200ktablea
 *fill*         0x000000000800a5fe        0x2 
 .text.tms_get_sample_5100kandpitchtable
                0x000000000800a600       0x40 tms5200x.o
                0x000000000800a600                tms_get_sample_5100kandpitchtable
 .text.tms_get_sample_5100kandpitchtablew
                0x000000000800a640        0x6 tms5200x.o
                0x000000000800a640                tms_get_sample_5100kandpitchtablew
 *fill*         0x000000000800a646        0x2 
 .text.tms_get_sample_5200kandpitchtable
                0x000000000800a648       0x40 tms5200x.o
                0x000000000800a648                tms_get_sample_5200kandpitchtable
 .text.tms_get_sample_5200kandpitchtablea
                0x000000000800a688        0x6 tms5200x.o
                0x000000000800a688                tms_get_sample_5200kandpitchtablea
 .text.tms_get_sample_5200kandpitchtablex
                0x000000000800a68e        0x6 tms5200x.o
                0x000000000800a68e                tms_get_sample_5200kandpitchtablex
 .text.digitalker_write
                0x000000000800a694       0x44 digitalker.o
                0x000000000800a694                digitalker_write
 .text.digitalker_pitch_next
                0x000000000800a6d8       0x1c digitalker.o
                0x000000000800a6d8                digitalker_pitch_next
 .text.digitalker_start_command
                0x000000000800a6f4       0x58 digitalker.o
                0x000000000800a6f4                digitalker_start_command
 .text.digitalker_step_mode_0
                0x000000000800a74c      0x174 digitalker.o
                0x000000000800a74c                digitalker_step_mode_0
 .text.digitalker_step_mode_0p
                0x000000000800a8c0      0x1c4 digitalker.o
                0x000000000800a8c0                digitalker_step_mode_0p
 .text.digitalker_step_mode_1
                0x000000000800aa84       0x1c digitalker.o
                0x000000000800aa84                digitalker_step_mode_1
 .text.digitalker_step_mode_2
                0x000000000800aaa0      0x220 digitalker.o
                0x000000000800aaa0                digitalker_step_mode_2
 .text.digitalker_step_mode_2p
                0x000000000800acc0      0x268 digitalker.o
                0x000000000800acc0                digitalker_step_mode_2p
 .text.digitalker_step_mode_3
                0x000000000800af28       0xe8 digitalker.o
                0x000000000800af28                digitalker_step_mode_3
 .text.digitalker_step_mode_3p
                0x000000000800b010      0x138 digitalker.o
                0x000000000800b010                digitalker_step_mode_3p
 .text.digitalker_step
                0x000000000800b148      0x1b4 digitalker.o
                0x000000000800b148                digitalker_step
 .text.digitalker_step_bendp
                0x000000000800b2fc      0x130 digitalker.o
                0x000000000800b2fc                digitalker_step_bendp
 .text.digitalk_init
                0x000000000800b42c       0x28 digitalker.o
                0x000000000800b42c                digitalk_init
 .text.digitalk_newsay
                0x000000000800b454       0x54 digitalker.o
                0x000000000800b454                digitalk_newsay
 .text.digitalk_get_sample_sing
                0x000000000800b4a8       0xdc digitalker.o
                0x000000000800b4a8                digitalk_get_sample_sing
 .text.digitalk_get_sample
                0x000000000800b584       0xe4 digitalker.o
                0x000000000800b584                digitalk_get_sample
 .text.digitalk_get_sample_bendpitchvals
                0x000000000800b668       0x8c digitalker.o
                0x000000000800b668                digitalk_get_sample_bendpitchvals
 .text.init_nvp
                0x000000000800b6f4      0x194 nvp.o
                0x000000000800b6f4                init_nvp
 .text.nvp_init
                0x000000000800b888       0x20 nvp.o
                0x000000000800b888                nvp_init
 .text.doadc    0x000000000800b8a8      0x100 samplerate.o
 .text.samplerate_init
                0x000000000800b9a8        0x2 samplerate.o
                0x000000000800b9a8                samplerate_init
 *fill*         0x000000000800b9aa        0x2 
 .text.samplerate_simple
                0x000000000800b9ac       0xf0 samplerate.o
                0x000000000800b9ac                samplerate_simple
 .text.samplerate_simple_exy
                0x000000000800ba9c      0x15c samplerate.o
                0x000000000800ba9c                samplerate_simple_exy
 .text.samplerate_simple_exy_trigger
                0x000000000800bbf8      0x14c samplerate.o
                0x000000000800bbf8                samplerate_simple_exy_trigger
 .text.bits_to_caps
                0x000000000800bd44       0x28 newvotrax.o
 .text.shift_hist
                0x000000000800bd6c       0x18 newvotrax.o
 .text.apply_filter
                0x000000000800bd84       0x48 newvotrax.o
 .text.writer   0x000000000800bdcc       0x18 newvotrax.o
                0x000000000800bdcc                writer
 .text.inflection_w
                0x000000000800bde4       0x14 newvotrax.o
                0x000000000800bde4                inflection_w
 .text.device_start
                0x000000000800bdf8       0x2c newvotrax.o
                0x000000000800bdf8                device_start
 .text.phone_commit
                0x000000000800be24      0x200 newvotrax.o
                0x000000000800be24                phone_commit
 .text.analog_calc
                0x000000000800c024      0x268 newvotrax.o
                0x000000000800c024                analog_calc
 .text.build_standard_filter
                0x000000000800c28c      0x108 newvotrax.o
                0x000000000800c28c                build_standard_filter
 .text.build_lowpass_filter
                0x000000000800c394       0x74 newvotrax.o
                0x000000000800c394                build_lowpass_filter
 .text.build_noise_shaper_filter
                0x000000000800c408       0xc0 newvotrax.o
                0x000000000800c408                build_noise_shaper_filter
 .text.filters_commit
                0x000000000800c4c8      0x2bc newvotrax.o
                0x000000000800c4c8                filters_commit
 .text.device_reset
                0x000000000800c784      0x184 newvotrax.o
                0x000000000800c784                device_reset
 .text.chip_update_bend
                0x000000000800c908      0x3ac newvotrax.o
                0x000000000800c908                chip_update_bend
 .text.chip_update_raw
                0x000000000800ccb4      0x1a8 newvotrax.o
                0x000000000800ccb4                chip_update_raw
 .text.chip_update
                0x000000000800ce5c      0x264 newvotrax.o
                0x000000000800ce5c                chip_update
 .text.chip_updateTTS
                0x000000000800d0c0      0x248 newvotrax.o
                0x000000000800d0c0                chip_updateTTS
 .text.votrax_init
                0x000000000800d308       0x18 newvotrax.o
                0x000000000800d308                votrax_init
 .text.votrax_newsay
                0x000000000800d320       0xec newvotrax.o
                0x000000000800d320                votrax_newsay
 .text.votrax_newsay_sing
                0x000000000800d40c       0xbc newvotrax.o
                0x000000000800d40c                votrax_newsay_sing
 .text.votrax_get_sample
                0x000000000800d4c8       0x3c newvotrax.o
                0x000000000800d4c8                votrax_get_sample
 .text.votrax_get_sample_sing
                0x000000000800d504       0x3c newvotrax.o
                0x000000000800d504                votrax_get_sample_sing
 .text.votrax_get_sample_rawparam
                0x000000000800d540       0x28 newvotrax.o
                0x000000000800d540                votrax_get_sample_rawparam
 .text.votrax_rawparam_newsay
                0x000000000800d568       0x24 newvotrax.o
                0x000000000800d568                votrax_rawparam_newsay
 .text.votrax_newsay_bend
                0x000000000800d58c      0x128 newvotrax.o
                0x000000000800d58c                votrax_newsay_bend
 .text.votrax_newsay_bendr
                0x000000000800d6b4        0x6 newvotrax.o
                0x000000000800d6b4                votrax_newsay_bendr
 *fill*         0x000000000800d6ba        0x2 
 .text.votrax_get_sample_bend
                0x000000000800d6bc       0x40 newvotrax.o
                0x000000000800d6bc                votrax_get_sample_bend
 .text.votrax_newsaygorf
                0x000000000800d6fc      0x130 newvotrax.o
                0x000000000800d6fc                votrax_newsaygorf
 .text.votrax_newsaygorfr
                0x000000000800d82c        0x6 newvotrax.o
                0x000000000800d82c                votrax_newsaygorfr
 *fill*         0x000000000800d832        0x2 
 .text.votrax_newsaywow
                0x000000000800d834      0x130 newvotrax.o
                0x000000000800d834                votrax_newsaywow
 .text.votrax_newsaywowr
                0x000000000800d964        0x6 newvotrax.o
                0x000000000800d964                votrax_newsaywowr
 *fill*         0x000000000800d96a        0x2 
 .text.votrax_newsaywow_bendfilter
                0x000000000800d96c       0xfc newvotrax.o
                0x000000000800d96c                votrax_newsaywow_bendfilter
 .text.votrax_newsaywow_bendfilterr
                0x000000000800da68        0x6 newvotrax.o
                0x000000000800da68                votrax_newsaywow_bendfilterr
 *fill*         0x000000000800da6e        0x2 
 .text.votrax_get_samplegorf
                0x000000000800da70       0x40 newvotrax.o
                0x000000000800da70                votrax_get_samplegorf
 .text.votrax_get_samplewow_bendfilter
                0x000000000800dab0       0x40 newvotrax.o
                0x000000000800dab0                votrax_get_samplewow_bendfilter
 .text.votrax_get_samplewow
                0x000000000800daf0       0x40 newvotrax.o
                0x000000000800daf0                votrax_get_samplewow
 .text.votrax_newsayTTS
                0x000000000800db30       0x78 newvotrax.o
                0x000000000800db30                votrax_newsayTTS
 .text.votrax_retriggerTTS
                0x000000000800dba8       0x84 newvotrax.o
                0x000000000800dba8                votrax_retriggerTTS
 .text.votrax_get_sampleTTS
                0x000000000800dc2c       0x3c newvotrax.o
                0x000000000800dc2c                votrax_get_sampleTTS
 .text.bitrev32
                0x000000000800dc68       0x2e sp0256bend.o
 *fill*         0x000000000800dc96        0x2 
 .text.getb     0x000000000800dc98       0xb4 sp0256bend.o
 .text.sp0256_initbend
                0x000000000800dd4c       0x84 sp0256bend.o
                0x000000000800dd4c                sp0256_initbend
 .text.sp0256_newsaybend
                0x000000000800ddd0       0xa8 sp0256bend.o
                0x000000000800ddd0                sp0256_newsaybend
 .text.sp0256_get_samplebend
                0x000000000800de78      0x57c sp0256bend.o
                0x000000000800de78                sp0256_get_samplebend
 .text.makeupper
                0x000000000800e3f4        0xc ./english2phoneme/parse.o
                0x000000000800e3f4                makeupper
 .text.new_char
                0x000000000800e400       0xec ./english2phoneme/parse.o
                0x000000000800e400                new_char
 .text.have_special
                0x000000000800e4ec       0x24 ./english2phoneme/parse.o
                0x000000000800e4ec                have_special
 .text.have_number
                0x000000000800e510      0x118 ./english2phoneme/parse.o
                0x000000000800e510                have_number
 .text.abbrev   0x000000000800e628       0x70 ./english2phoneme/parse.o
                0x000000000800e628                abbrev
 .text.have_letter
                0x000000000800e698       0xbc ./english2phoneme/parse.o
                0x000000000800e698                have_letter
 .text.xlate_file
                0x000000000800e754       0x58 ./english2phoneme/parse.o
                0x000000000800e754                xlate_file
 .text.text2speechfor256
                0x000000000800e7ac       0x84 ./english2phoneme/parse.o
                0x000000000800e7ac                text2speechfor256
 .text.text2speechforvotrax
                0x000000000800e830       0x90 ./english2phoneme/parse.o
                0x000000000800e830                text2speechforvotrax
 .text.text2speechforSAM
                0x000000000800e8c0       0x64 ./english2phoneme/parse.o
                0x000000000800e8c0                text2speechforSAM
 .text.text2speechforTMS
                0x000000000800e924       0x64 ./english2phoneme/parse.o
                0x000000000800e924                text2speechforTMS
 .text.say_cardinal
                0x000000000800e988      0x118 ./english2phoneme/saynum.o
                0x000000000800e988                say_cardinal
 .text.say_ordinal
                0x000000000800eaa0      0x120 ./english2phoneme/saynum.o
                0x000000000800eaa0                say_ordinal
 .text.isvowel  0x000000000800ebc0       0x1c ./english2phoneme/phoneme.o
                0x000000000800ebc0                isvowel
 .text.isconsonant
                0x000000000800ebdc       0x1e ./english2phoneme/phoneme.o
                0x000000000800ebdc                isconsonant
 *fill*         0x000000000800ebfa        0x2 
 .text.outnum   0x000000000800ebfc       0x24 ./english2phoneme/phoneme.o
                0x000000000800ebfc                outnum
 .text.leftmatch
                0x000000000800ec20       0xcc ./english2phoneme/phoneme.o
                0x000000000800ec20                leftmatch
 .text.rightmatch
                0x000000000800ecec      0x10c ./english2phoneme/phoneme.o
                0x000000000800ecec                rightmatch
 .text.find_rule
                0x000000000800edf8       0x5a ./english2phoneme/phoneme.o
                0x000000000800edf8                find_rule
 *fill*         0x000000000800ee52        0x2 
 .text.xlate_word
                0x000000000800ee54       0x30 ./english2phoneme/phoneme.o
                0x000000000800ee54                xlate_word
 .text.say_ascii
                0x000000000800ee84       0x14 ./english2phoneme/spellwor.o
                0x000000000800ee84                say_ascii
 .text.spell_word
                0x000000000800ee98       0x28 ./english2phoneme/spellwor.o
                0x000000000800ee98                spell_word
 .text.set_trans.isra.0
                0x000000000800eec0       0x80 rsynth_2005/holmes.o
 .text.linear   0x000000000800ef40       0x2c rsynth_2005/holmes.o
                0x000000000800ef40                linear
 .text.interpolate
                0x000000000800ef6c       0xba rsynth_2005/holmes.o
                0x000000000800ef6c                interpolate
 *fill*         0x000000000800f026        0x2 
 .text.rsynth_newsay_single
                0x000000000800f028       0xe8 rsynth_2005/holmes.o
                0x000000000800f028                rsynth_newsay_single
 .text.rsynth_newsay_singlex
                0x000000000800f110        0x6 rsynth_2005/holmes.o
                0x000000000800f110                rsynth_newsay_singlex
 *fill*         0x000000000800f116        0x2 
 .text.rsynth_newsay
                0x000000000800f118       0xe8 rsynth_2005/holmes.o
                0x000000000800f118                rsynth_newsay
 .text.rsynth_newsay_elm
                0x000000000800f200       0x84 rsynth_2005/holmes.o
                0x000000000800f200                rsynth_newsay_elm
 .text.rsynth_get_sample
                0x000000000800f284      0x33c rsynth_2005/holmes.o
                0x000000000800f284                rsynth_get_sample
 .text.rsynth_get_sample_sing
                0x000000000800f5c0      0x2b4 rsynth_2005/holmes.o
                0x000000000800f5c0                rsynth_get_sample_sing
 .text.rsynth_get_sample_single
                0x000000000800f874      0x250 rsynth_2005/holmes.o
                0x000000000800f874                rsynth_get_sample_single
 .text.rsynth_get_sample_elm
                0x000000000800fac4      0x2a4 rsynth_2005/holmes.o
                0x000000000800fac4                rsynth_get_sample_elm
 .text.rsynth_speaker
                0x000000000800fd68       0x74 rsynth_2005/elements.o
                0x000000000800fd68                rsynth_speaker
 .text.resonator.isra.0
                0x000000000800fddc       0x3a rsynth_2005/opsynth.o
 *fill*         0x000000000800fe16        0x2 
 .text.DBtoLIN  0x000000000800fe18       0x48 rsynth_2005/opsynth.o
 .text.set_pole_fbw.isra.3
                0x000000000800fe60       0xc8 rsynth_2005/opsynth.o
 .text.gen_noise
                0x000000000800ff28       0x38 rsynth_2005/opsynth.o
                0x000000000800ff28                gen_noise
 .text.rsynth_filter
                0x000000000800ff60       0xf4 rsynth_2005/opsynth.o
                0x000000000800ff60                rsynth_filter
 .text.rsynth_frame_single
                0x0000000008010054      0x4fc rsynth_2005/opsynth.o
                0x0000000008010054                rsynth_frame_single
 .text.rsynth_init
                0x0000000008010550       0x7c rsynth_2005/opsynth.o
                0x0000000008010550                rsynth_init
 .text.linear   0x00000000080105cc       0x2c ./rsynth-2.0-port/holmes.o
 .text.set_trans.isra.0
                0x00000000080105f8       0x74 ./rsynth-2.0-port/holmes.o
 .text.interpolate.isra.1
                0x000000000801066c       0xba ./rsynth-2.0-port/holmes.o
 *fill*         0x0000000008010726        0x2 
 .text.klatt_newsay_single
                0x0000000008010728      0x15c ./rsynth-2.0-port/holmes.o
                0x0000000008010728                klatt_newsay_single
 .text.klatt_get_sample_single
                0x0000000008010884      0x570 ./rsynth-2.0-port/holmes.o
                0x0000000008010884                klatt_get_sample_single
 .text.klatt_get_sample_single_sing
                0x0000000008010df4      0x53c ./rsynth-2.0-port/holmes.o
                0x0000000008010df4                klatt_get_sample_single_sing
 .text.klatt_newsay
                0x0000000008011330      0x110 ./rsynth-2.0-port/holmes.o
                0x0000000008011330                klatt_newsay
 .text.klatt_get_sample
                0x0000000008011440      0x64c ./rsynth-2.0-port/holmes.o
                0x0000000008011440                klatt_get_sample
 .text.klatt_newsay_vocab
                0x0000000008011a8c      0x160 ./rsynth-2.0-port/holmes.o
                0x0000000008011a8c                klatt_newsay_vocab
 .text.klatt_get_sample_vocab
                0x0000000008011bec      0x55c ./rsynth-2.0-port/holmes.o
                0x0000000008011bec                klatt_get_sample_vocab
 .text.klatt_get_sample_vocab_sing
                0x0000000008012148      0x534 ./rsynth-2.0-port/holmes.o
                0x0000000008012148                klatt_get_sample_vocab_sing
 .text.resonator
                0x000000000801267c       0x3a ./rsynth-2.0-port/nsynth.o
 *fill*         0x00000000080126b6        0x2 
 .text.setabc   0x00000000080126b8       0x78 ./rsynth-2.0-port/nsynth.o
 .text.natural_source.part.0
                0x0000000008012730       0x3c ./rsynth-2.0-port/nsynth.o
 .text.DBtoLIN.isra.1
                0x000000000801276c       0x28 ./rsynth-2.0-port/nsynth.o
 .text.pitch_synch_par_reset
                0x0000000008012794      0x1b4 ./rsynth-2.0-port/nsynth.o
 .text.initparwave
                0x0000000008012948      0x3ec ./rsynth-2.0-port/nsynth.o
                0x0000000008012948                initparwave
 .text.parwavesinglesample
                0x0000000008012d34      0x2f8 ./rsynth-2.0-port/nsynth.o
                0x0000000008012d34                parwavesinglesample
 .text.parwave_init
                0x000000000801302c      0x140 ./rsynth-2.0-port/nsynth.o
                0x000000000801302c                parwave_init
 .text.klatt_init
                0x000000000801316c       0x94 ./rsynth-2.0-port/def_pars.o
                0x000000000801316c                klatt_init
 .text.startup  0x0000000008013200       0x14 /usr/lib/gcc/arm-none-eabi/8.3.1/../../../arm-none-eabi/lib/thumb/v7e-m+fp/hard/libc.a(lib_a-__call_atexit.o)
 *(.rodata)
 .rodata        0x0000000008013214       0x9c nvp.o
 .rodata        0x00000000080132b0       0x44 newvotrax.o
 .rodata        0x00000000080132f4       0x18 /usr/lib/gcc/arm-none-eabi/8.3.1/../../../arm-none-eabi/lib/thumb/v7e-m+fp/hard/libm.a(lib_a-ef_exp.o)
 .rodata        0x000000000801330c      0x398 /usr/lib/gcc/arm-none-eabi/8.3.1/../../../arm-none-eabi/lib/thumb/v7e-m+fp/hard/libm.a(lib_a-ef_rem_pio2.o)
 .rodata        0x00000000080136a4       0x38 /usr/lib/gcc/arm-none-eabi/8.3.1/../../../arm-none-eabi/lib/thumb/v7e-m+fp/hard/libm.a(lib_a-kf_rem_pio2.o)
 .rodata        0x00000000080136dc        0x8 /usr/lib/gcc/arm-none-eabi/8.3.1/../../../arm-none-eabi/lib/thumb/v7e-m+fp/hard/libm.a(lib_a-sf_rint.o)
 .rodata        0x00000000080136e4      0x101 /usr/lib/gcc/arm-none-eabi/8.3.1/../../../arm-none-eabi/lib/thumb/v7e-m+fp/hard/libc.a(lib_a-ctype_.o)
                0x00000000080136e4                _ctype_
 *fill*         0x00000000080137e5        0x3 
 .rodata        0x00000000080137e8        0x4 /usr/lib/gcc/arm-none-eabi/8.3.1/../../../arm-none-eabi/lib/thumb/v7e-m+fp/hard/libc.a(lib_a-impure.o)
                0x00000000080137e8                _global_impure_ptr
 *(.rodata*)
 .rodata.w8731_init_data
                0x00000000080137ec       0x14 codec.o
                0x00000000080137ec                w8731_init_data
 .rodata.composter
                0x0000000008013800        0xf audio.o
 .rodata.compostfrer
                0x000000000801380f        0xf audio.o
 .rodata.digitalker
                0x000000000801381e        0xf audio.o
 .rodata.digitalker_bendpitchvals
                0x000000000801382d        0xf audio.o
 .rodata.digitalker_sing
                0x000000000801383c        0xf audio.o
 .rodata.klatter
                0x000000000801384b        0xf audio.o
 .rodata.klattsingle
                0x000000000801385a        0xf audio.o
 .rodata.klattsinglesing
                0x0000000008013869        0xf audio.o
 .rodata.klattvocab
                0x0000000008013878        0xf audio.o
 .rodata.klattvocabsing
                0x0000000008013887        0xf audio.o
 .rodata.rsynthelm
                0x0000000008013896        0xf audio.o
 .rodata.rsynthsingle
                0x00000000080138a5        0xf audio.o
 .rodata.rsynthy
                0x00000000080138b4        0xf audio.o
 .rodata.rsynthysing
                0x00000000080138c3        0xf audio.o
 .rodata.samTTSer
                0x00000000080138d2        0xf audio.o
 .rodata.samTTSser
                0x00000000080138e1        0xf audio.o
 .rodata.sambanks0er
                0x00000000080138f0        0xf audio.o
 .rodata.sambanks1er
                0x00000000080138ff        0xf audio.o
 .rodata.sambender
                0x000000000801390e        0xf audio.o
 .rodata.samparamer
                0x000000000801391d        0xf audio.o
 .rodata.samphoner
                0x000000000801392c        0xf audio.o
 .rodata.samphonser
                0x000000000801393b        0xf audio.o
 .rodata.samphonsinger
                0x000000000801394a        0xf audio.o
 .rodata.samxyer
                0x0000000008013959        0xf audio.o
 .rodata.simpleklatter
                0x0000000008013968        0xf audio.o
 .rodata.sp02561219er
                0x0000000008013977        0xf audio.o
 .rodata.sp0256TTSer
                0x0000000008013986        0xf audio.o
 .rodata.sp0256bender
                0x0000000008013995        0xf audio.o
 .rodata.sp0256er
                0x00000000080139a4        0xf audio.o
 .rodata.sp0256singer
                0x00000000080139b3        0xf audio.o
 .rodata.sp0256vocaboneer
                0x00000000080139c2        0xf audio.o
 .rodata.sp0256vocabtwoer
                0x00000000080139d1        0xf audio.o
 .rodata.tms5100kandpitchtablebender
                0x00000000080139e0        0xf audio.o
 .rodata.tms5100ktablebender
                0x00000000080139ef        0xf audio.o
 .rodata.tms5100pitchtablebender
                0x00000000080139fe        0xf audio.o
 .rodata.tms5200kandpitchtablebender
                0x0000000008013a0d        0xf audio.o
 .rodata.tms5200kandpitchtablebenderx
                0x0000000008013a1c        0xf audio.o
 .rodata.tms5200ktablebender
                0x0000000008013a2b        0xf audio.o
 .rodata.tms5200pitchtablebender
                0x0000000008013a3a        0xf audio.o
 .rodata.tms5200pitchtablebenderx
                0x0000000008013a49        0xf audio.o
 .rodata.tmsbend5100er
                0x0000000008013a58        0xf audio.o
 .rodata.tmsbend5200er
                0x0000000008013a67        0xf audio.o
 .rodata.tmsbend5200erx
                0x0000000008013a76        0xf audio.o
 .rodata.tmsbendlengther
                0x0000000008013a85        0xf audio.o
 .rodata.tmser  0x0000000008013a94        0xf audio.o
 .rodata.tmslowbiter
                0x0000000008013aa3        0xf audio.o
 .rodata.tmsphoner
                0x0000000008013ab2        0xf audio.o
 .rodata.tmsphonsinger
                0x0000000008013ac1        0xf audio.o
 .rodata.tmsraw5100er
                0x0000000008013ad0        0xf audio.o
 .rodata.tmsraw5200er
                0x0000000008013adf        0xf audio.o
 .rodata.tmsraw5220er
                0x0000000008013aee        0xf audio.o
 .rodata.tmssinger
                0x0000000008013afd        0xf audio.o
 .rodata.tmsttser
                0x0000000008013b0c        0xf audio.o
 .rodata.votraxTTSer
                0x0000000008013b1b        0xf audio.o
 .rodata.votraxbender
                0x0000000008013b2a        0xf audio.o
 .rodata.votraxer
                0x0000000008013b39        0xf audio.o
 .rodata.votraxgorfer
                0x0000000008013b48        0xf audio.o
 .rodata.votraxparamer
                0x0000000008013b57        0xf audio.o
 .rodata.votraxsinger
                0x0000000008013b66        0xf audio.o
 .rodata.votraxwower
                0x0000000008013b75        0xf audio.o
 .rodata.votraxwowfilterbender
                0x0000000008013b84        0xf audio.o
 *fill*         0x0000000008013b93        0x1 
 .rodata.wormlist
                0x0000000008013b94      0x100 audio.o
 .rodata.stage_map
                0x0000000008013c94        0x6 sp0256.o
 .rodata.natural_samples
                0x0000000008013c9a       0xc8 simpleklatt.o
 .rodata.B0.11224
                0x0000000008013d62      0x1c0 parwave.o
 *fill*         0x0000000008013f22        0x2 
 .rodata.amptable.11248
                0x0000000008013f24      0x160 parwave.o
 .rodata.doublet.11210
                0x0000000008014084        0xc parwave.o
 .rodata.phoneme_list
                0x0000000008014090       0xe0 sam.o
 .rodata.sam_newsay_phon.str1.1
                0x0000000008014170        0x0 sam.o
                                          0x3 (size before relaxing)
 .rodata.str1.1
                0x0000000008014170     0x38d3 sam.o
                                       0x3b62 (size before relaxing)
 .rodata.timetable
                0x0000000008017a43       0x19 render.o
 .rodata.T0280B_0281A_coeff
                0x0000000008017a5c      0xba8 tms5200x.o
 .rodata.T0280F_2801A_coeff
                0x0000000008018604      0xba8 tms5200x.o
 .rodata.T0285_2501E_coeff
                0x00000000080191ac      0xba8 tms5200x.o
 .rodata.koffset
                0x0000000008019d54        0xa tms5200x.o
                0x0000000008019d54                koffset
 .rodata.reload_table
                0x0000000008019d5e        0x4 tms5200x.o
 .rodata.tms5220_coeff
                0x0000000008019d62      0xba8 tms5200x.o
 .rodata.vocab_2303
                0x000000000801a90a        0xe tms5200x.o
                0x000000000801a90a                vocab_2303
 .rodata.vocab_2350_1
                0x000000000801a918        0xe tms5200x.o
                0x000000000801a918                vocab_2350_1
 .rodata.vocab_2350_2
                0x000000000801a926        0xe tms5200x.o
                0x000000000801a926                vocab_2350_2
 .rodata.vocab_2352_1
                0x000000000801a934        0xe tms5200x.o
                0x000000000801a934                vocab_2352_1
 .rodata.vocab_2352_2
                0x000000000801a942        0xe tms5200x.o
                0x000000000801a942                vocab_2352_2
 .rodata.vocab_D000_1
                0x000000000801a950        0xe tms5200x.o
                0x000000000801a950                vocab_D000_1
 .rodata.vocab_D000_2
                0x000000000801a95e        0xe tms5200x.o
                0x000000000801a95e                vocab_D000_2
 .rodata.vocab_D001_1
                0x000000000801a96c        0xe tms5200x.o
                0x000000000801a96c                vocab_D001_1
 .rodata.vocab_D001_2
                0x000000000801a97a        0xe tms5200x.o
                0x000000000801a97a                vocab_D001_2
 .rodata.vocab_D002_1
                0x000000000801a988        0xe tms5200x.o
                0x000000000801a988                vocab_D002_1
 .rodata.vocab_D002_2
                0x000000000801a996        0xe tms5200x.o
                0x000000000801a996                vocab_D002_2
 .rodata.vocab_D003
                0x000000000801a9a4        0xe tms5200x.o
                0x000000000801a9a4                vocab_D003
 .rodata.vocab_D004_1
                0x000000000801a9b2        0xe tms5200x.o
                0x000000000801a9b2                vocab_D004_1
 .rodata.vocab_D004_2
                0x000000000801a9c0        0xe tms5200x.o
                0x000000000801a9c0                vocab_D004_2
 .rodata.vocab_D005_1
                0x000000000801a9ce        0xe tms5200x.o
                0x000000000801a9ce                vocab_D005_1
 .rodata.vocab_D005_2
                0x000000000801a9dc        0xe tms5200x.o
                0x000000000801a9dc                vocab_D005_2
 .rodata.vocab_D006_1
                0x000000000801a9ea        0xe tms5200x.o
                0x000000000801a9ea                vocab_D006_1
 .rodata.vocab_D006_2
                0x000000000801a9f8        0xe tms5200x.o
                0x000000000801a9f8                vocab_D006_2
 .rodata.vocab_D007_1
                0x000000000801aa06        0xe tms5200x.o
                0x000000000801aa06                vocab_D007_1
 .rodata.vocab_D007_2
                0x000000000801aa14        0xe tms5200x.o
                0x000000000801aa14                vocab_D007_2
 .rodata.vocab_D008
                0x000000000801aa22        0xe tms5200x.o
                0x000000000801aa22                vocab_D008
 .rodata.vocab_D009_1
                0x000000000801aa30        0xe tms5200x.o
                0x000000000801aa30                vocab_D009_1
 .rodata.vocab_D009_2
                0x000000000801aa3e        0xe tms5200x.o
                0x000000000801aa3e                vocab_D009_2
 .rodata.vocab_D010_1
                0x000000000801aa4c        0xe tms5200x.o
                0x000000000801aa4c                vocab_D010_1
 .rodata.vocab_D010_2
                0x000000000801aa5a        0xe tms5200x.o
                0x000000000801aa5a                vocab_D010_2
 .rodata.vocab_D011
                0x000000000801aa68        0xe tms5200x.o
                0x000000000801aa68                vocab_D011
 .rodata.vocab_D012_1
                0x000000000801aa76        0xe tms5200x.o
                0x000000000801aa76                vocab_D012_1
 .rodata.vocab_D012_2
                0x000000000801aa84        0xe tms5200x.o
                0x000000000801aa84                vocab_D012_2
 .rodata.vocab_D013
                0x000000000801aa92        0xe tms5200x.o
                0x000000000801aa92                vocab_D013
 .rodata.vocab_D014
                0x000000000801aaa0        0xe tms5200x.o
                0x000000000801aaa0                vocab_D014
 .rodata.vocab_D015_1
                0x000000000801aaae        0xe tms5200x.o
                0x000000000801aaae                vocab_D015_1
 .rodata.vocab_D015_2
                0x000000000801aabc        0xe tms5200x.o
                0x000000000801aabc                vocab_D015_2
 .rodata.vocab_D016
                0x000000000801aaca        0xe tms5200x.o
                0x000000000801aaca                vocab_D016
 .rodata.vocab_D017
                0x000000000801aad8        0xe tms5200x.o
                0x000000000801aad8                vocab_D017
 .rodata.vocab_D018
                0x000000000801aae6        0xe tms5200x.o
                0x000000000801aae6                vocab_D018
 .rodata.vocab_D019
                0x000000000801aaf4        0xe tms5200x.o
                0x000000000801aaf4                vocab_D019
 .rodata.vocab_D020_21
                0x000000000801ab02        0xe tms5200x.o
                0x000000000801ab02                vocab_D020_21
 .rodata.vocab_D022
                0x000000000801ab10        0xe tms5200x.o
                0x000000000801ab10                vocab_D022
 .rodata.vocab_D023
                0x000000000801ab1e        0xe tms5200x.o
                0x000000000801ab1e                vocab_D023
 .rodata.vocab_D024_25
                0x000000000801ab2c        0xe tms5200x.o
                0x000000000801ab2c                vocab_D024_25
 .rodata.vocab_D026
                0x000000000801ab3a        0xe tms5200x.o
                0x000000000801ab3a                vocab_D026
 .rodata.vocab_D027_34
                0x000000000801ab48        0xe tms5200x.o
                0x000000000801ab48                vocab_D027_34
 .rodata.vocab_acorn_1
                0x000000000801ab56        0xe tms5200x.o
                0x000000000801ab56                vocab_acorn_1
 .rodata.vocab_acorn_2
                0x000000000801ab64        0xe tms5200x.o
                0x000000000801ab64                vocab_acorn_2
 .rodata.vocab_alphons
                0x000000000801ab72        0xe tms5200x.o
                0x000000000801ab72                vocab_alphons
 .rodata.vocab_arcade_one
                0x000000000801ab80        0xe tms5200x.o
                0x000000000801ab80                vocab_arcade_one
 .rodata.vocab_arcade_two
                0x000000000801ab8e        0xe tms5200x.o
                0x000000000801ab8e                vocab_arcade_two
 .rodata.vocab_echofemale_1
                0x000000000801ab9c        0xe tms5200x.o
                0x000000000801ab9c                vocab_echofemale_1
 .rodata.vocab_echofemale_2
                0x000000000801abaa        0xe tms5200x.o
                0x000000000801abaa                vocab_echofemale_2
 .rodata.vocab_large_male_one_1
                0x000000000801abb8        0xe tms5200x.o
                0x000000000801abb8                vocab_large_male_one_1
 .rodata.vocab_large_male_one_2
                0x000000000801abc6        0xe tms5200x.o
                0x000000000801abc6                vocab_large_male_one_2
 .rodata.vocab_large_male_two_1
                0x000000000801abd4        0xe tms5200x.o
                0x000000000801abd4                vocab_large_male_two_1
 .rodata.vocab_large_male_two_2
                0x000000000801abe2        0xe tms5200x.o
                0x000000000801abe2                vocab_large_male_two_2
 .rodata.vocab_male_1
                0x000000000801abf0        0xe tms5200x.o
                0x000000000801abf0                vocab_male_1
 .rodata.vocab_male_2
                0x000000000801abfe        0xe tms5200x.o
                0x000000000801abfe                vocab_male_2
 .rodata.vocab_mpf
                0x000000000801ac0c        0xe tms5200x.o
                0x000000000801ac0c                vocab_mpf
 .rodata.vocab_spkspellone_1
                0x000000000801ac1a        0xe tms5200x.o
                0x000000000801ac1a                vocab_spkspellone_1
 .rodata.vocab_spkspellone_2
                0x000000000801ac28        0xe tms5200x.o
                0x000000000801ac28                vocab_spkspellone_2
 .rodata.vocab_spkspelltwo_1
                0x000000000801ac36        0xe tms5200x.o
                0x000000000801ac36                vocab_spkspelltwo_1
 .rodata.vocab_spkspelltwo_2
                0x000000000801ac44        0xe tms5200x.o
                0x000000000801ac44                vocab_spkspelltwo_2
 .rodata.vocab_ti99_one_1
                0x000000000801ac52        0xe tms5200x.o
                0x000000000801ac52                vocab_ti99_one_1
 .rodata.vocab_ti99_one_2
                0x000000000801ac60        0xe tms5200x.o
                0x000000000801ac60                vocab_ti99_one_2
 .rodata.vocab_ti99_two_1
                0x000000000801ac6e        0xe tms5200x.o
                0x000000000801ac6e                vocab_ti99_two_1
 .rodata.vocab_ti99_two_2
                0x000000000801ac7c        0xe tms5200x.o
                0x000000000801ac7c                vocab_ti99_two_2
 .rodata.vocab_vocaid
                0x000000000801ac8a        0xe tms5200x.o
                0x000000000801ac8a                vocab_vocaid
 .rodata.delta1
                0x000000000801ac98       0x40 digitalker.o
 .rodata.delta2
                0x000000000801acd8       0x40 digitalker.o
 .rodata.pcm_levels
                0x000000000801ad18       0x80 digitalker.o
 .rodata.pitch_vals
                0x000000000801ad98       0x80 digitalker.o
 .rodata.s_glottal_wave
                0x000000000801ae18       0x24 newvotrax.o
                0x000000000801ae18                s_glottal_wave
 .rodata.stage_map
                0x000000000801ae3c        0x6 sp0256bend.o
 .rodata.abbrev.str1.1
                0x000000000801ae42       0x31 ./english2phoneme/parse.o
 .rodata.str1.1
                0x000000000801ae73      0x2f2 ./english2phoneme/newenglish.o
                                        0x3c5 (size before relaxing)
 .rodata.rsynth_acid
                0x000000000801b165       0x41 rsynth_2005/holmes.o
 .rodata.rsynth_anguish
                0x000000000801b1a6       0x41 rsynth_2005/holmes.o
 .rodata.rsynth_atom
                0x000000000801b1e7       0x41 rsynth_2005/holmes.o
 .rodata.rsynth_beauty
                0x000000000801b228       0x41 rsynth_2005/holmes.o
 .rodata.rsynth_biological
                0x000000000801b269       0x41 rsynth_2005/holmes.o
 .rodata.rsynth_bit
                0x000000000801b2aa       0x41 rsynth_2005/holmes.o
 .rodata.rsynth_black
                0x000000000801b2eb       0x41 rsynth_2005/holmes.o
 .rodata.rsynth_blood
                0x000000000801b32c       0x41 rsynth_2005/holmes.o
 .rodata.rsynth_body
                0x000000000801b36d       0x41 rsynth_2005/holmes.o
 .rodata.rsynth_brain
                0x000000000801b3ae       0x41 rsynth_2005/holmes.o
 .rodata.rsynth_break
                0x000000000801b3ef       0x41 rsynth_2005/holmes.o
 .rodata.rsynth_bug
                0x000000000801b430       0x41 rsynth_2005/holmes.o
 .rodata.rsynth_byte
                0x000000000801b471       0x41 rsynth_2005/holmes.o
 .rodata.rsynth_central
                0x000000000801b4b2       0x41 rsynth_2005/holmes.o
 .rodata.rsynth_chamber
                0x000000000801b4f3       0x41 rsynth_2005/holmes.o
 .rodata.rsynth_circuit
                0x000000000801b534       0x41 rsynth_2005/holmes.o
 .rodata.rsynth_code
                0x000000000801b575       0x41 rsynth_2005/holmes.o
 .rodata.rsynth_color
                0x000000000801b5b6       0x41 rsynth_2005/holmes.o
 .rodata.rsynth_communication
                0x000000000801b5f7       0x41 rsynth_2005/holmes.o
 .rodata.rsynth_computer
                0x000000000801b638       0x41 rsynth_2005/holmes.o
 .rodata.rsynth_contact
                0x000000000801b679       0x41 rsynth_2005/holmes.o
 .rodata.rsynth_core
                0x000000000801b6ba       0x41 rsynth_2005/holmes.o
 .rodata.rsynth_cosmic
                0x000000000801b6fb       0x41 rsynth_2005/holmes.o
 .rodata.rsynth_crash
                0x000000000801b73c       0x41 rsynth_2005/holmes.o
 .rodata.rsynth_crow
                0x000000000801b77d       0x41 rsynth_2005/holmes.o
 .rodata.rsynth_crystal
                0x000000000801b7be       0x41 rsynth_2005/holmes.o
 .rodata.rsynth_curse
                0x000000000801b7ff       0x41 rsynth_2005/holmes.o
 .rodata.rsynth_danger
                0x000000000801b840       0x41 rsynth_2005/holmes.o
 .rodata.rsynth_dark
                0x000000000801b881       0x41 rsynth_2005/holmes.o
 .rodata.rsynth_darkness
                0x000000000801b8c2       0x41 rsynth_2005/holmes.o
 .rodata.rsynth_data
                0x000000000801b903       0x41 rsynth_2005/holmes.o
 .rodata.rsynth_death
                0x000000000801b944       0x41 rsynth_2005/holmes.o
 .rodata.rsynth_decay
                0x000000000801b985       0x41 rsynth_2005/holmes.o
 .rodata.rsynth_decompose
                0x000000000801b9c6       0x41 rsynth_2005/holmes.o
 .rodata.rsynth_device
                0x000000000801ba07       0x41 rsynth_2005/holmes.o
 .rodata.rsynth_digital
                0x000000000801ba48       0x41 rsynth_2005/holmes.o
 .rodata.rsynth_dirt
                0x000000000801ba89       0x41 rsynth_2005/holmes.o
 .rodata.rsynth_dissolution
                0x000000000801baca       0x41 rsynth_2005/holmes.o
 .rodata.rsynth_double
                0x000000000801bb0b       0x41 rsynth_2005/holmes.o
 .rodata.rsynth_earth
                0x000000000801bb4c       0x41 rsynth_2005/holmes.o
 .rodata.rsynth_electronic
                0x000000000801bb8d       0x41 rsynth_2005/holmes.o
 .rodata.rsynth_emotional
                0x000000000801bbce       0x41 rsynth_2005/holmes.o
 .rodata.rsynth_error
                0x000000000801bc0f       0x41 rsynth_2005/holmes.o
 .rodata.rsynth_evidence
                0x000000000801bc50       0x41 rsynth_2005/holmes.o
 .rodata.rsynth_execution
                0x000000000801bc91       0x41 rsynth_2005/holmes.o
 .rodata.rsynth_failure
                0x000000000801bcd2       0x41 rsynth_2005/holmes.o
 .rodata.rsynth_flesh
                0x000000000801bd13       0x41 rsynth_2005/holmes.o
 .rodata.rsynth_freeze
                0x000000000801bd54       0x41 rsynth_2005/holmes.o
 .rodata.rsynth_fucked
                0x000000000801bd95       0x41 rsynth_2005/holmes.o
 .rodata.rsynth_geology
                0x000000000801bdd6       0x41 rsynth_2005/holmes.o
 .rodata.rsynth_girl
                0x000000000801be17       0x41 rsynth_2005/holmes.o
 .rodata.rsynth_god
                0x000000000801be58       0x41 rsynth_2005/holmes.o
 .rodata.rsynth_gold
                0x000000000801be99       0x41 rsynth_2005/holmes.o
 .rodata.rsynth_grave
                0x000000000801beda       0x41 rsynth_2005/holmes.o
 .rodata.rsynth_green
                0x000000000801bf1b       0x41 rsynth_2005/holmes.o
 .rodata.rsynth_ground
                0x000000000801bf5c       0x41 rsynth_2005/holmes.o
 .rodata.rsynth_haunt
                0x000000000801bf9d       0x41 rsynth_2005/holmes.o
 .rodata.rsynth_hear
                0x000000000801bfde       0x41 rsynth_2005/holmes.o
 .rodata.rsynth_heart
                0x000000000801c01f       0x41 rsynth_2005/holmes.o
 .rodata.rsynth_horror
                0x000000000801c060       0x41 rsynth_2005/holmes.o
 .rodata.rsynth_human
                0x000000000801c0a1       0x41 rsynth_2005/holmes.o
 .rodata.rsynth_infection
                0x000000000801c0e2       0x41 rsynth_2005/holmes.o
 .rodata.rsynth_information
                0x000000000801c123       0x41 rsynth_2005/holmes.o
 .rodata.rsynth_instruction
                0x000000000801c164       0x41 rsynth_2005/holmes.o
 .rodata.rsynth_interpreter
                0x000000000801c1a5       0x41 rsynth_2005/holmes.o
 .rodata.rsynth_keyboard
                0x000000000801c1e6       0x41 rsynth_2005/holmes.o
 .rodata.rsynth_kill
                0x000000000801c227       0x41 rsynth_2005/holmes.o
 .rodata.rsynth_labyrinth
                0x000000000801c268       0x41 rsynth_2005/holmes.o
 .rodata.rsynth_laser
                0x000000000801c2a9       0x41 rsynth_2005/holmes.o
 .rodata.rsynth_live
                0x000000000801c2ea       0x41 rsynth_2005/holmes.o
 .rodata.rsynth_love
                0x000000000801c32b       0x41 rsynth_2005/holmes.o
 .rodata.rsynth_machine
                0x000000000801c36c       0x41 rsynth_2005/holmes.o
 .rodata.rsynth_mars
                0x000000000801c3ad       0x41 rsynth_2005/holmes.o
 .rodata.rsynth_matter
                0x000000000801c3ee       0x41 rsynth_2005/holmes.o
 .rodata.rsynth_memory
                0x000000000801c42f       0x41 rsynth_2005/holmes.o
 .rodata.rsynth_metal
                0x000000000801c470       0x41 rsynth_2005/holmes.o
 .rodata.rsynth_micro
                0x000000000801c4b1       0x41 rsynth_2005/holmes.o
 .rodata.rsynth_mind
                0x000000000801c4f2       0x41 rsynth_2005/holmes.o
 .rodata.rsynth_module
                0x000000000801c533       0x41 rsynth_2005/holmes.o
 .rodata.rsynth_moon
                0x000000000801c574       0x41 rsynth_2005/holmes.o
 .rodata.rsynth_negative
                0x000000000801c5b5       0x41 rsynth_2005/holmes.o
 .rodata.rsynth_network
                0x000000000801c5f6       0x41 rsynth_2005/holmes.o
 .rodata.rsynth_night
                0x000000000801c637       0x41 rsynth_2005/holmes.o
 .rodata.rsynth_nigredo
                0x000000000801c678       0x41 rsynth_2005/holmes.o
 .rodata.rsynth_noise
                0x000000000801c6b9       0x41 rsynth_2005/holmes.o
 .rodata.rsynth_nothing
                0x000000000801c6fa       0x41 rsynth_2005/holmes.o
 .rodata.rsynth_nuclear
                0x000000000801c73b       0x41 rsynth_2005/holmes.o
 .rodata.rsynth_obscure
                0x000000000801c77c       0x41 rsynth_2005/holmes.o
 .rodata.rsynth_off
                0x000000000801c7bd       0x41 rsynth_2005/holmes.o
 .rodata.rsynth_on
                0x000000000801c7fe       0x41 rsynth_2005/holmes.o
 .rodata.rsynth_physical
                0x000000000801c83f       0x41 rsynth_2005/holmes.o
 .rodata.rsynth_piss
                0x000000000801c880       0x41 rsynth_2005/holmes.o
 .rodata.rsynth_pixel
                0x000000000801c8c1       0x41 rsynth_2005/holmes.o
 .rodata.rsynth_plague
                0x000000000801c902       0x41 rsynth_2005/holmes.o
 .rodata.rsynth_processor
                0x000000000801c943       0x41 rsynth_2005/holmes.o
 .rodata.rsynth_program
                0x000000000801c984       0x41 rsynth_2005/holmes.o
 .rodata.rsynth_pure
                0x000000000801c9c5       0x41 rsynth_2005/holmes.o
 .rodata.rsynth_radioactivity
                0x000000000801ca06       0x41 rsynth_2005/holmes.o
 .rodata.rsynth_raven
                0x000000000801ca47       0x41 rsynth_2005/holmes.o
 .rodata.rsynth_real
                0x000000000801ca88       0x41 rsynth_2005/holmes.o
 .rodata.rsynth_red
                0x000000000801cac9       0x41 rsynth_2005/holmes.o
 .rodata.rsynth_return
                0x000000000801cb0a       0x41 rsynth_2005/holmes.o
 .rodata.rsynth_robot
                0x000000000801cb4b       0x41 rsynth_2005/holmes.o
 .rodata.rsynth_seclusion
                0x000000000801cb8c       0x41 rsynth_2005/holmes.o
 .rodata.rsynth_sediment
                0x000000000801cbcd       0x41 rsynth_2005/holmes.o
 .rodata.rsynth_serpent
                0x000000000801cc0e       0x41 rsynth_2005/holmes.o
 .rodata.rsynth_shell
                0x000000000801cc4f       0x41 rsynth_2005/holmes.o
 .rodata.rsynth_signal
                0x000000000801cc90       0x41 rsynth_2005/holmes.o
 .rodata.rsynth_skin
                0x000000000801ccd1       0x41 rsynth_2005/holmes.o
 .rodata.rsynth_space
                0x000000000801cd12       0x41 rsynth_2005/holmes.o
 .rodata.rsynth_speak
                0x000000000801cd53       0x41 rsynth_2005/holmes.o
 .rodata.rsynth_spectral
                0x000000000801cd94       0x41 rsynth_2005/holmes.o
 .rodata.rsynth_subject
                0x000000000801cdd5       0x41 rsynth_2005/holmes.o
 .rodata.rsynth_sun
                0x000000000801ce16       0x41 rsynth_2005/holmes.o
 .rodata.rsynth_surface
                0x000000000801ce57       0x41 rsynth_2005/holmes.o
 .rodata.rsynth_synthesizer
                0x000000000801ce98       0x41 rsynth_2005/holmes.o
 .rodata.rsynth_talk
                0x000000000801ced9       0x41 rsynth_2005/holmes.o
 .rodata.rsynth_time
                0x000000000801cf1a       0x41 rsynth_2005/holmes.o
 .rodata.rsynth_tomb
                0x000000000801cf5b       0x41 rsynth_2005/holmes.o
 .rodata.rsynth_vacuum
                0x000000000801cf9c       0x41 rsynth_2005/holmes.o
 .rodata.rsynth_video
                0x000000000801cfdd       0x41 rsynth_2005/holmes.o
 .rodata.rsynth_virus
                0x000000000801d01e       0x41 rsynth_2005/holmes.o
 .rodata.rsynth_voice
                0x000000000801d05f       0x41 rsynth_2005/holmes.o
 .rodata.rsynth_vomit
                0x000000000801d0a0       0x41 rsynth_2005/holmes.o
 .rodata.rsynth_white
                0x000000000801d0e1       0x41 rsynth_2005/holmes.o
 .rodata.rsynth_world
                0x000000000801d122       0x41 rsynth_2005/holmes.o
 .rodata.rsynth_worming
                0x000000000801d163       0x41 rsynth_2005/holmes.o
 .rodata.rsynth_zero
                0x000000000801d1a4       0x41 rsynth_2005/holmes.o
 .rodata.str1.1
                0x000000000801d1e5      0x139 rsynth_2005/elements.o
                                        0x1e6 (size before relaxing)
 *fill*         0x000000000801d31e        0x2 
 .rodata.vocabklatt
                0x000000000801d320      0x200 ./rsynth-2.0-port/holmes.o
 .rodata.str1.1
                0x000000000801d520       0x1b ./rsynth-2.0-port/elements.o
                                        0x136 (size before relaxing)
 .rodata.str1.1
                0x000000000801d53b      0x269 ./rsynth-2.0-port/nsynth.o
 .rodata.str1.4
                0x000000000801d7a4        0x1 /usr/lib/gcc/arm-none-eabi/8.3.1/../../../arm-none-eabi/lib/thumb/v7e-m+fp/hard/libm.a(lib_a-ef_pow.o)
 *(.glue_7)
 .glue_7        0x000000000801d7a5        0x0 linker stubs
 *(.glue_7t)
 .glue_7t       0x000000000801d7a5        0x0 linker stubs
 *(.eh_frame)
 *fill*         0x000000000801d7a5        0x3 
 .eh_frame      0x000000000801d7a8        0x0 /usr/lib/gcc/arm-none-eabi/8.3.1/thumb/v7e-m+fp/hard/crtbegin.o
 *(.init)
 .init          0x000000000801d7a8        0x4 /usr/lib/gcc/arm-none-eabi/8.3.1/thumb/v7e-m+fp/hard/crti.o
                0x000000000801d7a8                _init
 .init          0x000000000801d7ac        0x8 /usr/lib/gcc/arm-none-eabi/8.3.1/thumb/v7e-m+fp/hard/crtn.o
 *(.fini)
 .fini          0x000000000801d7b4        0x4 /usr/lib/gcc/arm-none-eabi/8.3.1/thumb/v7e-m+fp/hard/crti.o
                0x000000000801d7b4                _fini
 .fini          0x000000000801d7b8        0x8 /usr/lib/gcc/arm-none-eabi/8.3.1/thumb/v7e-m+fp/hard/crtn.o
                0x000000000801d7c0                . = ALIGN (0x4)
                0x000000000801d7c0                _etext = .
                0x000000000801d7c0                _exit = .

.vfp11_veneer   0x000000000801d7c0        0x0
 .vfp11_veneer  0x000000000801d7c0        0x0 linker stubs

.v4_bx          0x000000000801d7c0        0x0
 .v4_bx         0x000000000801d7c0        0x0 linker stubs

.iplt           0x000000000801d7c0        0x0
 .iplt          0x000000000801d7c0        0x0 /usr/lib/gcc/arm-none-eabi/8.3.1/thumb/v7e-m+fp/hard/crtbegin.o

.rel.dyn        0x000000000801d7c0        0x0
 .rel.iplt      0x000000000801d7c0        0x0 /usr/lib/gcc/arm-none-eabi/8.3.1/thumb/v7e-m+fp/hard/crtbegin.o

.ARM.extab
 *(.ARM.extab* .gnu.linkonce.armextab.*)

.ARM            0x000000000801d7c0        0x0
                0x000000000801d7c0                __exidx_start = .
 *(.ARM.exidx*)
                0x000000000801d7c0                __exidx_end = .

.preinit_array  0x000000000801d7c0        0x0
                0x000000000801d7c0                PROVIDE (__preinit_array_start = .)
 *(.preinit_array*)
                0x000000000801d7c0                PROVIDE (__preinit_array_end = .)

.init_array     0x000000000801d7c0        0x8
                0x000000000801d7c0                PROVIDE (__init_array_start = .)
 *(SORT_BY_NAME(.init_array.*))
 .init_array.00000
                0x000000000801d7c0        0x4 /usr/lib/gcc/arm-none-eabi/8.3.1/../../../arm-none-eabi/lib/thumb/v7e-m+fp/hard/libc.a(lib_a-__call_atexit.o)
 *(.init_array*)
 .init_array    0x000000000801d7c4        0x4 /usr/lib/gcc/arm-none-eabi/8.3.1/thumb/v7e-m+fp/hard/crtbegin.o
                0x000000000801d7c8                PROVIDE (__init_array_end = .)

.fini_array     0x000000000801d7c8        0x4
                0x000000000801d7c8                PROVIDE (__fini_array_start = .)
 *(.fini_array*)
 .fini_array    0x000000000801d7c8        0x4 /usr/lib/gcc/arm-none-eabi/8.3.1/thumb/v7e-m+fp/hard/crtbegin.o
 *(SORT_BY_NAME(.fini_array.*))
                0x000000000801d7cc                PROVIDE (__fini_array_end = .)

.flash          0x000000000801d7cc    0xd1674
                0x000000000801d7cc                . = ALIGN (0x4)
 *(.flash)
 .flash         0x000000000801d7cc     0x1240 resources.o
                0x000000000801d7cc                mapytoascii
                0x000000000801d80c                logpitch
                0x000000000801da0c                logspeed
 .flash         0x000000000801ea0c     0xa4e8 sp0256.o
                0x000000000801ea0c                sp0256_df_idx
                0x000000000801eb0c                sp0256_datafmt
                0x000000000801ec6e                qtbl
                0x000000000801ed6e                m_rom12
                0x000000000801f56e                m_rom19
                0x000000000801fd6e                remap19
                0x000000000801fd9f                m_romAL2
                0x000000000802059f                sp0256talk
                0x00000000080205a5                sp0256hello
                0x00000000080205ab                sp0256starting
                0x00000000080205b5                sp0256nineteenth
                0x00000000080205c0                sp0256bather
                0x00000000080205c5                sp0256time
                0x00000000080205ca                sp0256threader
                0x00000000080205d2                sp0256u
                0x00000000080205d5                sp0256switch
                0x00000000080205dd                sp0256enrage
                0x00000000080205e4                sp0256robot
                0x00000000080205ec                sp0256m
                0x00000000080205f0                sp0256sensitive
                0x00000000080205fe                sp0256alarm
                0x0000000008020603                sp0256i
                0x0000000008020606                sp0256won
                0x000000000802060b                sp0256third
                0x0000000008020610                sp0256e
                0x0000000008020612                sp0256threaded
                0x000000000802061c                sp0256a
                0x000000000802061e                sp0256whaling
                0x0000000008020624                sp0256nipped
                0x000000000802062d                sp0256eighth
                0x0000000008020633                sp0256nip
                0x000000000802063a                sp0256date
                0x000000000802063f                sp0256subject
                0x000000000802064d                sp0256letter
                0x0000000008020654                sp0256two
                0x0000000008020657                sp0256eight
                0x000000000802065b                sp0256y
                0x000000000802065e                sp0256threaders
                0x0000000008020667                sp0256robots
                0x0000000008020670                sp0256eighty
                0x0000000008020675                sp0256stop
                0x000000000802067e                sp0256may
                0x0000000008020681                sp0256monday
                0x0000000008020689                sp0256investigated
                0x000000000802069d                sp0256switching
                0x00000000080206a7                sp0256nips
                0x00000000080206af                sp0256ray
                0x00000000080206b3                sp0256pins
                0x00000000080206b9                sp0256fourth
                0x00000000080206bf                sp0256sunday
                0x00000000080206c8                sp0256freezer
                0x00000000080206cf                sp0256six
                0x00000000080206d7                sp0256divided
                0x00000000080206e1                sp0256no
                0x00000000080206e5                sp0256pledging
                0x00000000080206ee                sp0256rays
                0x00000000080206f3                sp0256spell
                0x00000000080206fb                sp0256legislate
                0x0000000008020709                sp0256physical
                0x0000000008020713                sp0256check
                0x0000000008020719                sp0256engages
                0x0000000008020724                sp0256ready
                0x000000000802072b                sp0256fourteenth
                0x0000000008020735                sp0256sincerity
                0x0000000008020745                sp0256eighteen
                0x000000000802074c                sp0256speller
                0x0000000008020755                sp0256escaped
                0x0000000008020760                sp0256spelled
                0x000000000802076a                sp0256am
                0x000000000802076f                sp0256year
                0x0000000008020772                sp0256is
                0x0000000008020776                sp0256december
                0x0000000008020781                sp0256escapes
                0x000000000802078b                sp0256pin
                0x0000000008020790                sp0256v
                0x0000000008020793                sp0256seven
                0x000000000802079b                sp0256bathe
                0x000000000802079f                sp0256and
                0x00000000080207a5                sp0256thirteen
                0x00000000080207ad                sp0256z
                0x00000000080207b3                sp0256emotional
                0x00000000080207bc                sp0256stopping
                0x00000000080207c7                sp0256error
                0x00000000080207cb                sp0256three
                0x00000000080207cf                sp0256nine
                0x00000000080207d4                sp0256r
                0x00000000080207d6                sp0256n
                0x00000000080207da                sp0256second
                0x00000000080207e4                sp0256j
                0x00000000080207e8                sp0256legislating
                0x00000000080207f8                sp0256frozen
                0x0000000008020800                sp0256f
                0x0000000008020805                sp0256hour
                0x0000000008020808                sp0256spellers
                0x0000000008020812                sp0256threads
                0x000000000802081a                sp0256b
                0x000000000802081d                sp0256intriguing
                0x0000000008020828                sp0256starter
                0x0000000008020831                sp0256nineteen
                0x000000000802083a                sp0256freeze
                0x0000000008020840                sp0256july
                0x0000000008020845                sp0256uncle
                0x000000000802084b                sp0256engage
                0x0000000008020854                sp0256subjectv
                0x0000000008020862                sp0256fore
                0x0000000008020866                sp0256sister
                0x000000000802086f                sp0256corrected
                0x000000000802087b                sp0256thousand
                0x0000000008020885                sp0256infinitive
                0x0000000008020893                sp0256started
                0x000000000802089e                sp0256sixteenth
                0x00000000080208ac                sp0256freezers
                0x00000000080208b4                sp0256today
                0x00000000080208ba                sp0256sincere
                0x00000000080208c3                sp0256sweated
                0x00000000080208ce                sp0256hundred
                0x00000000080208da                sp0256whalers
                0x00000000080208e0                sp0256memory
                0x00000000080208e7                sp0256too
                0x00000000080208ea                sp0256beer
                0x00000000080208ed                sp0256eleven
                0x00000000080208f5                sp0256pinned
                0x00000000080208fc                sp0256intrigues
                0x0000000008020906                sp0256checker
                0x000000000802090d                sp0256engagement
                0x000000000802091d                sp0256sweater
                0x0000000008020926                sp0256twenty
                0x0000000008020930                sp0256whales
                0x0000000008020935                sp0256start
                0x000000000802093d                sp0256checked
                0x0000000008020945                sp0256little
                0x000000000802094c                sp0256sweating
                0x0000000008020956                sp0256speak
                0x000000000802095e                sp0256spelling
                0x0000000008020968                sp0256seventeenth
                0x0000000008020976                sp0256twelfth
                0x000000000802097f                sp0256enrages
                0x0000000008020988                sp0256stopper
                0x0000000008020992                sp0256eleventh
                0x000000000802099c                sp0256nipping
                0x00000000080209a5                sp0256sincerely
                0x00000000080209b0                sp0256one
                0x00000000080209b5                sp0256tuesday
                0x00000000080209bc                sp0256threading
                0x00000000080209c5                sp0256investigate
                0x00000000080209d6                sp0256enraged
                0x00000000080209df                sp0256key
                0x00000000080209e2                sp0256first
                0x00000000080209e8                sp0256intrigue
                0x00000000080209f1                sp0256investigates
                0x0000000008020a03                sp0256whaler
                0x0000000008020a08                sp0256w
                0x0000000008020a10                sp0256sweat
                0x0000000008020a18                sp0256plus
                0x0000000008020a1f                sp0256s
                0x0000000008020a24                sp0256april
                0x0000000008020a2c                sp0256pinning
                0x0000000008020a33                sp0256times
                0x0000000008020a39                sp0256o
                0x0000000008020a3b                sp0256equal
                0x0000000008020a43                sp0256k
                0x0000000008020a47                sp0256of
                0x0000000008020a4b                sp0256g
                0x0000000008020a4e                sp0256daughter
                0x0000000008020a53                sp0256ate
                0x0000000008020a57                sp0256c
                0x0000000008020a5b                sp0256legislature
                0x0000000008020a6a                sp0256by
                0x0000000008020a6e                sp0256fifteen
                0x0000000008020a77                sp0256raspberry
                0x0000000008020a81                sp0256november
                0x0000000008020a8c                sp0256talking
                0x0000000008020a94                sp0256sixty
                0x0000000008020a9f                sp0256investigating
                0x0000000008020ab2                sp0256extent
                0x0000000008020abb                sp0256corrects
                0x0000000008020ac5                sp0256cookie
                0x0000000008020aca                sp0256fourteen
                0x0000000008020ad2                sp0256wednesday
                0x0000000008020adb                sp0256fifteenth
                0x0000000008020ae6                sp0256equals
                0x0000000008020aef                sp0256seventh
                0x0000000008020af8                sp0256friday
                0x0000000008020aff                sp0256june
                0x0000000008020b03                sp0256august
                0x0000000008020b0c                sp0256escaping
                0x0000000008020b17                sp0256million
                0x0000000008020b1f                sp0256thirtieth
                0x0000000008020b29                sp0256t
                0x0000000008020b2c                sp0256red
                0x0000000008020b32                sp0256checks
                0x0000000008020b39                sp0256sweaters
                0x0000000008020b43                sp0256sixth
                0x0000000008020b4c                sp0256score
                0x0000000008020b52                sp0256stops
                0x0000000008020b5c                sp0256forty
                0x0000000008020b62                sp0256memories
                0x0000000008020b6a                sp0256clock
                0x0000000008020b71                sp0256for
                0x0000000008020b75                sp0256sweats
                0x0000000008020b7e                sp0256checkers
                0x0000000008020b86                sp0256saturday
                0x0000000008020b90                sp0256tenth
                0x0000000008020b97                sp0256enraging
                0x0000000008020ba0                sp0256calendar
                0x0000000008020baa                sp0256pi
                0x0000000008020baf                sp0256twelve
                0x0000000008020bb6                sp0256escape
                0x0000000008020bbf                sp0256legislated
                0x0000000008020bcf                sp0256talker
                0x0000000008020bd6                sp0256computer
                0x0000000008020bdf                sp0256litter
                0x0000000008020be6                sp0256thread
                0x0000000008020bed                sp0256engaging
                0x0000000008020bf8                sp0256d
                0x0000000008020bfb                sp0256eighteenth
                0x0000000008020c04                sp0256crown
                0x0000000008020c09                sp0256thirteenth
                0x0000000008020c13                sp0256sensitivity
                0x0000000008020c26                sp0256starts
                0x0000000008020c2f                sp0256ten
                0x0000000008020c34                sp0256pledge
                0x0000000008020c3b                sp0256talked
                0x0000000008020c43                sp0256seventeen
                0x0000000008020c4f                sp0256legislates
                0x0000000008020c5e                sp0256investigators
                0x0000000008020c71                sp0256x
                0x0000000008020c78                sp0256zero
                0x0000000008020c7c                sp0256january
                0x0000000008020c84                sp0256q
                0x0000000008020c88                sp0256stopped
                0x0000000008020c93                sp0256ninety
                0x0000000008020c9a                sp0256intrigued
                0x0000000008020ca5                sp0256p
                0x0000000008020ca8                sp0256correct
                0x0000000008020cb1                sp0256clown
                0x0000000008020cb6                sp0256l
                0x0000000008020cba                sp0256h
                0x0000000008020cbf                sp0256investigator
                0x0000000008020cd1                sp0256cognitive
                0x0000000008020cdc                sp0256february
                0x0000000008020ce6                sp0256switches
                0x0000000008020cf0                sp0256bread
                0x0000000008020cf7                sp0256minute
                0x0000000008020cfe                sp0256day
                0x0000000008020d02                sp0256correcting
                0x0000000008020d0d                sp0256month
                0x0000000008020d12                sp0256five
                0x0000000008020d17                sp0256october
                0x0000000008020d21                sp0256collide
                0x0000000008020d27                sp0256freezing
                0x0000000008020d2f                sp0256gauging
                0x0000000008020d36                sp0256checking
                0x0000000008020d3e                sp0256march
                0x0000000008020d43                sp0256coop
                0x0000000008020d48                sp0256seventy
                0x0000000008020d53                sp0256then
                0x0000000008020d58                sp0256pledges
                0x0000000008020d61                sp0256systems
                0x0000000008020d6d                sp0256whale
                0x0000000008020d71                sp0256to
                0x0000000008020d74                sp0256the
                0x0000000008020d78                sp0256thursday
                0x0000000008020d7f                sp0256pledged
                0x0000000008020d88                sp0256system
                0x0000000008020d93                sp0256sixteen
                0x0000000008020d9f                sp0256fir
                0x0000000008020da2                sp0256spells
                0x0000000008020dab                sp0256fifth
                0x0000000008020db2                sp0256yes
                0x0000000008020db8                sp0256talks
                0x0000000008020dbf                sp0256gauge
                0x0000000008020dc4                sp0256gauged
                0x0000000008020dcb                sp0256four
                0x0000000008020dcf                sp0256fifty
                0x0000000008020dd9                sp0256ninth
                0x0000000008020ddf                sp0256talkers
                0x0000000008020de7                sp0256september
                0x0000000008020df5                sp0256switched
                0x0000000008020dff                sp0256gauges
                0x0000000008020e06                sp0256twentieth
                0x0000000008020e13                sp0256bathing
                0x0000000008020e19                sp0256thirty
                0x0000000008020e20                sp0256volt
                0x0000000008020e25                sp0256temperature
                0x0000000008020e2d                sp0256try
                0x0000000008020e31                sp0256than
                0x0000000008020e35                sp0256speedddd
                0x0000000008020e3b                sp0256set
                0x0000000008020e3f                sp0256rpm
                0x0000000008020e45                sp0256right
                0x0000000008020e49                sp0256rate
                0x0000000008020e4d                sp0256pulses
                0x0000000008020e54                sp0256point
                0x0000000008020e59                sp0256please
                0x0000000008020e5e                sp0256pico
                0x0000000008020e65                sp0256percent
                0x0000000008020e6c                sp0256on
                0x0000000008020e6f                sp0256off
                0x0000000008020e73                sp0256number
                0x0000000008020e79                sp0256minus
                0x0000000008020e7f                sp0256microo
                0x0000000008020e85                sp0256milli
                0x0000000008020e8a                sp0256lower
                0x0000000008020e8e                sp0256low
                0x0000000008020e91                sp0256limitt
                0x0000000008020e97                sp0256lesser
                0x0000000008020e9c                sp0256less
                0x0000000008020ea1                sp0256kilo
                0x0000000008020ea6                sp0256it
                0x0000000008020ea9                sp0256inches
                0x0000000008020eaf                sp0256higher
                0x0000000008020eb3                sp0256high
                0x0000000008020eb6                sp0256gram
                0x0000000008020ebb                sp0256go
                0x0000000008020ebe                sp0256gallon
                0x0000000008020ec4                sp0256fuel
                0x0000000008020ec8                sp0256farads
                0x0000000008020ece                sp0256feet
                0x0000000008020ed2                sp0256dollar
                0x0000000008020ed7                sp0256degree
                0x0000000008020edd                sp0256danger
                0x0000000008020ee3                sp0256centi
                0x0000000008020ee9                sp0256cent
                0x0000000008020eef                sp0256ampere
                0x0000000008020ef4                m_rom004
                0x0000000008024ef4                m_rom003
 .flash         0x0000000008028ef4       0xa0 simpleklatt.o
 .flash         0x0000000008028f94     0x18f8 sam.o
                0x0000000008028f94                flags
                0x0000000008028fe5                flags2
                0x0000000008029033                signInputTable1
                0x0000000008029084                signInputTable2
                0x00000000080290d5                stressInputTable
                0x00000000080290de                phonemeLengthTable
                0x000000000802912e                phonemeStressedLengthTable
                0x0000000008029180                sam_vocab_custom
                0x000000000802938c                sam_vocab31
                0x0000000008029434                sam_vocab30
                0x00000000080294dc                sam_vocab29
                0x0000000008029584                sam_vocab28
                0x000000000802962c                sam_vocab27
                0x00000000080296d4                sam_vocab26
                0x000000000802977c                sam_vocab25
                0x0000000008029824                sam_vocab24
                0x00000000080298cc                sam_vocab23
                0x0000000008029974                sam_vocab22
                0x0000000008029a1c                sam_vocab21
                0x0000000008029ac4                sam_vocab20
                0x0000000008029b6c                sam_vocab19
                0x0000000008029c14                sam_vocab18
                0x0000000008029cbc                sam_vocab17
                0x0000000008029d64                sam_vocab16
                0x0000000008029e0c                sam_vocab15
                0x0000000008029eb4                sam_vocab14
                0x0000000008029f5c                sam_vocab13
                0x000000000802a004                sam_vocab12
                0x000000000802a0ac                sam_vocab11
                0x000000000802a154                sam_vocab10
                0x000000000802a1fc                sam_vocab9
                0x000000000802a2a4                sam_vocab8
                0x000000000802a34c                sam_vocab7
                0x000000000802a3f4                sam_vocab6
                0x000000000802a49c                sam_vocab5
                0x000000000802a544                sam_vocab4
                0x000000000802a5ec                sam_vocab3
                0x000000000802a694                sam_vocab2
                0x000000000802a73c                sam_vocab1
                0x000000000802a7e4                sam_vocab0
 .flash         0x000000000802a88c      0xa51 render.o
                0x000000000802a88c                tab48426
                0x000000000802a891                sampleTable
                0x000000000802ad91                multtable
                0x000000000802ae91                sinus
                0x000000000802af91                rectangle
                0x000000000802b091                tab47492
                0x000000000802b09c                ampl1data
                0x000000000802b0ec                ampl2data
                0x000000000802b13c                ampl3data
                0x000000000802b18c                sampledConsonantFlags
                0x000000000802b1dc                blendRank
                0x000000000802b22c                outBlendLength
                0x000000000802b27c                inBlendLength
                0x000000000802b2cc                amplitudeRescale
 .flash         0x000000000802b2dd    0xaa90e tms5200x.o
                0x000000000802b2dd                sppYELLOW
                0x000000000802b32f                sppTURN
                0x000000000802b372                sppSOUTH
                0x000000000802b3c8                sppSAFE
                0x000000000802b408                sppRANGE
                0x000000000802b466                sppPRESS
                0x000000000802b4a9                sppPAST
                0x000000000802b4f5                sppUH
                0x000000000802b51e                sppMILL
                0x000000000802b559                sppLEFT
                0x000000000802b598                sppHOLD
                0x000000000802b5f2                sppGAP
                0x000000000802b634                sppFROM
                0x000000000802b664                sppFEET
                0x000000000802b6a3                sppENTER
                0x000000000802b6d7                sppDIRECTION
                0x000000000802b745                sppCRANE
                0x000000000802b799                sppCALIBRATE
                0x000000000802b80d                sppHOURS
                0x000000000802b872                sppBREAK
                0x000000000802b8b6                sppPOINT
                0x000000000802b905                sppOUT
                0x000000000802b93a                sppNUMBER
                0x000000000802b99a                sppVAL
                0x000000000802b9ee                sppVALVE
                0x000000000802ba4c                sppSWITCH
                0x000000000802ba99                sppSERVICE
                0x000000000802baef                sppDEGREES
                0x000000000802bb85                sppCHECK
                0x000000000802bbb9                sppLIGHT
                0x000000000802bc09                sppCAUTION
                0x000000000802bc64                sppMILLI
                0x000000000802bc9d                sppFARAD
                0x000000000802bced                sppAND
                0x000000000802bd44                sppKILO
                0x000000000802bd93                sppWEST
                0x000000000802bde6                sppTOOL
                0x000000000802be25                sppSLOW
                0x000000000802be6d                sppRIGHT
                0x000000000802beb6                sppPUSH
                0x000000000802bee6                sppPOSITION
                0x000000000802bf45                sppPASS
                0x000000000802bf96                sppNORTH
                0x000000000802bfe9                sppMEASURE
                0x000000000802c03a                sppINTRUDER
                0x000000000802c0ad                sppHIGH
                0x000000000802c0e3                sppGATE
                0x000000000802c12c                sppFREQUENCY
                0x000000000802c19a                sppFAIL
                0x000000000802c1df                sppEAST
                0x000000000802c220                sppDEVICE
                0x000000000802c26e                sppCLOCK
                0x000000000802c2ac                sppBUTTON
                0x000000000802c2fa                sppMINUTES
                0x000000000802c340                sppBETWEEN
                0x000000000802c39c                sppADJUST
                0x000000000802c3fd                sppALERT
                0x000000000802c458                sppIS
                0x000000000802c48f                sppUP
                0x000000000802c4ba                sppTIMER
                0x000000000802c505                sppUNIT
                0x000000000802c562                sppSECONDS
                0x000000000802c5cc                sppCONNECT
                0x000000000802c619                sppCIRCUIT
                0x000000000802c674                sppAREA
                0x000000000802c6c7                sppOHMS
                0x000000000802c71b                sppMICRO
                0x000000000802c76f                sppHERTZ
                0x000000000802c7a3                sppGALLONS
                0x000000000802c807                sppVOLTS
                0x000000000802c844                sppTEST
                0x000000000802c882                sppSHUT
                0x000000000802c8b9                sppREPEAT
                0x000000000802c91d                sppPULL
                0x000000000802c957                sppPLUS
                0x000000000802c993                sppOVER
                0x000000000802c9de                sppMOVE
                0x000000000802ca39                sppMANUAL
                0x000000000802cab0                sppINSPPECTOR
                0x000000000802cb21                sppGREEN
                0x000000000802cb90                sppGAUGE
                0x000000000802cbdf                sppFLOW
                0x000000000802cc20                sppEXIT
                0x000000000802cc6e                sppNOR
                0x000000000802ccbb                sppPHASE
                0x000000000802ccfd                sppCANCEL
                0x000000000802cd43                sppALL
                0x000000000802cd7a                sppRED
                0x000000000802cdc9                sppAT
                0x000000000802cdf8                sppELECTRICIAN
                0x000000000802ce69                sppCONTROL
                0x000000000802ced0                sppON
                0x000000000802cf0c                sppMACHINE
                0x000000000802cf6a                sppSTOP
                0x000000000802cf99                sppTEMPERATURE
                0x000000000802cfee                sppREPAIR
                0x000000000802d04f                sppCOMPLETE
                0x000000000802d0b9                sppPOWER
                0x000000000802d107                sppFIRE
                0x000000000802d15a                sppPICO
                0x000000000802d1b0                sppMEGA
                0x000000000802d1fa                sppAMPS
                0x000000000802d235                sppOPERATOR
                0x000000000802d2b2                sppUNDER
                0x000000000802d306                sppSPPEED
                0x000000000802d350                sppSET
                0x000000000802d38e                sppREADY
                0x000000000802d3ce                sppPROBE
                0x000000000802d418                sppPERCENT
                0x000000000802d46a                sppOPEN
                0x000000000802d4b3                sppMOTOR
                0x000000000802d4f8                sppLOW
                0x000000000802d528                sppINCH
                0x000000000802d56e                sppGO
                0x000000000802d594                sppABOUT
                0x000000000802d5f1                sppFAST
                0x000000000802d63f                sppEQUAL
                0x000000000802d691                sppDISPPLAY
                0x000000000802d6ec                sppCYCLE
                0x000000000802d73a                sppCALL
                0x000000000802d776                sppABORT
                0x000000000802d7e0                sppSMOKE
                0x000000000802d821                sppWEIGHT
                0x000000000802d870                sppAUTOMATIC
                0x000000000802d8ee                sppTIME
                0x000000000802d92b                sppOFF
                0x000000000802d957                sppLINE
                0x000000000802d9ab                sppSTART
                0x000000000802d9f6                sppNOT
                0x000000000802da3b                sppMINUS
                0x000000000802da8b                sppCHANGE
                0x000000000802daf4                sppPRESSURE
                0x000000000802db38                sppDANGER
                0x000000000802db8b                sppMETER
                0x000000000802dbd6                sppWATTS
                0x000000000802dc25                sppTHE
                0x000000000802dc4c                sppZULU
                0x000000000802dc95                sppYANKEE
                0x000000000802dcf8                sppXRAY
                0x000000000802dd5c                sppWHISKY
                0x000000000802ddb5                sppVICTOR
                0x000000000802de0c                sppUNIFORM
                0x000000000802de8a                sppTANGO
                0x000000000802dee2                sppSIERRA
                0x000000000802df39                sppROMEO
                0x000000000802df99                sppQUEBEC
                0x000000000802dfe0                sppPAPA
                0x000000000802e022                sppOSCAR
                0x000000000802e075                sppNOVEMBER
                0x000000000802e0ec                sppMIKE
                0x000000000802e12e                sppLIMA
                0x000000000802e177                sppJULIET
                0x000000000802e1dd                sppINDIA
                0x000000000802e231                sppHENRY
                0x000000000802e281                sppGOLF
                0x000000000802e2b9                sppFOXTROT
                0x000000000802e328                sppECHO
                0x000000000802e36a                sppDELTA
                0x000000000802e3bd                sppCHARLIE
                0x000000000802e40e                sppBRAVO
                0x000000000802e46b                sppALPHA
                0x000000000802e4ac                sppZ
                0x000000000802e4e8                sppY
                0x000000000802e52a                sppX
                0x000000000802e563                sppW
                0x000000000802e5c9                sppV
                0x000000000802e61d                sppU
                0x000000000802e65b                sppT
                0x000000000802e695                sppS
                0x000000000802e6c5                sppR
                0x000000000802e6f1                sppQ
                0x000000000802e725                sppP
                0x000000000802e75b                sppO
                0x000000000802e789                sppN
                0x000000000802e7c9                sppM
                0x000000000802e808                sppK
                0x000000000802e849                sppJ
                0x000000000802e88c                sppL
                0x000000000802e8cb                sppI
                0x000000000802e90d                sppH
                0x000000000802e948                sppG
                0x000000000802e986                sppF
                0x000000000802e9c0                sppE
                0x000000000802e9f6                sppD
                0x000000000802ea2a                sppC
                0x000000000802ea6c                sppB
                0x000000000802ea9e                sppA
                0x000000000802eacc                spp_TEEN
                0x000000000802eb02                sppELEVEN
                0x000000000802eb6a                sppSEVEN
                0x000000000802ebb4                sppTHREE
                0x000000000802ec00                sppTHOUSAND
                0x000000000802ec79                sppFIF_
                0x000000000802ec9f                sppTEN
                0x000000000802ecd5                sppSIX
                0x000000000802ed07                sppTWO
                0x000000000802ed3e                sppHUNDRED
                0x000000000802ed95                sppTHIR_
                0x000000000802edcd                sppNINE
                0x000000000802ee25                sppFIVE
                0x000000000802ee78                sppONE
                0x000000000802eebb                sppTWENTY
                0x000000000802ef07                sppTWELVE
                0x000000000802ef50                sppEIGHT
                0x000000000802ef83                sppFOUR
                0x000000000802efcf                sppZERO
                0x000000000802f01c                spTELEPHONE
                0x000000000802f0ae                spBOOST
                0x000000000802f0ed                spGEAR
                0x000000000802f140                spAPPROACHES
                0x000000000802f1e5                spFLIGHTB
                0x000000000802f240                spINSTRUMENTS
                0x000000000802f2e9                spINNER
                0x000000000802f336                spMIDDLE
                0x000000000802f39c                spOUTER
                0x000000000802f3f9                spREFUELLING
                0x000000000802f4ab                spREMARK
                0x000000000802f542                spRADIALA
                0x000000000802f5da                spALTITUDE
                0x000000000802f675                spCLEARANCE
                0x000000000802f6e7                spAIRSPEED
                0x000000000802f775                spAIRPORT
                0x000000000802f7e1                spDEGREEA
                0x000000000802f84c                spFLIGHTA
                0x000000000802f8a5                spFREEDOM
                0x000000000802f920                spGALLEY
                0x000000000802f977                spNINER
                0x000000000802f9f6                spSLOKE
                0x000000000802fa4f                spUNICOM
                0x000000000802faf5                spTRIM
                0x000000000802fb47                spACCELERATED
                0x000000000802fbf2                spBANK
                0x000000000802fc53                spCLIMB
                0x000000000802fcc5                spELEVATION
                0x000000000802fd78                spSQUALK
                0x000000000802fdd6                spTOUCHDOWN
                0x000000000802fe6a                spSTALL
                0x000000000802fee9                spFLIGHTWATCH
                0x000000000802ff8f                spTOWER
                0x000000000802fff6                spLAUNCH
                0x000000000803005a                spDEPARTUREA
                0x00000000080300ee                spOVERSPEED
                0x000000000803019f                spINFLIGHT
                0x0000000008030238                spCOWL
                0x0000000008030297                spLOCALIZER
                0x000000000803034e                spAUTOPILOT
                0x00000000080303ea                spALTIMETER
                0x000000000803050c                spAIRCRAFT
                0x0000000008030598                spCROCS
                0x00000000080305f1                spROLL_OUT
                0x000000000803068f                spSIGNET
                0x000000000803070a                spMIDPOINT
                0x00000000080307a3                spDOWNWIND
                0x0000000008030838                spETA
                0x00000000080308ee                spHEADING
                0x000000000803094f                spBARKER
                0x00000000080309c2                spVOR
                0x0000000008030aad                spVORTAC
                0x0000000008030b4d                spSELCAL
                0x0000000008030be8                spPAKM
                0x0000000008030c65                spSTABILISER
                0x0000000008030d1e                spMAGNETOS
                0x0000000008030dcb                spSQUALKING
                0x0000000008030e3f                spRVRS
                0x0000000008030f33                spNOTEM
                0x0000000008030fa6                spADISA
                0x0000000008030ffb                spWAKE
                0x0000000008031061                spSHORT
                0x00000000080310b7                spSET
                0x00000000080310fe                spLEAN
                0x000000000803116a                spLANDING
                0x00000000080311f5                spMAINTAIN
                0x00000000080312a1                spLEG
                0x0000000008031313                spNEW
                0x0000000008031392                spFULL
                0x00000000080313e1                spGROUND
                0x0000000008031439                spDOWN
                0x0000000008031493                spCYCLE
                0x00000000080314fa                spCYLINDERA
                0x0000000008031586                spCRYSTALS
                0x00000000080315f4                spCROSSWIND
                0x000000000803168e                spCALL
                0x00000000080316f5                spBREAKING
                0x0000000008031766                spCALM
                0x00000000080317de                spBRAKE
                0x0000000008031836                spABOVE
                0x000000000803189c                spCONVERGING
                0x0000000008031936                spAS
                0x0000000008031971                spTAXI
                0x00000000080319de                spUP
                0x0000000008031a1f                spINCREASE
                0x0000000008031a97                spIDLE
                0x0000000008031b01                spFUELA
                0x0000000008031b71                spCLEARANCE_DELIVERY
                0x0000000008031c67                spDEPARTURE
                0x0000000008031ced                spAPPROACH
                0x0000000008031d6a                spLIST
                0x0000000008031dd6                spRAISE
                0x0000000008031e6a                spACKNOWLEDGE
                0x0000000008031f14                spARRIVAL
                0x0000000008031fad                spCABIN
                0x0000000008032019                spDOORS
                0x000000000803209d                spEVACUATION
                0x0000000008032179                spFLAPS
                0x00000000080321e5                spNO_TURN
                0x00000000080322b2                spIGNITE
                0x0000000008032324                spINBOUND
                0x00000000080323f6                spFLAK_LOAD
                0x00000000080324bc                spFLAME_OUT
                0x0000000008032548                spENGINE
                0x00000000080325cc                spAERIALA
                0x0000000008032651                spAIR_BRAKES
                0x00000000080326ed                spSPOILERS
                0x000000000803279b                spUNDERCARRIAGE
                0x000000000803285e                spLEVEL_OFF
                0x0000000008032920                spLANDING_GEAR
                0x00000000080329fd                spVHE
                0x0000000008032b0c                spVFR
                0x0000000008032be1                spIFR
                0x0000000008032cb6                spILS
                0x0000000008032d84                spFSS
                0x0000000008032e60                spATU
                0x0000000008032f2c                spABEAN
                0x0000000008032fae                spVACUUM
                0x000000000803302c                spD
                0x000000000803305f                spMEASURED
                0x00000000080330e5                spCONTROL
                0x000000000803315b                spBASE
                0x0000000008033197                spAREA
                0x00000000080331f7                spCENTRE
                0x0000000008033271                spTOO_LOW
                0x0000000008033307                spIDEMTIFY
                0x000000000803339e                spABORT
                0x000000000803341f                spSERVICE
                0x0000000008033499                spFAILURE
                0x0000000008033506                spEVACUATE
                0x00000000080335be                spCLOSE
                0x0000000008033647                spSTRAY
                0x00000000080336d7                spOPENA
                0x0000000008033731                spRIGHT
                0x0000000008033791                spLEFT
                0x00000000080337f2                spLEVELA
                0x000000000803386b                spLONGA
                0x00000000080338d7                spHOLD
                0x000000000803393c                spREAR
                0x00000000080339bb                spLOWER
                0x0000000008033a2d                spLEVEL
                0x0000000008033a94                spPUMPS
                0x0000000008033aea                spRICH
                0x0000000008033b58                spTO
                0x0000000008033b87                spSLOWA
                0x0000000008033bdd                spSIDE
                0x0000000008033c38                spSEQUENCE
                0x0000000008033cbe                spFUEL
                0x0000000008033d15                spCONTACT
                0x0000000008033d8f                spCYLINDER
                0x0000000008033e0c                spBELOW
                0x0000000008033e88                spCAUTION
                0x0000000008033ef7                spIS
                0x0000000008033f4f                spGREAT2
                0x0000000008033fb1                spMUCH
                0x0000000008034009                spMIXTURE
                0x000000000803408c                spGREAT
                0x00000000080340f9                spNEAR
                0x0000000008034159                spOFF
                0x00000000080341a7                spOIL
                0x00000000080341fa                spOTHER
                0x0000000008034260                spOUT
                0x00000000080342a9                spUSE2
                0x0000000008034325                spREADYA
                0x000000000803437f                spVERIFY
                0x0000000008034419                spCANCEL
                0x00000000080344a3                spREPAIR
                0x0000000008034526                spRAINA
                0x000000000803457b                spDEGREE
                0x00000000080345e6                spIGNITION
                0x0000000008034677                spKEY
                0x00000000080346b2                spRELEASE
                0x0000000008034726                spSLOW
                0x0000000008034795                spCHECKA
                0x00000000080347ea                spTRAFFIC
                0x0000000008034851                spTURN
                0x000000000803489e                spUSE
                0x00000000080348e9                spWATCH
                0x000000000803492c                spWINDOWS
                0x00000000080349c4                spTARGET
                0x0000000008034a31                spPLAN
                0x0000000008034a9e                spRADAR
                0x0000000008034b1d                spCOURSE
                0x0000000008034b69                spSTARTA
                0x0000000008034bc5                spPLEASE
                0x0000000008034c10                spFINAL
                0x0000000008034c7c                spIMMEDIATELY
                0x0000000008034d35                spNO
                0x0000000008034d8e                spLONG
                0x0000000008034dee                spALL
                0x0000000008034e45                spERROR2
                0x0000000008034ea1                spHAVE
                0x0000000008034ef8                spYOU
                0x0000000008034f32                spADVISE
                0x0000000008034fbc                spDECREASE
                0x0000000008035029                spCHECK
                0x0000000008035060                spPRESSURE
                0x00000000080350cd                spTRUE
                0x0000000008035116                spINFORMATION
                0x00000000080351c0                spGAS
                0x0000000008035218                spPOWER
                0x0000000008035275                spRADIAL
                0x00000000080352e3                spACTION
                0x0000000008035349                spEXPECT
                0x00000000080353b7                spKNOTS
                0x000000000803541f                spSPEED
                0x0000000008035491                spRADIOS
                0x0000000008035534                spTERMINAL
                0x0000000008035622                spZONE
                0x00000000080356a6                spALERT
                0x000000000803570e                spMIG
                0x000000000803577a                spFILED
                0x00000000080357ff                spSELECT
                0x0000000008035866                spR_NAV
                0x0000000008035915                spGUNDISH
                0x0000000008035998                spON
                0x00000000080359fe                spLIGHTS
                0x0000000008035a5d                spOPEN
                0x0000000008035ac1                spGLIDE
                0x0000000008035b45                spWAY
                0x0000000008035b87                spFRONT
                0x0000000008035be2                spLIGHT
                0x0000000008035c39                spVECTORS
                0x0000000008035cb1                spTARGETA
                0x0000000008035d0c                spSECURITY
                0x0000000008035d89                spHERTZ
                0x0000000008035dcf                spROGER
                0x0000000008035e4d                spEMERGENCY
                0x0000000008035f14                spDANGER
                0x0000000008035fa7                spICING
                0x0000000008036018                spWARNING
                0x00000000080360ab                spMAYDAY
                0x0000000008036150                spAFFIRMATIVE
                0x0000000008036204                spZULU
                0x000000000803624d                spXRAY
                0x00000000080362c1                spWHISKEY
                0x000000000803631a                spVICTOR
                0x000000000803638d                spUNIFORM
                0x000000000803640b                spTANGO
                0x0000000008036482                spSIERRA
                0x0000000008036518                spROMEO
                0x0000000008036578                spQUEBEC
                0x00000000080365bf                spPAPA
                0x0000000008036601                spOSCAR
                0x000000000803665e                spNOVEMBER
                0x00000000080366fa                spMIKE
                0x000000000803673c                spLIMA
                0x000000000803677f                spKILO
                0x00000000080367cc                spJULIET
                0x0000000008036832                spINDIA
                0x0000000008036892                spHOTEL
                0x0000000008036908                spGOLF
                0x0000000008036940                spFOXTROT
                0x00000000080369d5                spECHO
                0x0000000008036a17                spDELTA
                0x0000000008036a6a                spCHARLIE
                0x0000000008036acc                spBRAVO
                0x0000000008036b24                spALPHA
                0x0000000008036b88                spOVER
                0x0000000008036bd3                spPERCENT
                0x0000000008036c25                spLOW2
                0x0000000008036c9e                spUNLIMITED
                0x0000000008036d52                spOVERCAST
                0x0000000008036e1e                spTHUNDERSTORM
                0x0000000008036ee2                spLOW
                0x0000000008036f62                spIN
                0x0000000008036faf                spINCREASING_TO
                0x000000000803708b                spSCATTERED
                0x000000000803710c                spHIGH
                0x0000000008037173                spHAZE
                0x00000000080371f2                spFOR
                0x000000000803722c                spAND
                0x0000000008037273                spAIR
                0x00000000080372b3                spFREEZING
                0x000000000803733a                spLESS_THAN
                0x00000000080373c2                spMORE_THAN
                0x0000000008037469                spINCREASING
                0x0000000008037504                spTHINLY
                0x0000000008037562                spTURBULANCE
                0x00000000080375f3                spAT
                0x000000000803762d                spBLOWING
                0x00000000080376a9                spCURRENT
                0x00000000080376f3                spCLEAR
                0x000000000803774e                spALTERNATE
                0x00000000080377d4                spMOVING
                0x0000000008037840                spDECREASING
                0x00000000080378e3                spESTIMATED
                0x0000000008037970                spMIST
                0x00000000080379ed                spMEAN
                0x0000000008037a66                spGREENWICH
                0x0000000008037ad7                spMODERATE
                0x0000000008037b59                spSEVERE
                0x0000000008037bbc                spINDICATED
                0x0000000008037c53                spDRIZZLE
                0x0000000008037cb6                spVISIBILITY
                0x0000000008037d6e                spPARTIALLY
                0x0000000008037de8                spCEILING
                0x0000000008037e51                spALOFT
                0x0000000008037ec8                spBROKEN
                0x0000000008037f27                spOBSCURED
                0x0000000008037fc6                spAERIAL
                0x0000000008038065                spOF
                0x00000000080380a1                spTHIN
                0x00000000080380e1                spLAND
                0x0000000008038151                spHEAVY
                0x0000000008038193                spFOG
                0x0000000008038202                spHEAT
                0x000000000803824a                spICE
                0x00000000080382a8                spRAIN
                0x0000000008038318                spPELLETS
                0x000000000803837a                spSAND
                0x0000000008038409                spSNOW
                0x0000000008038484                spSTORM
                0x0000000008038510                spSMOKE
                0x0000000008038581                spSLEET
                0x00000000080385e8                spSHOWERS
                0x0000000008038673                spWEATHER
                0x00000000080386f0                spWIND
                0x000000000803876e                spTORNADO
                0x0000000008038805                spHAIL
                0x000000000803886f                spSOUTHWEST
                0x0000000008038923                spSOUTHEAST
                0x00000000080389cf                spNORTHWEST
                0x0000000008038a79                spNORTHEAST
                0x0000000008038b32                spNORTH
                0x0000000008038b9f                spSOUTH
                0x0000000008038c00                spWEST
                0x0000000008038c6c                spEAST
                0x0000000008038cd2                spGUST
                0x0000000008038d2a                spGUSTING_TO
                0x0000000008038ddf                spMINUTES
                0x0000000008038e55                spHOUR
                0x0000000008038ebc                spPER
                0x0000000008038f01                spMILES
                0x0000000008038f89                spERROR
                0x0000000008038fe5                spFARENHEIT
                0x0000000008039084                spCELCIUS
                0x0000000008039132                spDEGREES
                0x00000000080391e9                spOCLOCK
                0x0000000008039251                spP_M
                0x0000000008039303                spA_M
                0x00000000080393b5                spTIME
                0x0000000008039420                spTEMPERATURE
                0x00000000080394b3                spREADY
                0x00000000080394f3                spSTOP
                0x000000000803954c                spSTART
                0x00000000080395ae                spANSWER
                0x0000000008039619                spTHE
                0x000000000803963a                spTHEE
                0x000000000803966d                spWHITE
                0x00000000080396b3                spGREEN
                0x0000000008039732                spYELLOW
                0x0000000008039784                spRED
                0x00000000080397fd                spEQUALS
                0x000000000803986b                spMINUS
                0x00000000080398e7                spPLUS
                0x000000000803992c                spHOURS
                0x0000000008039991                spBY
                0x00000000080399ff                spDIVIDED
                0x0000000008039a6f                spTIMES
                0x0000000008039af1                spPOINT
                0x0000000008039b3e                spNEGATIVE
                0x0000000008039bd5                spPATH
                0x0000000008039c38                spMILLION
                0x0000000008039cb2                spTHOUSAND
                0x0000000008039d61                spHUNDRED
                0x0000000008039db8                spNINETY
                0x0000000008039e22                spEIGHTY
                0x0000000008039e74                spSEVENTY
                0x0000000008039ef7                spSIXTY
                0x0000000008039f63                spFIFTY
                0x0000000008039fce                spFOURTY
                0x000000000803a03b                spTHIRTY
                0x000000000803a093                spTWENTY
                0x000000000803a0df                spNINETEEN
                0x000000000803a179                spEIGHTEEN
                0x000000000803a1e9                spSEVENTEEN
                0x000000000803a28c                spSIXTEEN
                0x000000000803a319                spFIFTEEN
                0x000000000803a3a0                spFOURTEEN
                0x000000000803a43e                spTHIRTEEN
                0x000000000803a4c7                spTWELVE
                0x000000000803a510                spELEVEN
                0x000000000803a59b                spTEN
                0x000000000803a5ee                spNINE
                0x000000000803a680                spEIGHT
                0x000000000803a6c3                spSEVEN
                0x000000000803a721                spSIX
                0x000000000803a774                spFIVE
                0x000000000803a7c7                spFOUR
                0x000000000803a811                spTHREE
                0x000000000803a85d                spTWO
                0x000000000803a894                spONE
                0x000000000803a8d7                spZERO
                0x000000000803a924                spZaa
                0x000000000803a989                spYOURaa
                0x000000000803a9e7                spYESaa
                0x000000000803aa28                spYEARaa
                0x000000000803aa9e                spYaa
                0x000000000803ab13                spXaa
                0x000000000803ab6f                spWHICHaa
                0x000000000803abb6                spWHATaa
                0x000000000803ac0a                spWEREaa
                0x000000000803ac62                spWASaa
                0x000000000803acb8                spWANTaa
                0x000000000803ad07                spWaa
                0x000000000803ad6c                spVERYaa
                0x000000000803adc8                spVaa
                0x000000000803ae2d                spUPaa
                0x000000000803ae64                spUHaa
                0x000000000803ae93                spUaa
                0x000000000803af03                spTYPEaa
                0x000000000803af52                spTWELVEaa
                0x000000000803afd1                spTRYaa
                0x000000000803b042                spTIMEaa
                0x000000000803b0b0                spTHISaa
                0x000000000803b11c                spTHIRDaa
                0x000000000803b1a6                spTHENaa
                0x000000000803b200                spTHEaa
                0x000000000803b245                spTHATaa
                0x000000000803b2a0                spTHANKaa
                0x000000000803b2f9                spTENaa
                0x000000000803b35a                spTaa
                0x000000000803b3b1                spSWITCHaa
                0x000000000803b429                spSTOPaa
                0x000000000803b485                spSTARTaa
                0x000000000803b505                spSMALLaa
                0x000000000803b58a                spSECONDaa
                0x000000000803b604                spSCOREaa
                0x000000000803b68a                spSAMEaa
                0x000000000803b6f3                spSaa
                0x000000000803b743                spRUNNINGaa
                0x000000000803b7d1                spRUNaa
                0x000000000803b83d                spRETURNaa
                0x000000000803b8d3                spRESETaa
                0x000000000803b953                spREDaa
                0x000000000803b9cb                spRaa
                0x000000000803ba06                spQaa
                0x000000000803ba5c                spPROGRAMMEaa
                0x000000000803bae5                spPRESSaa
                0x000000000803bb57                spPOUN_aa
                0x000000000803bbc0                spPOSITIVEaa
                0x000000000803bc3e                spPOINTaa
                0x000000000803bc99                spPLUSaa
                0x000000000803bcdf                spPLEASEaa
                0x000000000803bd6a                spPENCEaa
                0x000000000803bdcc                spPARAMETERaa
                0x000000000803be5d                spPaa
                0x000000000803be94                spORaa
                0x000000000803bedc                spONLYaa
                0x000000000803bf46                spONaa
                0x000000000803bfa4                spOLDaa
                0x000000000803c001                spOFFaa
                0x000000000803c04b                spOFaa
                0x000000000803c092                spOCLOCKaa
                0x000000000803c0f7                spOaa
                0x000000000803c13f                spNUMBERaa
                0x000000000803c1ba                spNOWaa
                0x000000000803c22d                spNOTaa
                0x000000000803c287                spNOaa
                0x000000000803c2e7                spNEWaa
                0x000000000803c346                spNEGATIVEaa
                0x000000000803c3e0                spNAMEaa
                0x000000000803c45b                spNaa
                0x000000000803c4b5                spMUSTaa
                0x000000000803c51b                spMOREaa
                0x000000000803c587                spMINUSaa
                0x000000000803c603                spMANYaa
                0x000000000803c657                spMaa
                0x000000000803c6b5                spLINEaa
                0x000000000803c72f                spLASTaa
                0x000000000803c78f                spLARGEaa
                0x000000000803c828                spLaa
                0x000000000803c885                spKEYaa
                0x000000000803c8c3                spKaa
                0x000000000803c91c                spJaa
                0x000000000803c97e                spISaa
                0x000000000803c9cd                spINPUTaa
                0x000000000803ca28                spIN_aa
                0x000000000803ca67                spILLEGALaa
                0x000000000803cae6                spIaa
                0x000000000803cb58                spHAVEaa
                0x000000000803cbc4                spHaa
                0x000000000803cc1b                spGOODaa
                0x000000000803cc5b                spGaa
                0x000000000803ccb9                spFROMaa
                0x000000000803cd13                spFOUNDaa
                0x000000000803cd8e                spFIRSTaa
                0x000000000803ce06                spFILEaa
                0x000000000803ce79                spFEWaa
                0x000000000803cec7                spFaa
                0x000000000803cf08                spESCAPEaa
                0x000000000803cf7a                spERRORaa
                0x000000000803cfc8                spENTERaa
                0x000000000803d02a                spENGAGEDaa
                0x000000000803d0d2                spELEVENaa
                0x000000000803d14e                spEACHaa
                0x000000000803d199                spEaa
                0x000000000803d1ca                spDOWNaa
                0x000000000803d24d                spDONTaa
                0x000000000803d2a6                spDOLLARaa
                0x000000000803d2fa                spDOaa
                0x000000000803d33e                spDATEaa
                0x000000000803d385                spDATAaa
                0x000000000803d3e9                spDaa
                0x000000000803d434                spCORRECTaa
                0x000000000803d4a1                spCOMPUTERaa
                0x000000000803d519                spCOMPLETEaa
                0x000000000803d585                spCHARACTERaa
                0x000000000803d5fe                spCASSETTEaa
                0x000000000803d673                spCaa
                0x000000000803d6d7                spBUTTONaa
                0x000000000803d72c                spBOTHaa
                0x000000000803d773                spBETWEENaa
                0x000000000803d7e9                spBADaa
                0x000000000803d867                spBaa
                0x000000000803d8bf                spAVAILABLEaa
                0x000000000803d955                spANYaa
                0x000000000803d9b2                spANSWERaa
                0x000000000803da27                spANOTHERaa
                0x000000000803da96                spANDaa
                0x000000000803db12                spANaa
                0x000000000803db67                spAMOUNTaa
                0x000000000803dbde                spAGAINaa
                0x000000000803dc71                spAFTERaa
                0x000000000803dcd9                spACORNaa
                0x000000000803dd6e                spAaa
                0x000000000803ddc7                spNINE_aa
                0x000000000803de27                spNINEaa
                0x000000000803deb3                spEIGH_aa
                0x000000000803dede                spEIGHTaa
                0x000000000803df12                spSEVEN_aa
                0x000000000803df59                spSEVENaa
                0x000000000803dfb6                spSIX_aa
                0x000000000803dfee                spSIXaa
                0x000000000803e03b                spFIF_aa
                0x000000000803e06e                spFIVEaa
                0x000000000803e0e4                spFOUR_aa
                0x000000000803e12d                spFOURaa
                0x000000000803e19c                spTHIR_aa
                0x000000000803e1e5                spTHREEaa
                0x000000000803e252                spTWEN_aa
                0x000000000803e292                spTWOaa
                0x000000000803e2f1                spONEaa
                0x000000000803e35a                spTHOUSANDaa
                0x000000000803e3f4                spHUNDREDaa
                0x000000000803e45c                spZEROaa
                0x000000000803e4ed                sp_Zaa
                0x000000000803e50f                sp_Taa
                0x000000000803e531                sp_THaa
                0x000000000803e548                sp_TEENaa
                0x000000000803e5a0                sp_Saa
                0x000000000803e5c3                sp_INGaa
                0x000000000803e5f9                sp_EDaa
                0x000000000803e624                sp_Daa
                0x000000000803e63b                spTONE2aa
                0x000000000803e674                spTONE1aa
                0x000000000803e6b2                spPAUSE2aa
                0x000000000803e6c5                spPAUSE1aa
                0x000000000803e6d4                spZEROti
                0x000000000803e71a                spZti
                0x000000000803e755                spYOURti
                0x000000000803e7a1                spYOU_WINti
                0x000000000803e813                spYOUti
                0x000000000803e849                spYETti
                0x000000000803e88b                spYESti
                0x000000000803e8cc                spYELLOWti
                0x000000000803e92c                spYti
                0x000000000803e972                spXti
                0x000000000803e997                spWRITEti
                0x000000000803e9ec                spWORKINGti
                0x000000000803ea68                spWORKti
                0x000000000803eaaf                spWORDSti
                0x000000000803eb1a                spWORDti
                0x000000000803eb79                spWONti
                0x000000000803ebcc                spWITHti
                0x000000000803ec0c                spWILLti
                0x000000000803ec66                spWHYti
                0x000000000803ecc3                spWHOti
                0x000000000803ed0e                spWHITEti
                0x000000000803ed53                spWHICHti
                0x000000000803ed83                spWHEREti
                0x000000000803edcc                spWHENti
                0x000000000803ee02                spWHAT_WAS_THATti
                0x000000000803ee8e                spWHATti
                0x000000000803eebb                spWEREti
                0x000000000803ef1b                spWELLti
                0x000000000803ef60                spWEIGHTti
                0x000000000803efa2                spWEIGHti
                0x000000000803f009                spWEti
                0x000000000803f03c                spWAYti
                0x000000000803f0a3                spWANTSti
                0x000000000803f0ff                spWANTti
                0x000000000803f141                spWAITti
                0x000000000803f183                spWti
                0x000000000803f200                spVERYti
                0x000000000803f246                spVARYti
                0x000000000803f299                spVti
                0x000000000803f2d7                spUSEti
                0x000000000803f31d                spUPPERti
                0x000000000803f35d                spUPti
                0x000000000803f381                spUNTILti
                0x000000000803f3f1                spUNDERSTANDti
                0x000000000803f483                spUNDERti
                0x000000000803f4db                spUHOHti
                0x000000000803f52c                spUti
                0x000000000803f562                spTYPEti
                0x000000000803f5b0                spTWOti
                0x000000000803f5ee                spTWENTYti
                0x000000000803f645                spTWELVEti
                0x000000000803f690                spTURNti
                0x000000000803f6cc                spTRY_AGAINti
                0x000000000803f74f                spTRYti
                0x000000000803f7a3                spTOPti
                0x000000000803f7d1                spTOOti
                0x000000000803f80f                spTONEti
                0x000000000803f87d                spTOGETHERti
                0x000000000803f8ec                spTOti
                0x000000000803f92a                spTIMEti
                0x000000000803f971                spTHROUGHti
                0x000000000803f9b4                spTHREWti
                0x000000000803f9f7                spTHREEti
                0x000000000803fa44                spTHISti
                0x000000000803fa8c                spTHIRTYti
                0x000000000803fac8                spTHIRTEENti
                0x000000000803fb59                spTHIRDti
                0x000000000803fbae                spTHINKti
                0x000000000803fbf7                spTHINGSti
                0x000000000803fc5b                spTHINGti
                0x000000000803fcca                spTHEYti
                0x000000000803fd23                spTHESEti
                0x000000000803fd8c                spTHEREti
                0x000000000803fdf8                spTHENti
                0x000000000803fe89                spTHEIRti
                0x000000000803fef5                spTHE1ti
                0x000000000803ff20                spTHEti
                0x000000000803ff62                spTHAT_IS_RIGHTti
                0x000000000803ffd8                spTHAT_IS_INCORRECTti
                0x00000000080400c0                spTHATti
                0x0000000008040120                spTHANti
                0x000000000804017b                spTEXAS_INSTRUMENTSti
                0x0000000008040240                spTENti
                0x0000000008040288                spTELLti
                0x00000000080402d3                spTEENti
                0x0000000008040317                spTAKEti
                0x000000000804034b                spTti
                0x0000000008040385                spSUREti
                0x00000000080403e2                spSUPPOSED_TOti
                0x000000000804044d                spSUPPOSEDti
                0x00000000080404b3                spSUMti
                0x00000000080404e2                spSTOPti
                0x000000000804050e                spSTEPti
                0x0000000008040540                spSTARTti
                0x0000000008040589                spSQUAREti
                0x00000000080405d2                spSPELLti
                0x0000000008040639                spSPACESti
                0x00000000080406a8                spSPACEti
                0x00000000080406df                spSORRYti
                0x000000000804073f                spSOMEti
                0x000000000804076e                spSOti
                0x00000000080407b2                spSMALLESTti
                0x0000000008040814                spSMALLERti
                0x0000000008040857                spSMALLti
                0x0000000008040895                spSIXTYti
                0x00000000080408eb                spSIXti
                0x000000000804092b                spSIDESti
                0x000000000804097d                spSIDEti
                0x00000000080409d8                spSHOULDti
                0x0000000008040a21                spSHORTERti
                0x0000000008040aa0                spSHORTti
                0x0000000008040ae9                spSHIFTti
                0x0000000008040b1e                spSHAPESti
                0x0000000008040b67                spSHAPEti
                0x0000000008040ba0                spSEVENTYti
                0x0000000008040bf5                spSEVENti
                0x0000000008040c44                spSETti
                0x0000000008040c79                spSEESti
                0x0000000008040cd5                spSEEti
                0x0000000008040d28                spSECONDti
                0x0000000008040d8c                spSCREENti
                0x0000000008040dec                spSAYSti
                0x0000000008040e45                spSAYti
                0x0000000008040e82                spSAVEti
                0x0000000008040ef8                spSAIDti
                0x0000000008040f46                spSti
                0x0000000008040f8d                spROUNDti
                0x0000000008041025                spRIGHTti
                0x000000000804107a                spREWINDti
                0x0000000008041102                spRETURNti
                0x000000000804116d                spREMEMBERti
                0x00000000080411db                spREFERti
                0x000000000804123b                spREDti
                0x000000000804127b                spRECORDERti
                0x00000000080412f7                spREADY_TO_STARTti
                0x0000000008041389                spREAD1ti
                0x00000000080413c9                spREADti
                0x000000000804142a                spRANDOMLYti
                0x00000000080414dc                spRti
                0x000000000804150e                spQti
                0x000000000804155c                spPUTTINGti
                0x00000000080415d2                spPUTti
                0x0000000008041605                spPROGRAMti
                0x000000000804168e                spPROBLEMSti
                0x000000000804171c                spPROBLEMti
                0x0000000008041783                spPRINTERti
                0x00000000080417d2                spPRINTti
                0x000000000804180f                spPRESSti
                0x000000000804184b                spPOSITIVEti
                0x00000000080418c9                spPOSITIONti
                0x0000000008041934                spPOINTti
                0x0000000008041990                spPLEASEti
                0x00000000080419e9                spPLAYSti
                0x0000000008041a4f                spPLAYti
                0x0000000008041a97                spPERIODti
                0x0000000008041afb                spPARTSti
                0x0000000008041b4b                spPARTNERti
                0x0000000008041b9c                spPARTti
                0x0000000008041bdd                spPti
                0x0000000008041c16                spOVERti
                0x0000000008041c72                spOUTti
                0x0000000008041ca8                spOTHERti
                0x0000000008041cf2                spORDERti
                0x0000000008041d48                spORti
                0x0000000008041da0                spONLYti
                0x0000000008041df1                spONEti
                0x0000000008041e44                spONti
                0x0000000008041e8e                spOHti
                0x0000000008041ecb                spOFFti
                0x0000000008041ef9                spOFti
                0x0000000008041f52                spOti
                0x0000000008041f8f                spNUMBERti
                0x0000000008041fec                spNOWti
                0x0000000008042032                spNOTti
                0x0000000008042061                spNOti
                0x00000000080420a1                spNINETYti
                0x00000000080420fe                spNINEti
                0x000000000804217e                spNICE_TRYti
                0x0000000008042227                spNEXTti
                0x0000000008042273                spNEGATIVEti
                0x00000000080422f0                spNEEDti
                0x000000000804234c                spNEARti
                0x0000000008042399                spNAMEti
                0x000000000804240c                spNti
                0x0000000008042446                spMUSTti
                0x000000000804248f                spMOVEti
                0x00000000080424ed                spMOSTti
                0x0000000008042539                spMOREti
                0x000000000804258a                spMODULEti
                0x00000000080425ed                spMIGHTti
                0x0000000008042639                spMIDDLEti
                0x000000000804267b                spMESSAGESti
                0x00000000080426f5                spMESSAGEti
                0x0000000008042760                spMEMORYti
                0x00000000080427c7                spMEANti
                0x000000000804280f                spMEti
                0x000000000804284f                spMAKEti
                0x000000000804289e                spMAGENTAti
                0x000000000804291e                spMADEti
                0x0000000008042965                spMti
                0x0000000008042999                spLOWERti
                0x00000000080429e5                spLOOKSti
                0x0000000008042a3b                spLOOKti
                0x0000000008042a8f                spLONGti
                0x0000000008042af9                spLOADti
                0x0000000008042b81                spLINEti
                0x0000000008042bf7                spLIKESti
                0x0000000008042c62                spLIKEti
                0x0000000008042c9d                spLETti
                0x0000000008042cc4                spLESSti
                0x0000000008042d1a                spLEFTti
                0x0000000008042d54                spLEARNti
                0x0000000008042dae                spLASTti
                0x0000000008042dee                spLARGESTti
                0x0000000008042e65                spLARGERti
                0x0000000008042eb3                spLARGEti
                0x0000000008042efc                spLti
                0x0000000008042f3d                spKNOWti
                0x0000000008042f7d                spKEYBOARDti
                0x0000000008042fe3                spKEYti
                0x0000000008043013                spKti
                0x0000000008043042                spJUSTti
                0x0000000008043080                spJOYSTICKti
                0x00000000080430df                spJti
                0x000000000804311e                spITti
                0x0000000008043152                spISti
                0x000000000804319a                spINSTRUCTIONSti
                0x000000000804320f                spINSTRUCTIONti
                0x0000000008043281                spINCHESti
                0x00000000080432d2                spINCHti
                0x0000000008043317                spINti
                0x000000000804335a                spIFti
                0x000000000804337c                spI_WINti
                0x00000000080433fd                spIti
                0x0000000008043439                spHURRYti
                0x0000000008043475                spHUNDREDti
                0x00000000080434dd                spHOWti
                0x0000000008043543                spHOMEti
                0x000000000804358e                spHITti
                0x00000000080435c2                spHIGHERti
                0x000000000804361e                spHEREti
                0x0000000008043653                spHELPti
                0x0000000008043690                spHELLOti
                0x00000000080436e7                spHEARti
                0x000000000804371c                spHEADti
                0x0000000008043775                spHAVEti
                0x00000000080437b7                spHASti
                0x00000000080437fc                spHANDHELD_UNITti
                0x0000000008043882                spHANDti
                0x00000000080438c8                spHADti
                0x0000000008043912                spHti
                0x0000000008043941                spGUESSti
                0x0000000008043983                spGREENti
                0x00000000080439e4                spGRAYti
                0x0000000008043a30                spGOTti
                0x0000000008043a61                spGOODBYEti
                0x0000000008043ab9                spGOOD_WORKti
                0x0000000008043b07                spGOODti
                0x0000000008043b2b                spGOINGti
                0x0000000008043b88                spGOESti
                0x0000000008043bd0                spGOti
                0x0000000008043c05                spGIVESti
                0x0000000008043c74                spGIVEti
                0x0000000008043cc9                spGETTINGti
                0x0000000008043d47                spGETti
                0x0000000008043d75                spGAMESti
                0x0000000008043dd9                spGti
                0x0000000008043e16                spFRONTti
                0x0000000008043e45                spFROMti
                0x0000000008043e8d                spFOURTHti
                0x0000000008043ee8                spFOURTEENti
                0x0000000008043f82                spFOURti
                0x0000000008043fcc                spFORTYti
                0x000000000804400d                spFORti
                0x0000000008044057                spFIVEti
                0x00000000080440ce                spFITti
                0x00000000080440f8                spFIRSTti
                0x0000000008044135                spFINISHEDti
                0x0000000008044178                spFINISHti
                0x00000000080441b1                spFINEti
                0x00000000080441ee                spFINDti
                0x0000000008044235                spFIGUREti
                0x00000000080442ac                spFIFTYti
                0x00000000080442ef                spFIFTEENti
                0x000000000804434a                spFti
                0x000000000804436d                spEYEti
                0x00000000080443a9                spEXACTLYti
                0x0000000008044411                spERRORti
                0x0000000008044459                spENTERti
                0x000000000804449b                spENDSti
                0x00000000080444e2                spENDti
                0x0000000008044553                spELSEti
                0x0000000008044592                spELEVENti
                0x00000000080445ef                spEIGHTYti
                0x0000000008044625                spEIGHTti
                0x0000000008044652                spEACHti
                0x0000000008044685                spEti
                0x00000000080446aa                spDRAWINGti
                0x000000000804470d                spDRAWti
                0x0000000008044763                spDOWNti
                0x00000000080447a2                spDOUBLEti
                0x00000000080447dc                spDONEti
                0x0000000008044837                spDOINGti
                0x000000000804488b                spDOESti
                0x00000000080448c2                spDOti
                0x00000000080448f5                spDISKETTEti
                0x0000000008044948                spDIFFERENTti
                0x00000000080449b1                spDIDti
                0x0000000008044a0f                spDEVICEti
                0x0000000008044a78                spDECIDEti
                0x0000000008044ae1                spDATAti
                0x0000000008044b39                spDti
                0x0000000008044b72                spCYANti
                0x0000000008044bb5                spCOURSEti
                0x0000000008044bf3                spCORRECTti
                0x0000000008044c39                spCONSOLEti
                0x0000000008044c82                spCONNECTEDti
                0x0000000008044cea                spCOMPUTERti
                0x0000000008044d41                spCOMPLETEDti
                0x0000000008044da8                spCOMPLETEti
                0x0000000008044e04                spCOMMANDti
                0x0000000008044e5b                spCOMMAti
                0x0000000008044e97                spCOMESti
                0x0000000008044eee                spCOMEti
                0x0000000008044f21                spCOLORti
                0x0000000008044f55                spCLEARti
                0x0000000008044f8f                spCHOICEti
                0x0000000008044fd3                spCHECKti
                0x0000000008044ff3                spCENTERti
                0x000000000804502e                spCASSETTEti
                0x0000000008045065                spCANti
                0x000000000804509c                spCti
                0x00000000080450ef                spBYEti
                0x000000000804512d                spBYti
                0x000000000804516b                spBUYti
                0x00000000080451a9                spBUTti
                0x00000000080451d1                spBOTTOMti
                0x0000000008045207                spBOTHti
                0x000000000804523b                spBLUEti
                0x0000000008045267                spBLACKti
                0x00000000080452aa                spBETWEENti
                0x0000000008045313                spBEti
                0x0000000008045335                spBASEti
                0x0000000008045384                spBACKti
                0x00000000080453af                spBti
                0x00000000080453d1                spATti
                0x00000000080453ee                spASSUMEti
                0x000000000804542b                spASti
                0x000000000804546c                spAREti
                0x000000000804549e                spANYti
                0x00000000080454e3                spANSWERti
                0x0000000008045532                spANDti
                0x0000000008045599                spANti
                0x00000000080455cf                spAMti
                0x0000000008045615                spALLti
                0x000000000804563e                spAGAINti
                0x00000000080456a0                spAFTERti
                0x00000000080456dc                spABOUTti
                0x0000000008045731                spA1ti
                0x0000000008045745                spAti
                0x0000000008045761                sp_mpf31
                0x00000000080457e2                sp_mpf30
                0x0000000008045851                sp_mpf29
                0x0000000008045875                sp_mpf28
                0x00000000080458bb                sp_mpf27
                0x00000000080458ed                sp_mpf26
                0x0000000008045917                sp_mpf25
                0x0000000008045994                sp_mpf24
                0x00000000080459fb                sp_mpf23
                0x0000000008045a44                sp_mpf22
                0x0000000008045ac5                sp_mpf21
                0x0000000008045b56                sp_mpf20
                0x0000000008045bbd                sp_mpf19
                0x0000000008045c31                sp_mpf18
                0x0000000008045c74                sp_mpf17
                0x0000000008045cb5                sp_mpf16
                0x0000000008045d10                sp_mpf15
                0x0000000008045da8                sp_mpf14
                0x0000000008045e05                sp_mpf13
                0x0000000008045e50                sp_mpf12
                0x0000000008045ea7                sp_mpf11
                0x0000000008045ee3                sp_mpf10
                0x0000000008045f74                sp_mpf9
                0x0000000008045fc3                sp_mpf8
                0x0000000008046009                sp_mpf7
                0x0000000008046089                sp_mpf6
                0x00000000080460b6                sp_mpf5
                0x0000000008046105                sp_mpf4
                0x000000000804617e                sp_mpf3
                0x00000000080461bc                sp_mpf2
                0x0000000008046204                sp_mpf1
                0x0000000008046242                sp_mpf0
                0x0000000008046295                sp_D003_199
                0x0000000008046304                sp_D003_198
                0x00000000080463ae                sp_D003_197
                0x0000000008046456                sp_D003_196
                0x00000000080464f4                sp_D003_195
                0x0000000008046567                sp_D003_194
                0x00000000080465bb                sp_D003_193
                0x000000000804660a                sp_D003_192
                0x0000000008046659                sp_D003_191
                0x0000000008046701                sp_D003_190
                0x0000000008046786                sp_D003_189
                0x00000000080467f2                sp_D003_188
                0x0000000008046883                sp_D003_187
                0x000000000804692a                sp_D003_186
                0x000000000804696f                sp_D003_185
                0x00000000080469fa                sp_D003_184
                0x0000000008046a8f                sp_D003_183
                0x0000000008046b37                sp_D003_182
                0x0000000008046c0e                sp_D003_181
                0x0000000008046ce6                sp_D003_180
                0x0000000008046ded                sp_D003_179
                0x0000000008046ecc                sp_D003_178
                0x0000000008046f72                sp_D003_177
                0x0000000008046fd3                sp_D003_176
                0x0000000008047020                sp_D003_175
                0x00000000080470e2                sp_D003_174
                0x000000000804713c                sp_D003_173
                0x0000000008047252                sp_D003_172
                0x00000000080472d9                sp_D003_171
                0x00000000080473a2                sp_D003_170
                0x0000000008047491                sp_D003_169
                0x0000000008047534                sp_D003_168
                0x00000000080475c0                sp_D003_167
                0x000000000804768c                sp_D003_166
                0x0000000008047731                sp_D003_165
                0x00000000080477d6                sp_D003_164
                0x0000000008047862                sp_D003_163
                0x00000000080478cd                sp_D003_162
                0x0000000008047951                sp_D003_161
                0x00000000080479e4                sp_D003_160
                0x0000000008047a28                sp_D003_159
                0x0000000008047aca                sp_D003_158
                0x0000000008047b4b                sp_D003_157
                0x0000000008047bfd                sp_D003_156
                0x0000000008047c80                sp_D003_155
                0x0000000008047d13                sp_D003_154
                0x0000000008047dc6                sp_D003_153
                0x0000000008047e56                sp_D003_152
                0x0000000008047ed9                sp_D003_151
                0x0000000008047f44                sp_D003_150
                0x0000000008047fd3                sp_D003_149
                0x0000000008048068                sp_D003_148
                0x0000000008048102                sp_D003_147
                0x000000000804818b                sp_D003_146
                0x0000000008048271                sp_D003_145
                0x0000000008048304                sp_D003_144
                0x00000000080483a0                sp_D003_143
                0x000000000804841f                sp_D003_142
                0x00000000080484b1                sp_D003_141
                0x000000000804854f                sp_D003_140
                0x000000000804860b                sp_D003_139
                0x000000000804866c                sp_D003_138
                0x00000000080486ff                sp_D003_137
                0x0000000008048751                sp_D003_136
                0x0000000008048791                sp_D003_135
                0x000000000804881f                sp_D003_134
                0x000000000804889b                sp_D003_133
                0x0000000008048955                sp_D003_132
                0x00000000080489fc                sp_D003_131
                0x0000000008048a78                sp_D003_130
                0x0000000008048b2c                sp_D003_129
                0x0000000008048bdf                sp_D003_128
                0x0000000008048c2d                sp_D003_127
                0x0000000008048cd8                sp_D003_126
                0x0000000008048d91                sp_D003_125
                0x0000000008048e13                sp_D003_124
                0x0000000008048e9b                sp_D003_123
                0x0000000008048f36                sp_D003_122
                0x0000000008048fc4                sp_D003_121
                0x000000000804905f                sp_D003_120
                0x00000000080490fa                sp_D003_119
                0x0000000008049193                sp_D003_118
                0x00000000080491f4                sp_D003_117
                0x000000000804929f                sp_D003_116
                0x0000000008049353                sp_D003_115
                0x00000000080493f4                sp_D003_114
                0x0000000008049479                sp_D003_113
                0x00000000080494ef                sp_D003_112
                0x0000000008049552                sp_D003_111
                0x00000000080495aa                sp_D003_110
                0x0000000008049620                sp_D003_109
                0x0000000008049698                sp_D003_108
                0x00000000080496f4                sp_D003_107
                0x00000000080497a9                sp_D003_106
                0x0000000008049825                sp_D003_105
                0x00000000080498a4                sp_D003_104
                0x0000000008049925                sp_D003_103
                0x0000000008049993                sp_D003_102
                0x0000000008049a44                sp_D003_101
                0x0000000008049a92                sp_D003_100
                0x0000000008049ae2                sp_D003_99
                0x0000000008049b3e                sp_D003_98
                0x0000000008049bbc                sp_D003_97
                0x0000000008049c24                sp_D003_96
                0x0000000008049c85                sp_D003_92
                0x0000000008049d2a                sp_D003_91
                0x0000000008049d98                sp_D003_90
                0x0000000008049e23                sp_D003_89
                0x0000000008049ec9                sp_D003_88
                0x0000000008049f3b                sp_D003_87
                0x0000000008049f98                sp_D003_86
                0x000000000804a021                sp_D003_85
                0x000000000804a092                sp_D003_84
                0x000000000804a110                sp_D003_83
                0x000000000804a148                sp_D003_82
                0x000000000804a1c4                sp_D003_81
                0x000000000804a244                sp_D003_80
                0x000000000804a2d6                sp_D003_79
                0x000000000804a331                sp_D003_78
                0x000000000804a3b7                sp_D003_77
                0x000000000804a423                sp_D003_76
                0x000000000804a4a4                sp_D003_75
                0x000000000804a501                sp_D003_74
                0x000000000804a584                sp_D003_73
                0x000000000804a604                sp_D003_72
                0x000000000804a673                sp_D003_71
                0x000000000804a6f1                sp_D003_70
                0x000000000804a77e                sp_D003_69
                0x000000000804a7ee                sp_D003_68
                0x000000000804a858                sp_D003_67
                0x000000000804a8a1                sp_D003_66
                0x000000000804a927                sp_D003_65
                0x000000000804a983                sp_D003_64
                0x000000000804a9e7                sp_D003_63
                0x000000000804aa56                sp_D003_62
                0x000000000804aad9                sp_D003_61
                0x000000000804ab77                sp_D003_60
                0x000000000804abc1                sp_D003_59
                0x000000000804ac20                sp_D003_58
                0x000000000804ac87                sp_D003_57
                0x000000000804acf0                sp_D003_56
                0x000000000804ad7a                sp_D003_55
                0x000000000804ae16                sp_D003_54
                0x000000000804ae72                sp_D003_53
                0x000000000804af20                sp_D003_52
                0x000000000804af9f                sp_D003_51
                0x000000000804b00d                sp_D003_50
                0x000000000804b08e                sp_D003_49
                0x000000000804b0fc                sp_D003_48
                0x000000000804b17a                sp_D003_47
                0x000000000804b217                sp_D003_46
                0x000000000804b289                sp_D003_45
                0x000000000804b2d4                sp_D003_44
                0x000000000804b36d                sp_D003_43
                0x000000000804b401                sp_D003_42
                0x000000000804b48c                sp_D003_41
                0x000000000804b548                sp_D003_40
                0x000000000804b5f7                sp_D003_39
                0x000000000804b693                sp_D003_38
                0x000000000804b720                sp_D003_37
                0x000000000804b75f                sp_D003_36
                0x000000000804b7b6                sp_D003_35
                0x000000000804b840                sp_D003_34
                0x000000000804b871                sp_D003_33
                0x000000000804b912                sp_D003_32
                0x000000000804b9f5                sp_D003_31
                0x000000000804baaf                sp_D003_30
                0x000000000804bb2a                sp_D003_29
                0x000000000804bb9b                sp_D003_28
                0x000000000804bbee                sp_D003_27
                0x000000000804bc60                sp_D003_26
                0x000000000804bcfc                sp_D003_25
                0x000000000804bd7b                sp_D003_24
                0x000000000804bdd2                sp_D003_23
                0x000000000804be69                sp_D003_22
                0x000000000804bebf                sp_D003_21
                0x000000000804bf33                sp_D003_20
                0x000000000804bfab                sp_D003_19
                0x000000000804c01f                sp_D003_18
                0x000000000804c09b                sp_D003_17
                0x000000000804c13f                sp_D003_16
                0x000000000804c191                sp_D003_15
                0x000000000804c1d6                sp_D003_14
                0x000000000804c23a                sp_D003_13
                0x000000000804c2b5                sp_D003_12
                0x000000000804c351                sp_D003_11
                0x000000000804c3b1                sp_D003_10
                0x000000000804c40c                sp_D003_9
                0x000000000804c47a                sp_D003_8
                0x000000000804c4df                sp_D003_7
                0x000000000804c588                sp_D003_6
                0x000000000804c5ce                sp_D003_5
                0x000000000804c641                sp_D003_4
                0x000000000804c6d0                sp_D003_3
                0x000000000804c72a                sp_D003_2
                0x000000000804c7d2                sp_D003_1
                0x000000000804c878                sp_D003_01
                0x000000000804c8e4                sp_D003_0
                0x000000000804c932                sp_ffD034nn1
                0x000000000804c9c5                sp_ffD034nn0
                0x000000000804ca62                sp_ffD033nn6
                0x000000000804cb4b                sp_ffD033nn5
                0x000000000804ccd3                sp_ffD033nn4
                0x000000000804cdd3                sp_ffD033nn3
                0x000000000804cf2d                sp_ffD033nn2
                0x000000000804d02c                sp_ffD033nn1
                0x000000000804d143                sp_ffD033nn0
                0x000000000804d2fc                sp_ffD032nn16
                0x000000000804d3bf                sp_ffD032nn15
                0x000000000804d4a9                sp_ffD032nn14
                0x000000000804d58e                sp_ffD032nn13
                0x000000000804d66b                sp_ffD032nn12
                0x000000000804d6f5                sp_ffD032nn11
                0x000000000804d7cd                sp_ffD032nn10
                0x000000000804d872                sp_ffD032nn9
                0x000000000804d959                sp_ffD032nn8
                0x000000000804d9eb                sp_ffD032nn7
                0x000000000804da86                sp_ffD032nn6
                0x000000000804db0c                sp_ffD032nn5
                0x000000000804db80                sp_ffD032nn4
                0x000000000804dc15                sp_ffD032nn3
                0x000000000804dcb6                sp_ffD032nn2
                0x000000000804dd7c                sp_ffD032nn1
                0x000000000804ded7                sp_ffD032nn0
                0x000000000804e0e0                sp_ffD031nn9
                0x000000000804e2a4                sp_ffD031nn8
                0x000000000804e4d5                sp_ffD031nn7
                0x000000000804e6d5                sp_ffD031nn6
                0x000000000804e8e2                sp_ffD031nn5
                0x000000000804ea65                sp_ffD031nn4
                0x000000000804eb80                sp_ffD031nn3
                0x000000000804eca0                sp_ffD031nn2
                0x000000000804edd7                sp_ffD031nn1
                0x000000000804eef2                sp_ffD031nn0
                0x000000000804f020                sp_ffD030nn7
                0x000000000804f0bc                sp_ffD030nn6
                0x000000000804f233                sp_ffD030nn5
                0x000000000804f338                sp_ffD030nn4
                0x000000000804f418                sp_ffD030nn3
                0x000000000804f50b                sp_ffD030nn2
                0x000000000804f5c0                sp_ffD030nn1
                0x000000000804f73d                sp_ffD030nn0
                0x000000000804f85c                sp_ffD029nn2
                0x000000000804fa6b                sp_ffD029nn1
                0x000000000804fc17                sp_ffD029nn0
                0x000000000804fd96                sp_ffD028nn5
                0x000000000804fe61                sp_ffD028nn4
                0x000000000804ff49                sp_ffD028nn3
                0x000000000804fffc                sp_ffD028nn2
                0x0000000008050104                sp_ffD028nn1
                0x00000000080501e9                sp_ffD028nn0
                0x00000000080502c1                sp_ffD027nn7
                0x0000000008050398                sp_ffD027nn6
                0x000000000805052e                sp_ffD027nn5
                0x00000000080506f1                sp_ffD027nn4
                0x00000000080507c8                sp_ffD027nn3
                0x000000000805086e                sp_ffD027nn2
                0x000000000805093a                sp_ffD027nn1
                0x0000000008050a46                sp_ffD027nn0
                0x0000000008050b10                sp_ffD026nn38
                0x0000000008050c9b                sp_ffD026nn37
                0x0000000008050df0                sp_ffD026nn36
                0x0000000008050eda                sp_ffD026nn35
                0x0000000008051025                sp_ffD026nn34
                0x000000000805118d                sp_ffD026nn33
                0x00000000080512b4                sp_ffD026nn32
                0x00000000080513c2                sp_ffD026nn31
                0x000000000805148e                sp_ffD026nn30
                0x00000000080515d1                sp_ffD026nn29
                0x000000000805165b                sp_ffD026nn28
                0x000000000805177c                sp_ffD026nn27
                0x000000000805187d                sp_ffD026nn26
                0x000000000805195e                sp_ffD026nn25
                0x0000000008051a77                sp_ffD026nn24
                0x0000000008051b5e                sp_ffD026nn23
                0x0000000008051c4c                sp_ffD026nn22
                0x0000000008052029                sp_ffD026nn21
                0x00000000080520d8                sp_ffD026nn20
                0x0000000008052175                sp_ffD026nn19
                0x00000000080522a6                sp_ffD026nn18
                0x000000000805234f                sp_ffD026nn17
                0x0000000008052481                sp_ffD026nn16
                0x00000000080525b6                sp_ffD026nn15
                0x00000000080526ef                sp_ffD026nn14
                0x00000000080527a0                sp_ffD026nn13
                0x000000000805285a                sp_ffD026nn12
                0x000000000805290f                sp_ffD026nn11
                0x00000000080529d1                sp_ffD026nn10
                0x0000000008052b44                sp_ffD026nn9
                0x0000000008052bf2                sp_ffD026nn8
                0x0000000008052d1b                sp_ffD026nn7
                0x0000000008052e2a                sp_ffD026nn6
                0x0000000008052f0e                sp_ffD026nn5
                0x0000000008052fa0                sp_ffD026nn4
                0x000000000805304b                sp_ffD026nn3
                0x00000000080531e6                sp_ffD026nn2
                0x00000000080533be                sp_ffD026nn1
                0x000000000805351e                sp_ffD026nn0
                0x0000000008053665                sp_ffD024nn37
                0x0000000008053745                sp_ffD024nn36
                0x00000000080537e8                sp_ffD024nn35
                0x0000000008053861                sp_ffD024nn34
                0x00000000080538d5                sp_ffD024nn33
                0x00000000080539e3                sp_ffD024nn32
                0x0000000008053a26                sp_ffD024nn31
                0x0000000008053a85                sp_ffD024nn30
                0x0000000008053b5a                sp_ffD024nn29
                0x0000000008053bd4                sp_ffD024nn28
                0x0000000008053c0e                sp_ffD024nn27
                0x0000000008053c3a                sp_ffD024nn26
                0x0000000008053cc3                sp_ffD024nn25
                0x0000000008053cf7                sp_ffD024nn24
                0x0000000008053d8e                sp_ffD024nn23
                0x0000000008053dd9                sp_ffD024nn22
                0x0000000008053e20                sp_ffD024nn21
                0x0000000008053e79                sp_ffD024nn20
                0x0000000008053e87                sp_ffD024nn19
                0x0000000008053e93                sp_ffD024nn18
                0x0000000008053ef6                sp_ffD024nn17
                0x0000000008053f42                sp_ffD024nn16
                0x0000000008053f6d                sp_ffD024nn15
                0x0000000008053f81                sp_ffD024nn14
                0x0000000008053fcb                sp_ffD024nn13
                0x0000000008053fff                sp_ffD024nn12
                0x000000000805406b                sp_ffD024nn11
                0x00000000080540ca                sp_ffD024nn10
                0x000000000805412f                sp_ffD024nn9
                0x0000000008054154                sp_ffD024nn8
                0x000000000805417b                sp_ffD024nn7
                0x00000000080541f9                sp_ffD024nn6
                0x00000000080542a1                sp_ffD024nn5
                0x0000000008054372                sp_ffD024nn4
                0x00000000080543fd                sp_ffD024nn3
                0x0000000008054471                sp_ffD024nn2
                0x000000000805450a                sp_ffD024nn1
                0x00000000080545c0                sp_ffD024nn0
                0x0000000008054661                sp_ffD025nn37
                0x000000000805473d                sp_ffD025nn36
                0x00000000080547f8                sp_ffD025nn35
                0x0000000008054869                sp_ffD025nn34
                0x0000000008054900                sp_ffD025nn33
                0x00000000080549bd                sp_ffD025nn32
                0x0000000008054a6b                sp_ffD025nn31
                0x0000000008054b54                sp_ffD025nn30
                0x0000000008054c3f                sp_ffD025nn29
                0x0000000008054ccd                sp_ffD025nn28
                0x0000000008054d8a                sp_ffD025nn27
                0x0000000008054deb                sp_ffD025nn26
                0x0000000008054eb6                sp_ffD025nn25
                0x0000000008054f9a                sp_ffD025nn24
                0x000000000805508a                sp_ffD025nn23
                0x0000000008055142                sp_ffD025nn22
                0x0000000008055207                sp_ffD025nn21
                0x00000000080552c5                sp_ffD025nn20
                0x0000000008055392                sp_ffD025nn19
                0x0000000008055447                sp_ffD025nn18
                0x0000000008055513                sp_ffD025nn17
                0x00000000080555d4                sp_ffD025nn16
                0x0000000008055642                sp_ffD025nn15
                0x00000000080556f7                sp_ffD025nn14
                0x000000000805575c                sp_ffD025nn13
                0x000000000805581d                sp_ffD025nn12
                0x00000000080558db                sp_ffD025nn11
                0x0000000008055960                sp_ffD025nn10
                0x00000000080559ed                sp_ffD025nn9
                0x0000000008055a99                sp_ffD025nn8
                0x0000000008055afd                sp_ffD025nn7
                0x0000000008055ba4                sp_ffD025nn6
                0x0000000008055c52                sp_ffD025nn5
                0x0000000008055d36                sp_ffD025nn4
                0x0000000008055dcc                sp_ffD025nn3
                0x0000000008055e34                sp_ffD025nn2
                0x0000000008055ec2                sp_ffD025nn1
                0x0000000008055f67                sp_ffD025nn0
                0x0000000008055fd9                sp_ffD023nn55
                0x00000000080560bf                sp_ffD023nn54
                0x00000000080561d2                sp_ffD023nn53
                0x00000000080562a6                sp_ffD023nn52
                0x0000000008056379                sp_ffD023nn51
                0x0000000008056469                sp_ffD023nn50
                0x000000000805657f                sp_ffD023nn49
                0x000000000805665e                sp_ffD023nn48
                0x00000000080567c9                sp_ffD023nn47
                0x00000000080568c1                sp_ffD023nn46
                0x000000000805698b                sp_ffD023nn45
                0x0000000008056ab4                sp_ffD023nn44
                0x0000000008056bf2                sp_ffD023nn43
                0x0000000008056d03                sp_ffD023nn42
                0x0000000008056dc6                sp_ffD023nn41
                0x0000000008056e89                sp_ffD023nn40
                0x0000000008056f4e                sp_ffD023nn39
                0x0000000008057024                sp_ffD023nn38
                0x00000000080570bf                sp_ffD023nn37
                0x0000000008057144                sp_ffD023nn36
                0x00000000080571d9                sp_ffD023nn35
                0x0000000008057297                sp_ffD023nn34
                0x00000000080572e7                sp_ffD023nn33
                0x00000000080573bf                sp_ffD023nn32
                0x0000000008057427                sp_ffD023nn31
                0x00000000080574f0                sp_ffD023nn30
                0x00000000080575b2                sp_ffD023nn29
                0x0000000008057699                sp_ffD023nn28
                0x0000000008057766                sp_ffD023nn27
                0x000000000805780e                sp_ffD023nn26
                0x00000000080578ec                sp_ffD023nn25
                0x0000000008057995                sp_ffD023nn24
                0x0000000008057a1e                sp_ffD023nn23
                0x0000000008057ae5                sp_ffD023nn22
                0x0000000008057b75                sp_ffD023nn21
                0x0000000008057c13                sp_ffD023nn20
                0x0000000008057caf                sp_ffD023nn19
                0x0000000008057d82                sp_ffD023nn18
                0x0000000008057e80                sp_ffD023nn17
                0x0000000008057ee6                sp_ffD023nn16
                0x0000000008057fb4                sp_ffD023nn15
                0x0000000008058092                sp_ffD023nn14
                0x000000000805812b                sp_ffD023nn13
                0x00000000080581e8                sp_ffD023nn12
                0x000000000805828a                sp_ffD023nn11
                0x000000000805831f                sp_ffD023nn10
                0x00000000080583f4                sp_ffD023nn9
                0x0000000008058493                sp_ffD023nn8
                0x000000000805855a                sp_ffD023nn7
                0x000000000805862d                sp_ffD023nn6
                0x00000000080586b8                sp_ffD023nn5
                0x000000000805877f                sp_ffD023nn4
                0x0000000008058845                sp_ffD023nn3
                0x000000000805892d                sp_ffD023nn2
                0x0000000008058a26                sp_ffD023nn1
                0x0000000008058af4                sp_ffD023nn0
                0x0000000008058ba2                sp_ffD022nn46
                0x0000000008058bff                sp_ffD022nn45
                0x0000000008058c8e                sp_ffD022nn44
                0x0000000008058d0f                sp_ffD022nn43
                0x0000000008058d5a                sp_ffD022nn42
                0x0000000008058db6                sp_ffD022nn41
                0x0000000008058e3a                sp_ffD022nn40
                0x0000000008058eba                sp_ffD022nn39
                0x0000000008058f4a                sp_ffD022nn38
                0x0000000008058fdc                sp_ffD022nn37
                0x0000000008059036                sp_ffD022nn36
                0x0000000008059095                sp_ffD022nn35
                0x0000000008059126                sp_ffD022nn34
                0x00000000080591a0                sp_ffD022nn33
                0x00000000080591e4                sp_ffD022nn32
                0x000000000805926f                sp_ffD022nn31
                0x00000000080592c2                sp_ffD022nn30
                0x0000000008059327                sp_ffD022nn29
                0x00000000080593d3                sp_ffD022nn28
                0x0000000008059456                sp_ffD022nn27
                0x00000000080594d5                sp_ffD022nn26
                0x0000000008059532                sp_ffD022nn25
                0x0000000008059594                sp_ffD022nn24
                0x0000000008059626                sp_ffD022nn23
                0x00000000080596c6                sp_ffD022nn22
                0x0000000008059722                sp_ffD022nn21
                0x000000000805978c                sp_ffD022nn20
                0x0000000008059809                sp_ffD022nn19
                0x000000000805987f                sp_ffD022nn18
                0x00000000080598f3                sp_ffD022nn17
                0x0000000008059968                sp_ffD022nn16
                0x0000000008059a03                sp_ffD022nn15
                0x0000000008059a6d                sp_ffD022nn14
                0x0000000008059acc                sp_ffD022nn13
                0x0000000008059b55                sp_ffD022nn12
                0x0000000008059ba6                sp_ffD022nn11
                0x0000000008059be7                sp_ffD022nn10
                0x0000000008059c3a                sp_ffD022nn9
                0x0000000008059c94                sp_ffD022nn8
                0x0000000008059cee                sp_ffD022nn7
                0x0000000008059d8f                sp_ffD022nn6
                0x0000000008059df5                sp_ffD022nn5
                0x0000000008059e53                sp_ffD022nn4
                0x0000000008059ea1                sp_ffD022nn3
                0x0000000008059f12                sp_ffD022nn2
                0x0000000008059f59                sp_ffD022nn1
                0x0000000008059fa4                sp_ffD022nn0
                0x000000000805a044                sp_ffD021nn52
                0x000000000805a0aa                sp_ffD021nn51
                0x000000000805a12d                sp_ffD021nn50
                0x000000000805a1a1                sp_ffD021nn49
                0x000000000805a222                sp_ffD021nn48
                0x000000000805a2b5                sp_ffD021nn47
                0x000000000805a31a                sp_ffD021nn46
                0x000000000805a3a1                sp_ffD021nn45
                0x000000000805a40e                sp_ffD021nn44
                0x000000000805a494                sp_ffD021nn43
                0x000000000805a514                sp_ffD021nn42
                0x000000000805a584                sp_ffD021nn41
                0x000000000805a602                sp_ffD021nn40
                0x000000000805a670                sp_ffD021nn39
                0x000000000805a6f6                sp_ffD021nn38
                0x000000000805a792                sp_ffD021nn37
                0x000000000805a81c                sp_ffD021nn36
                0x000000000805a8ba                sp_ffD021nn35
                0x000000000805a950                sp_ffD021nn34
                0x000000000805aa04                sp_ffD021nn33
                0x000000000805aa5b                sp_ffD021nn32
                0x000000000805aae3                sp_ffD021nn31
                0x000000000805ab5f                sp_ffD021nn30
                0x000000000805abae                sp_ffD021nn29
                0x000000000805ac64                sp_ffD021nn28
                0x000000000805ad0c                sp_ffD021nn27
                0x000000000805ad75                sp_ffD021nn26
                0x000000000805ade6                sp_ffD021nn25
                0x000000000805ae47                sp_ffD021nn24
                0x000000000805af07                sp_ffD021nn23
                0x000000000805af8b                sp_ffD021nn22
                0x000000000805afe2                sp_ffD021nn21
                0x000000000805b044                sp_ffD021nn20
                0x000000000805b09f                sp_ffD021nn19
                0x000000000805b0ee                sp_ffD021nn18
                0x000000000805b171                sp_ffD021nn17
                0x000000000805b1f1                sp_ffD021nn16
                0x000000000805b281                sp_ffD021nn15
                0x000000000805b304                sp_ffD021nn14
                0x000000000805b382                sp_ffD021nn13
                0x000000000805b42c                sp_ffD021nn12
                0x000000000805b494                sp_ffD021nn11
                0x000000000805b51e                sp_ffD021nn10
                0x000000000805b59f                sp_ffD021nn9
                0x000000000805b607                sp_ffD021nn8
                0x000000000805b6a2                sp_ffD021nn7
                0x000000000805b6f1                sp_ffD021nn6
                0x000000000805b765                sp_ffD021nn5
                0x000000000805b80c                sp_ffD021nn4
                0x000000000805b888                sp_ffD021nn3
                0x000000000805b94b                sp_ffD021nn2
                0x000000000805b9cb                sp_ffD021nn1
                0x000000000805ba65                sp_ffD021nn0
                0x000000000805bae3                sp_ffD020nn16
                0x000000000805bb57                sp_ffD020nn15
                0x000000000805bbeb                sp_ffD020nn14
                0x000000000805bc65                sp_ffD020nn13
                0x000000000805bcee                sp_ffD020nn12
                0x000000000805bd63                sp_ffD020nn11
                0x000000000805bdcc                sp_ffD020nn10
                0x000000000805be1e                sp_ffD020nn9
                0x000000000805beaf                sp_ffD020nn8
                0x000000000805bf0b                sp_ffD020nn7
                0x000000000805bf84                sp_ffD020nn6
                0x000000000805c030                sp_ffD020nn5
                0x000000000805c0b5                sp_ffD020nn4
                0x000000000805c131                sp_ffD020nn3
                0x000000000805c1ab                sp_ffD020nn2
                0x000000000805c1f3                sp_ffD020nn1
                0x000000000805c26d                sp_ffD020nn0
                0x000000000805c32a                sp_ffD019nn69
                0x000000000805c3e4                sp_ffD019nn68
                0x000000000805c49d                sp_ffD019nn67
                0x000000000805c585                sp_ffD019nn66
                0x000000000805c63c                sp_ffD019nn65
                0x000000000805c6f8                sp_ffD019nn64
                0x000000000805c7e4                sp_ffD019nn63
                0x000000000805c8d9                sp_ffD019nn62
                0x000000000805c9ad                sp_ffD019nn61
                0x000000000805ca6c                sp_ffD019nn60
                0x000000000805cb26                sp_ffD019nn59
                0x000000000805cbc2                sp_ffD019nn58
                0x000000000805ccba                sp_ffD019nn57
                0x000000000805cd78                sp_ffD019nn56
                0x000000000805ce4b                sp_ffD019nn55
                0x000000000805cf06                sp_ffD019nn54
                0x000000000805cfe6                sp_ffD019nn53
                0x000000000805d0b4                sp_ffD019nn52
                0x000000000805d165                sp_ffD019nn51
                0x000000000805d225                sp_ffD019nn50
                0x000000000805d2f1                sp_ffD019nn49
                0x000000000805d3ca                sp_ffD019nn48
                0x000000000805d4a6                sp_ffD019nn47
                0x000000000805d559                sp_ffD019nn46
                0x000000000805d632                sp_ffD019nn45
                0x000000000805d6f5                sp_ffD019nn44
                0x000000000805d7be                sp_ffD019nn43
                0x000000000805d87f                sp_ffD019nn42
                0x000000000805d924                sp_ffD019nn41
                0x000000000805d9e6                sp_ffD019nn40
                0x000000000805daa1                sp_ffD019nn39
                0x000000000805db6e                sp_ffD019nn38
                0x000000000805dc66                sp_ffD019nn37
                0x000000000805dd4c                sp_ffD019nn36
                0x000000000805ddff                sp_ffD019nn35
                0x000000000805deae                sp_ffD019nn34
                0x000000000805df6e                sp_ffD019nn33
                0x000000000805e048                sp_ffD019nn32
                0x000000000805e127                sp_ffD019nn31
                0x000000000805e1f4                sp_ffD019nn30
                0x000000000805e2ac                sp_ffD019nn29
                0x000000000805e372                sp_ffD019nn28
                0x000000000805e45b                sp_ffD019nn27
                0x000000000805e50e                sp_ffD019nn26
                0x000000000805e5fb                sp_ffD019nn25
                0x000000000805e6da                sp_ffD019nn24
                0x000000000805e77f                sp_ffD019nn23
                0x000000000805e86e                sp_ffD019nn22
                0x000000000805e945                sp_ffD019nn21
                0x000000000805ea38                sp_ffD019nn20
                0x000000000805eb14                sp_ffD019nn19
                0x000000000805ebca                sp_ffD019nn18
                0x000000000805ec81                sp_ffD019nn17
                0x000000000805ed50                sp_ffD019nn16
                0x000000000805edfd                sp_ffD019nn15
                0x000000000805eedc                sp_ffD019nn14
                0x000000000805efcb                sp_ffD019nn13
                0x000000000805f092                sp_ffD019nn12
                0x000000000805f182                sp_ffD019nn11
                0x000000000805f247                sp_ffD019nn10
                0x000000000805f2f3                sp_ffD019nn9
                0x000000000805f3f9                sp_ffD019nn8
                0x000000000805f4c5                sp_ffD019nn7
                0x000000000805f599                sp_ffD019nn6
                0x000000000805f66c                sp_ffD019nn5
                0x000000000805f730                sp_ffD019nn4
                0x000000000805f7c6                sp_ffD019nn3
                0x000000000805f8bf                sp_ffD019nn2
                0x000000000805f98b                sp_ffD019nn1
                0x000000000805fa40                sp_ffD019nn0
                0x000000000805faf1                sp_ffD018nn64
                0x000000000805fba6                sp_ffD018nn63
                0x000000000805fc56                sp_ffD018nn62
                0x000000000805fd14                sp_ffD018nn61
                0x000000000805fe21                sp_ffD018nn60
                0x000000000805fece                sp_ffD018nn59
                0x000000000805ffe3                sp_ffD018nn58
                0x00000000080600b1                sp_ffD018nn57
                0x000000000806019b                sp_ffD018nn56
                0x000000000806022b                sp_ffD018nn55
                0x00000000080602e7                sp_ffD018nn54
                0x00000000080603a3                sp_ffD018nn53
                0x0000000008060450                sp_ffD018nn52
                0x00000000080604fa                sp_ffD018nn51
                0x0000000008060597                sp_ffD018nn50
                0x0000000008060649                sp_ffD018nn49
                0x00000000080606e6                sp_ffD018nn48
                0x000000000806078b                sp_ffD018nn47
                0x0000000008060840                sp_ffD018nn46
                0x0000000008060915                sp_ffD018nn45
                0x00000000080609f3                sp_ffD018nn44
                0x0000000008060ad3                sp_ffD018nn43
                0x0000000008060ba3                sp_ffD018nn42
                0x0000000008060c6a                sp_ffD018nn41
                0x0000000008060d39                sp_ffD018nn40
                0x0000000008060dfb                sp_ffD018nn39
                0x0000000008060ecf                sp_ffD018nn38
                0x0000000008060fa2                sp_ffD018nn37
                0x000000000806103c                sp_ffD018nn36
                0x00000000080610ef                sp_ffD018nn35
                0x00000000080611a9                sp_ffD018nn34
                0x0000000008061277                sp_ffD018nn33
                0x000000000806132c                sp_ffD018nn32
                0x00000000080613d7                sp_ffD018nn31
                0x0000000008061485                sp_ffD018nn30
                0x000000000806152c                sp_ffD018nn29
                0x00000000080615de                sp_ffD018nn28
                0x00000000080616a1                sp_ffD018nn27
                0x000000000806176b                sp_ffD018nn26
                0x0000000008061818                sp_ffD018nn25
                0x0000000008061902                sp_ffD018nn24
                0x00000000080619c5                sp_ffD018nn23
                0x0000000008061aa1                sp_ffD018nn22
                0x0000000008061b72                sp_ffD018nn21
                0x0000000008061c6b                sp_ffD018nn20
                0x0000000008061d33                sp_ffD018nn19
                0x0000000008061dec                sp_ffD018nn18
                0x0000000008061e9d                sp_ffD018nn17
                0x0000000008061f64                sp_ffD018nn16
                0x0000000008061ffe                sp_ffD018nn15
                0x00000000080620c4                sp_ffD018nn14
                0x0000000008062179                sp_ffD018nn13
                0x00000000080621f4                sp_ffD018nn12
                0x0000000008062291                sp_ffD018nn11
                0x0000000008062364                sp_ffD018nn10
                0x0000000008062405                sp_ffD018nn9
                0x00000000080624b2                sp_ffD018nn8
                0x000000000806255a                sp_ffD018nn7
                0x0000000008062624                sp_ffD018nn6
                0x00000000080626f2                sp_ffD018nn5
                0x00000000080627aa                sp_ffD018nn4
                0x0000000008062860                sp_ffD018nn3
                0x00000000080628ed                sp_ffD018nn2
                0x00000000080629a7                sp_ffD018nn1
                0x0000000008062a55                sp_ffD018nn0
                0x0000000008062b16                sp_ffD017nn50
                0x0000000008062bc8                sp_ffD017nn49
                0x0000000008062c54                sp_ffD017nn48
                0x0000000008062d30                sp_ffD017nn47
                0x0000000008062dc9                sp_ffD017nn46
                0x0000000008062e85                sp_ffD017nn45
                0x0000000008062f36                sp_ffD017nn44
                0x0000000008062ff0                sp_ffD017nn43
                0x00000000080630a6                sp_ffD017nn42
                0x000000000806315c                sp_ffD017nn41
                0x0000000008063266                sp_ffD017nn40
                0x0000000008063336                sp_ffD017nn39
                0x00000000080633f5                sp_ffD017nn38
                0x000000000806349b                sp_ffD017nn37
                0x0000000008063579                sp_ffD017nn36
                0x000000000806364e                sp_ffD017nn35
                0x0000000008063725                sp_ffD017nn34
                0x00000000080637e3                sp_ffD017nn33
                0x00000000080638a9                sp_ffD017nn32
                0x00000000080639a6                sp_ffD017nn31
                0x0000000008063a8a                sp_ffD017nn30
                0x0000000008063b46                sp_ffD017nn29
                0x0000000008063c00                sp_ffD017nn28
                0x0000000008063cee                sp_ffD017nn27
                0x0000000008063dc5                sp_ffD017nn26
                0x0000000008063e83                sp_ffD017nn25
                0x0000000008063f36                sp_ffD017nn24
                0x0000000008063feb                sp_ffD017nn23
                0x0000000008064094                sp_ffD017nn22
                0x0000000008064154                sp_ffD017nn21
                0x0000000008064216                sp_ffD017nn20
                0x00000000080642ba                sp_ffD017nn19
                0x0000000008064372                sp_ffD017nn18
                0x000000000806441a                sp_ffD017nn17
                0x00000000080644ea                sp_ffD017nn16
                0x00000000080645c4                sp_ffD017nn15
                0x0000000008064664                sp_ffD017nn14
                0x0000000008064752                sp_ffD017nn13
                0x0000000008064815                sp_ffD017nn12
                0x00000000080648fc                sp_ffD017nn11
                0x00000000080649bf                sp_ffD017nn10
                0x0000000008064a56                sp_ffD017nn9
                0x0000000008064b06                sp_ffD017nn8
                0x0000000008064bcf                sp_ffD017nn7
                0x0000000008064c9c                sp_ffD017nn6
                0x0000000008064d6d                sp_ffD017nn5
                0x0000000008064e37                sp_ffD017nn4
                0x0000000008064ee3                sp_ffD017nn3
                0x0000000008064f76                sp_ffD017nn2
                0x0000000008065041                sp_ffD017nn1
                0x00000000080650e5                sp_ffD017nn0
                0x00000000080651b5                sp_ffD016nn38
                0x0000000008065239                sp_ffD016nn37
                0x00000000080652ee                sp_ffD016nn36
                0x0000000008065378                sp_ffD016nn35
                0x0000000008065447                sp_ffD016nn34
                0x00000000080654fd                sp_ffD016nn33
                0x00000000080655b3                sp_ffD016nn32
                0x000000000806566e                sp_ffD016nn31
                0x000000000806571f                sp_ffD016nn30
                0x00000000080657db                sp_ffD016nn29
                0x0000000008065895                sp_ffD016nn28
                0x000000000806595e                sp_ffD016nn27
                0x0000000008065a16                sp_ffD016nn26
                0x0000000008065a9c                sp_ffD016nn25
                0x0000000008065b4a                sp_ffD016nn24
                0x0000000008065bed                sp_ffD016nn23
                0x0000000008065cae                sp_ffD016nn22
                0x0000000008065d53                sp_ffD016nn21
                0x0000000008065e06                sp_ffD016nn20
                0x0000000008065ec3                sp_ffD016nn19
                0x0000000008065f6f                sp_ffD016nn18
                0x000000000806601d                sp_ffD016nn17
                0x00000000080660b4                sp_ffD016nn16
                0x0000000008066173                sp_ffD016nn15
                0x0000000008066208                sp_ffD016nn14
                0x00000000080662b5                sp_ffD016nn13
                0x0000000008066382                sp_ffD016nn12
                0x0000000008066436                sp_ffD016nn11
                0x00000000080664e6                sp_ffD016nn10
                0x00000000080665aa                sp_ffD016nn9
                0x0000000008066625                sp_ffD016nn8
                0x00000000080666b3                sp_ffD016nn7
                0x0000000008066727                sp_ffD016nn6
                0x00000000080667d0                sp_ffD016nn5
                0x000000000806687a                sp_ffD016nn4
                0x0000000008066917                sp_ffD016nn3
                0x00000000080669a5                sp_ffD016nn2
                0x0000000008066a4a                sp_ffD016nn1
                0x0000000008066b11                sp_ffD016nn0
                0x0000000008066c0b                sp_ffD015nn160
                0x0000000008066c7e                sp_ffD015nn159
                0x0000000008066d15                sp_ffD015nn158
                0x0000000008066d7a                sp_ffD015nn157
                0x0000000008066de1                sp_ffD015nn156
                0x0000000008066e6a                sp_ffD015nn155
                0x0000000008066ee4                sp_ffD015nn154
                0x0000000008066fb1                sp_ffD015nn153
                0x0000000008067059                sp_ffD015nn152
                0x000000000806712d                sp_ffD015nn151
                0x00000000080671df                sp_ffD015nn150
                0x000000000806729a                sp_ffD015nn149
                0x0000000008067382                sp_ffD015nn148
                0x0000000008067430                sp_ffD015nn147
                0x0000000008067529                sp_ffD015nn146
                0x0000000008067610                sp_ffD015nn145
                0x00000000080676c8                sp_ffD015nn144
                0x00000000080677b1                sp_ffD015nn143
                0x000000000806788e                sp_ffD015nn142
                0x000000000806791a                sp_ffD015nn141
                0x00000000080679b9                sp_ffD015nn140
                0x0000000008067a44                sp_ffD015nn139
                0x0000000008067b39                sp_ffD015nn138
                0x0000000008067c11                sp_ffD015nn137
                0x0000000008067ce3                sp_ffD015nn136
                0x0000000008067daa                sp_ffD015nn135
                0x0000000008067e8a                sp_ffD015nn134
                0x0000000008067f0d                sp_ffD015nn133
                0x0000000008067f97                sp_ffD015nn132
                0x000000000806807f                sp_ffD015nn131
                0x0000000008068133                sp_ffD015nn130
                0x00000000080681e8                sp_ffD015nn129
                0x000000000806827c                sp_ffD015nn128
                0x000000000806833f                sp_ffD015nn127
                0x0000000008068414                sp_ffD015nn126
                0x000000000806848e                sp_ffD015nn125
                0x000000000806857a                sp_ffD015nn124
                0x0000000008068604                sp_ffD015nn123
                0x000000000806868a                sp_ffD015nn122
                0x0000000008068785                sp_ffD015nn121
                0x0000000008068853                sp_ffD015nn120
                0x0000000008068934                sp_ffD015nn119
                0x00000000080689c5                sp_ffD015nn118
                0x0000000008068a46                sp_ffD015nn117
                0x0000000008068b04                sp_ffD015nn116
                0x0000000008068bc2                sp_ffD015nn115
                0x0000000008068c56                sp_ffD015nn114
                0x0000000008068d19                sp_ffD015nn113
                0x0000000008068de7                sp_ffD015nn112
                0x0000000008068e95                sp_ffD015nn111
                0x0000000008068f5b                sp_ffD015nn110
                0x0000000008069011                sp_ffD015nn109
                0x00000000080690e5                sp_ffD015nn108
                0x0000000008069193                sp_ffD015nn107
                0x0000000008069263                sp_ffD015nn106
                0x0000000008069322                sp_ffD015nn105
                0x00000000080693c8                sp_ffD015nn104
                0x00000000080694a3                sp_ffD015nn103
                0x0000000008069535                sp_ffD015nn102
                0x00000000080695ff                sp_ffD015nn101
                0x00000000080696be                sp_ffD015nn100
                0x000000000806978e                sp_ffD015nn99
                0x0000000008069873                sp_ffD015nn98
                0x0000000008069941                sp_ffD015nn97
                0x00000000080699f1                sp_ffD015nn96
                0x0000000008069ad3                sp_ffD015nn95
                0x0000000008069b72                sp_ffD015nn94
                0x0000000008069c04                sp_ffD015nn93
                0x0000000008069cba                sp_ffD015nn92
                0x0000000008069da6                sp_ffD015nn91
                0x0000000008069e5b                sp_ffD015nn90
                0x0000000008069f5a                sp_ffD015nn89
                0x000000000806a025                sp_ffD015nn88
                0x000000000806a0db                sp_ffD015nn87
                0x000000000806a1db                sp_ffD015nn86
                0x000000000806a297                sp_ffD015nn85
                0x000000000806a35a                sp_ffD015nn84
                0x000000000806a455                sp_ffD015nn83
                0x000000000806a4ee                sp_ffD015nn82
                0x000000000806a54c                sp_ffD015nn81
                0x000000000806a5d6                sp_ffD015nn80
                0x000000000806a69a                sp_ffD015nn79
                0x000000000806a76b                sp_ffD015nn78
                0x000000000806a85a                sp_ffD015nn77
                0x000000000806a8f9                sp_ffD015nn76
                0x000000000806a9cd                sp_ffD015nn75
                0x000000000806aad9                sp_ffD015nn74
                0x000000000806ab97                sp_ffD015nn73
                0x000000000806ac49                sp_ffD015nn72
                0x000000000806acc2                sp_ffD015nn71
                0x000000000806ad52                sp_ffD015nn70
                0x000000000806ae6c                sp_ffD015nn69
                0x000000000806af18                sp_ffD015nn68
                0x000000000806b020                sp_ffD015nn67
                0x000000000806b100                sp_ffD015nn66
                0x000000000806b1d8                sp_ffD015nn65
                0x000000000806b286                sp_ffD015nn64
                0x000000000806b306                sp_ffD015nn63
                0x000000000806b3bd                sp_ffD015nn62
                0x000000000806b478                sp_ffD015nn61
                0x000000000806b545                sp_ffD015nn60
                0x000000000806b5e9                sp_ffD015nn59
                0x000000000806b67f                sp_ffD015nn58
                0x000000000806b757                sp_ffD015nn57
                0x000000000806b812                sp_ffD015nn56
                0x000000000806b8fc                sp_ffD015nn55
                0x000000000806b9b1                sp_ffD015nn54
                0x000000000806ba61                sp_ffD015nn53
                0x000000000806bb28                sp_ffD015nn52
                0x000000000806bc22                sp_ffD015nn51
                0x000000000806bca6                sp_ffD015nn50
                0x000000000806bd45                sp_ffD015nn49
                0x000000000806be08                sp_ffD015nn48
                0x000000000806bec1                sp_ffD015nn47
                0x000000000806bf92                sp_ffD015nn46
                0x000000000806c01b                sp_ffD015nn45
                0x000000000806c0c7                sp_ffD015nn44
                0x000000000806c1b3                sp_ffD015nn43
                0x000000000806c257                sp_ffD015nn42
                0x000000000806c30b                sp_ffD015nn41
                0x000000000806c3a3                sp_ffD015nn40
                0x000000000806c448                sp_ffD015nn39
                0x000000000806c504                sp_ffD015nn38
                0x000000000806c573                sp_ffD015nn37
                0x000000000806c650                sp_ffD015nn36
                0x000000000806c6d0                sp_ffD015nn35
                0x000000000806c7a9                sp_ffD015nn34
                0x000000000806c870                sp_ffD015nn33
                0x000000000806c901                sp_ffD015nn32
                0x000000000806c9ae                sp_ffD015nn31
                0x000000000806ca53                sp_ffD015nn30
                0x000000000806cac5                sp_ffD015nn29
                0x000000000806cb5d                sp_ffD015nn28
                0x000000000806cbde                sp_ffD015nn27
                0x000000000806cc7b                sp_ffD015nn26
                0x000000000806cd29                sp_ffD015nn25
                0x000000000806ce21                sp_ffD015nn24
                0x000000000806cebf                sp_ffD015nn23
                0x000000000806cf91                sp_ffD015nn22
                0x000000000806d077                sp_ffD015nn21
                0x000000000806d12c                sp_ffD015nn20
                0x000000000806d1c7                sp_ffD015nn19
                0x000000000806d254                sp_ffD015nn18
                0x000000000806d339                sp_ffD015nn17
                0x000000000806d3e4                sp_ffD015nn16
                0x000000000806d4ae                sp_ffD015nn15
                0x000000000806d55b                sp_ffD015nn14
                0x000000000806d64d                sp_ffD015nn13
                0x000000000806d727                sp_ffD015nn12
                0x000000000806d7ce                sp_ffD015nn11
                0x000000000806d89b                sp_ffD015nn10
                0x000000000806d929                sp_ffD015nn9
                0x000000000806d9dc                sp_ffD015nn8
                0x000000000806dafb                sp_ffD015nn7
                0x000000000806dbc2                sp_ffD015nn6
                0x000000000806dc97                sp_ffD015nn5
                0x000000000806dd94                sp_ffD015nn4
                0x000000000806de44                sp_ffD015nn3
                0x000000000806df0a                sp_ffD015nn2
                0x000000000806dfc3                sp_ffD015nn1
                0x000000000806e08c                sp_ffD015nn0
                0x000000000806e141                sp_ffD014nn82
                0x000000000806e1c6                sp_ffD014nn81
                0x000000000806e256                sp_ffD014nn80
                0x000000000806e322                sp_ffD014nn79
                0x000000000806e3e9                sp_ffD014nn78
                0x000000000806e478                sp_ffD014nn77
                0x000000000806e522                sp_ffD014nn76
                0x000000000806e5c6                sp_ffD014nn75
                0x000000000806e695                sp_ffD014nn74
                0x000000000806e777                sp_ffD014nn73
                0x000000000806e84c                sp_ffD014nn72
                0x000000000806e8ee                sp_ffD014nn71
                0x000000000806e99c                sp_ffD014nn70
                0x000000000806ea65                sp_ffD014nn69
                0x000000000806eb50                sp_ffD014nn68
                0x000000000806ebf8                sp_ffD014nn67
                0x000000000806ecb5                sp_ffD014nn66
                0x000000000806ed72                sp_ffD014nn65
                0x000000000806ee26                sp_ffD014nn64
                0x000000000806eeec                sp_ffD014nn63
                0x000000000806ef7b                sp_ffD014nn62
                0x000000000806f05b                sp_ffD014nn61
                0x000000000806f0fd                sp_ffD014nn60
                0x000000000806f1ad                sp_ffD014nn59
                0x000000000806f276                sp_ffD014nn58
                0x000000000806f331                sp_ffD014nn57
                0x000000000806f3be                sp_ffD014nn56
                0x000000000806f485                sp_ffD014nn55
                0x000000000806f520                sp_ffD014nn54
                0x000000000806f5d4                sp_ffD014nn53
                0x000000000806f685                sp_ffD014nn52
                0x000000000806f73d                sp_ffD014nn51
                0x000000000806f813                sp_ffD014nn50
                0x000000000806f8b5                sp_ffD014nn49
                0x000000000806f940                sp_ffD014nn48
                0x000000000806fa01                sp_ffD014nn47
                0x000000000806faa3                sp_ffD014nn46
                0x000000000806fb69                sp_ffD014nn45
                0x000000000806fc08                sp_ffD014nn44
                0x000000000806fcba                sp_ffD014nn43
                0x000000000806fd6f                sp_ffD014nn42
                0x000000000806fe07                sp_ffD014nn41
                0x000000000806feb7                sp_ffD014nn40
                0x000000000806ff53                sp_ffD014nn39
                0x000000000806ffcc                sp_ffD014nn38
                0x000000000807003e                sp_ffD014nn37
                0x00000000080700c8                sp_ffD014nn36
                0x000000000807016b                sp_ffD014nn35
                0x00000000080701fa                sp_ffD014nn34
                0x00000000080702dc                sp_ffD014nn33
                0x000000000807035a                sp_ffD014nn32
                0x0000000008070430                sp_ffD014nn31
                0x00000000080704a7                sp_ffD014nn30
                0x0000000008070538                sp_ffD014nn29
                0x00000000080705c0                sp_ffD014nn28
                0x0000000008070661                sp_ffD014nn27
                0x0000000008070720                sp_ffD014nn26
                0x00000000080707f1                sp_ffD014nn25
                0x000000000807086b                sp_ffD014nn24
                0x00000000080708fb                sp_ffD014nn23
                0x000000000807099e                sp_ffD014nn22
                0x0000000008070a4b                sp_ffD014nn21
                0x0000000008070ac2                sp_ffD014nn20
                0x0000000008070b73                sp_ffD014nn19
                0x0000000008070c11                sp_ffD014nn18
                0x0000000008070c7c                sp_ffD014nn17
                0x0000000008070d1f                sp_ffD014nn16
                0x0000000008070db3                sp_ffD014nn15
                0x0000000008070e88                sp_ffD014nn14
                0x0000000008070f33                sp_ffD014nn13
                0x0000000008071022                sp_ffD014nn12
                0x00000000080710f7                sp_ffD014nn11
                0x000000000807119c                sp_ffD014nn10
                0x000000000807123d                sp_ffD014nn9
                0x00000000080712fc                sp_ffD014nn8
                0x0000000008071397                sp_ffD014nn7
                0x0000000008071425                sp_ffD014nn6
                0x00000000080714df                sp_ffD014nn5
                0x00000000080715ab                sp_ffD014nn4
                0x0000000008071698                sp_ffD014nn3
                0x0000000008071771                sp_ffD014nn2
                0x0000000008071831                sp_ffD014nn1
                0x00000000080718ee                sp_ffD014nn0
                0x000000000807198a                sp_ffD013nn62
                0x0000000008071a37                sp_ffD013nn61
                0x0000000008071aee                sp_ffD013nn60
                0x0000000008071bad                sp_ffD013nn59
                0x0000000008071c3d                sp_ffD013nn58
                0x0000000008071ced                sp_ffD013nn57
                0x0000000008071dba                sp_ffD013nn56
                0x0000000008071e9e                sp_ffD013nn55
                0x0000000008071f4d                sp_ffD013nn54
                0x0000000008072014                sp_ffD013nn53
                0x0000000008072097                sp_ffD013nn52
                0x000000000807215d                sp_ffD013nn51
                0x0000000008072230                sp_ffD013nn50
                0x00000000080722bd                sp_ffD013nn49
                0x0000000008072373                sp_ffD013nn48
                0x0000000008072423                sp_ffD013nn47
                0x00000000080724ae                sp_ffD013nn46
                0x0000000008072554                sp_ffD013nn45
                0x0000000008072608                sp_ffD013nn44
                0x000000000807267c                sp_ffD013nn43
                0x000000000807271f                sp_ffD013nn42
                0x000000000807279a                sp_ffD013nn41
                0x000000000807284e                sp_ffD013nn40
                0x00000000080728f0                sp_ffD013nn39
                0x00000000080729c3                sp_ffD013nn38
                0x0000000008072a4b                sp_ffD013nn37
                0x0000000008072ae6                sp_ffD013nn36
                0x0000000008072b99                sp_ffD013nn35
                0x0000000008072c3b                sp_ffD013nn34
                0x0000000008072ce9                sp_ffD013nn33
                0x0000000008072db4                sp_ffD013nn32
                0x0000000008072e49                sp_ffD013nn31
                0x0000000008072efa                sp_ffD013nn30
                0x0000000008072f9e                sp_ffD013nn29
                0x0000000008073010                sp_ffD013nn28
                0x0000000008073090                sp_ffD013nn27
                0x0000000008073119                sp_ffD013nn26
                0x00000000080731c1                sp_ffD013nn25
                0x000000000807327b                sp_ffD013nn24
                0x000000000807331d                sp_ffD013nn23
                0x00000000080733f9                sp_ffD013nn22
                0x0000000008073492                sp_ffD013nn21
                0x000000000807353c                sp_ffD013nn20
                0x00000000080735c8                sp_ffD013nn19
                0x0000000008073678                sp_ffD013nn18
                0x0000000008073756                sp_ffD013nn17
                0x0000000008073801                sp_ffD013nn16
                0x00000000080738b6                sp_ffD013nn15
                0x000000000807397b                sp_ffD013nn14
                0x0000000008073a03                sp_ffD013nn13
                0x0000000008073a7d                sp_ffD013nn12
                0x0000000008073b20                sp_ffD013nn11
                0x0000000008073bc7                sp_ffD013nn10
                0x0000000008073c64                sp_ffD013nn9
                0x0000000008073d42                sp_ffD013nn8
                0x0000000008073ddb                sp_ffD013nn7
                0x0000000008073e9c                sp_ffD013nn6
                0x0000000008073f4f                sp_ffD013nn5
                0x000000000807400b                sp_ffD013nn4
                0x00000000080740d5                sp_ffD013nn3
                0x0000000008074180                sp_ffD013nn2
                0x000000000807422e                sp_ffD013nn1
                0x00000000080742e3                sp_ffD013nn0
                0x0000000008074381                sp_ffD012nn182
                0x000000000807443d                sp_ffD012nn181
                0x00000000080744de                sp_ffD012nn180
                0x0000000008074559                sp_ffD012nn179
                0x000000000807460e                sp_ffD012nn178
                0x00000000080746b0                sp_ffD012nn177
                0x0000000008074749                sp_ffD012nn176
                0x00000000080747e0                sp_ffD012nn175
                0x000000000807487c                sp_ffD012nn174
                0x000000000807490c                sp_ffD012nn173
                0x00000000080749bd                sp_ffD012nn172
                0x0000000008074a40                sp_ffD012nn171
                0x0000000008074b15                sp_ffD012nn170
                0x0000000008074ba6                sp_ffD012nn169
                0x0000000008074c4e                sp_ffD012nn168
                0x0000000008074d17                sp_ffD012nn167
                0x0000000008074df6                sp_ffD012nn166
                0x0000000008074e72                sp_ffD012nn165
                0x0000000008074ecd                sp_ffD012nn164
                0x0000000008074f3c                sp_ffD012nn163
                0x0000000008074fba                sp_ffD012nn162
                0x0000000008075067                sp_ffD012nn161
                0x00000000080750f5                sp_ffD012nn160
                0x0000000008075171                sp_ffD012nn159
                0x00000000080751fe                sp_ffD012nn158
                0x00000000080752a3                sp_ffD012nn157
                0x000000000807532d                sp_ffD012nn156
                0x00000000080753d1                sp_ffD012nn155
                0x0000000008075482                sp_ffD012nn154
                0x00000000080754f1                sp_ffD012nn153
                0x0000000008075573                sp_ffD012nn152
                0x00000000080755fc                sp_ffD012nn151
                0x00000000080756b7                sp_ffD012nn150
                0x0000000008075763                sp_ffD012nn149
                0x0000000008075829                sp_ffD012nn148
                0x00000000080758b6                sp_ffD012nn147
                0x0000000008075958                sp_ffD012nn146
                0x00000000080759f6                sp_ffD012nn145
                0x0000000008075a9e                sp_ffD012nn144
                0x0000000008075b2a                sp_ffD012nn143
                0x0000000008075be9                sp_ffD012nn142
                0x0000000008075c50                sp_ffD012nn141
                0x0000000008075cf8                sp_ffD012nn140
                0x0000000008075d83                sp_ffD012nn139
                0x0000000008075deb                sp_ffD012nn138
                0x0000000008075e6c                sp_ffD012nn137
                0x0000000008075ed7                sp_ffD012nn136
                0x0000000008075f6e                sp_ffD012nn135
                0x0000000008075ff8                sp_ffD012nn134
                0x000000000807607d                sp_ffD012nn133
                0x00000000080760fd                sp_ffD012nn132
                0x00000000080761ab                sp_ffD012nn131
                0x000000000807623d                sp_ffD012nn130
                0x00000000080762b9                sp_ffD012nn129
                0x0000000008076328                sp_ffD012nn128
                0x00000000080763b9                sp_ffD012nn127
                0x0000000008076417                sp_ffD012nn126
                0x00000000080764a2                sp_ffD012nn125
                0x00000000080764fc                sp_ffD012nn124
                0x000000000807656c                sp_ffD012nn123
                0x00000000080765e6                sp_ffD012nn122
                0x0000000008076651                sp_ffD012nn121
                0x00000000080766bc                sp_ffD012nn120
                0x0000000008076727                sp_ffD012nn119
                0x00000000080767da                sp_ffD012nn118
                0x0000000008076875                sp_ffD012nn117
                0x0000000008076905                sp_ffD012nn116
                0x000000000807697c                sp_ffD012nn115
                0x00000000080769da                sp_ffD012nn114
                0x0000000008076a96                sp_ffD012nn113
                0x0000000008076b3a                sp_ffD012nn112
                0x0000000008076bb5                sp_ffD012nn111
                0x0000000008076c28                sp_ffD012nn110
                0x0000000008076c97                sp_ffD012nn109
                0x0000000008076d5d                sp_ffD012nn108
                0x0000000008076dd8                sp_ffD012nn107
                0x0000000008076e54                sp_ffD012nn106
                0x0000000008076ebe                sp_ffD012nn105
                0x0000000008076f5d                sp_ffD012nn104
                0x0000000008076f68                sp_ffD012nn103
                0x0000000008076fea                sp_ffD012nn102
                0x0000000008077086                sp_ffD012nn101
                0x00000000080770f9                sp_ffD012nn100
                0x0000000008077169                sp_ffD012nn99
                0x00000000080771fe                sp_ffD012nn98
                0x000000000807729e                sp_ffD012nn97
                0x000000000807731d                sp_ffD012nn96
                0x0000000008077327                sp_ffD012nn95
                0x00000000080773b7                sp_ffD012nn94
                0x0000000008077425                sp_ffD012nn93
                0x00000000080774f7                sp_ffD012nn92
                0x000000000807757d                sp_ffD012nn91
                0x000000000807761b                sp_ffD012nn90
                0x00000000080776b3                sp_ffD012nn89
                0x0000000008077733                sp_ffD012nn88
                0x00000000080777b3                sp_ffD012nn87
                0x000000000807783c                sp_ffD012nn86
                0x00000000080778dc                sp_ffD012nn85
                0x0000000008077959                sp_ffD012nn84
                0x00000000080779f0                sp_ffD012nn83
                0x0000000008077a8c                sp_ffD012nn82
                0x0000000008077ae7                sp_ffD012nn81
                0x0000000008077ba3                sp_ffD012nn80
                0x0000000008077c1a                sp_ffD012nn79
                0x0000000008077ccc                sp_ffD012nn78
                0x0000000008077d6c                sp_ffD012nn77
                0x0000000008077de9                sp_ffD012nn76
                0x0000000008077e70                sp_ffD012nn75
                0x0000000008077f05                sp_ffD012nn74
                0x0000000008077f84                sp_ffD012nn73
                0x0000000008078004                sp_ffD012nn72
                0x00000000080780a8                sp_ffD012nn71
                0x0000000008078147                sp_ffD012nn70
                0x00000000080781e4                sp_ffD012nn69
                0x0000000008078289                sp_ffD012nn68
                0x0000000008078322                sp_ffD012nn67
                0x00000000080783da                sp_ffD012nn66
                0x000000000807846d                sp_ffD012nn65
                0x000000000807852d                sp_ffD012nn64
                0x00000000080785a8                sp_ffD012nn63
                0x0000000008078640                sp_ffD012nn62
                0x0000000008078704                sp_ffD012nn61
                0x0000000008078795                sp_ffD012nn60
                0x000000000807882a                sp_ffD012nn59
                0x00000000080788a2                sp_ffD012nn58
                0x0000000008078930                sp_ffD012nn57
                0x00000000080789ab                sp_ffD012nn56
                0x0000000008078a8e                sp_ffD012nn55
                0x0000000008078b26                sp_ffD012nn54
                0x0000000008078bb1                sp_ffD012nn53
                0x0000000008078c1c                sp_ffD012nn52
                0x0000000008078ca0                sp_ffD012nn51
                0x0000000008078d1f                sp_ffD012nn50
                0x0000000008078d83                sp_ffD012nn49
                0x0000000008078e39                sp_ffD012nn48
                0x0000000008078ebc                sp_ffD012nn47
                0x0000000008078f42                sp_ffD012nn46
                0x0000000008078fc1                sp_ffD012nn45
                0x0000000008079055                sp_ffD012nn44
                0x0000000008079108                sp_ffD012nn43
                0x000000000807916c                sp_ffD012nn42
                0x0000000008079202                sp_ffD012nn41
                0x000000000807929e                sp_ffD012nn40
                0x0000000008079335                sp_ffD012nn39
                0x00000000080793b6                sp_ffD012nn38
                0x0000000008079435                sp_ffD012nn37
                0x00000000080794d8                sp_ffD012nn36
                0x0000000008079553                sp_ffD012nn35
                0x00000000080795ec                sp_ffD012nn34
                0x0000000008079653                sp_ffD012nn33
                0x00000000080796d0                sp_ffD012nn32
                0x00000000080797a0                sp_ffD012nn31
                0x0000000008079832                sp_ffD012nn30
                0x0000000008079892                sp_ffD012nn29
                0x000000000807994b                sp_ffD012nn28
                0x00000000080799f7                sp_ffD012nn27
                0x0000000008079a5c                sp_ffD012nn26
                0x0000000008079ac7                sp_ffD012nn25
                0x0000000008079b5e                sp_ffD012nn24
                0x0000000008079bfc                sp_ffD012nn23
                0x0000000008079cca                sp_ffD012nn22
                0x0000000008079d74                sp_ffD012nn21
                0x0000000008079e20                sp_ffD012nn20
                0x0000000008079eb9                sp_ffD012nn19
                0x0000000008079f80                sp_ffD012nn18
                0x000000000807a005                sp_ffD012nn17
                0x000000000807a08a                sp_ffD012nn16
                0x000000000807a114                sp_ffD012nn15
                0x000000000807a1d0                sp_ffD012nn14
                0x000000000807a25a                sp_ffD012nn13
                0x000000000807a2cb                sp_ffD012nn12
                0x000000000807a34a                sp_ffD012nn11
                0x000000000807a3d6                sp_ffD012nn10
                0x000000000807a464                sp_ffD012nn9
                0x000000000807a4f8                sp_ffD012nn8
                0x000000000807a5bb                sp_ffD012nn7
                0x000000000807a68b                sp_ffD012nn6
                0x000000000807a724                sp_ffD012nn5
                0x000000000807a81b                sp_ffD012nn4
                0x000000000807a8a8                sp_ffD012nn3
                0x000000000807a988                sp_ffD012nn2
                0x000000000807a9fe                sp_ffD012nn1
                0x000000000807aac2                sp_ffD012nn0
                0x000000000807ab65                sp_ffD011nn90
                0x000000000807abe8                sp_ffD011nn89
                0x000000000807ac4b                sp_ffD011nn88
                0x000000000807acad                sp_ffD011nn87
                0x000000000807ad22                sp_ffD011nn86
                0x000000000807ada5                sp_ffD011nn85
                0x000000000807ae24                sp_ffD011nn84
                0x000000000807aeb8                sp_ffD011nn83
                0x000000000807af2e                sp_ffD011nn82
                0x000000000807afc5                sp_ffD011nn81
                0x000000000807b033                sp_ffD011nn80
                0x000000000807b0b2                sp_ffD011nn79
                0x000000000807b178                sp_ffD011nn78
                0x000000000807b20e                sp_ffD011nn77
                0x000000000807b2e5                sp_ffD011nn76
                0x000000000807b39c                sp_ffD011nn75
                0x000000000807b429                sp_ffD011nn74
                0x000000000807b4cf                sp_ffD011nn73
                0x000000000807b573                sp_ffD011nn72
                0x000000000807b62e                sp_ffD011nn71
                0x000000000807b6be                sp_ffD011nn70
                0x000000000807b727                sp_ffD011nn69
                0x000000000807b78e                sp_ffD011nn68
                0x000000000807b82b                sp_ffD011nn67
                0x000000000807b8c1                sp_ffD011nn66
                0x000000000807b95a                sp_ffD011nn65
                0x000000000807b9d2                sp_ffD011nn64
                0x000000000807ba90                sp_ffD011nn63
                0x000000000807bb1c                sp_ffD011nn62
                0x000000000807bbbe                sp_ffD011nn61
                0x000000000807bc83                sp_ffD011nn60
                0x000000000807bd13                sp_ffD011nn59
                0x000000000807bd8d                sp_ffD011nn58
                0x000000000807bdfe                sp_ffD011nn57
                0x000000000807bebf                sp_ffD011nn56
                0x000000000807bf28                sp_ffD011nn55
                0x000000000807bf83                sp_ffD011nn54
                0x000000000807c013                sp_ffD011nn53
                0x000000000807c066                sp_ffD011nn52
                0x000000000807c0df                sp_ffD011nn51
                0x000000000807c13c                sp_ffD011nn50
                0x000000000807c1be                sp_ffD011nn49
                0x000000000807c24c                sp_ffD011nn48
                0x000000000807c2e9                sp_ffD011nn47
                0x000000000807c377                sp_ffD011nn46
                0x000000000807c419                sp_ffD011nn45
                0x000000000807c498                sp_ffD011nn44
                0x000000000807c512                sp_ffD011nn43
                0x000000000807c568                sp_ffD011nn42
                0x000000000807c60a                sp_ffD011nn41
                0x000000000807c6a5                sp_ffD011nn40
                0x000000000807c756                sp_ffD011nn39
                0x000000000807c7ee                sp_ffD011nn38
                0x000000000807c895                sp_ffD011nn37
                0x000000000807c904                sp_ffD011nn36
                0x000000000807c9a7                sp_ffD011nn35
                0x000000000807ca0d                sp_ffD011nn34
                0x000000000807ca8f                sp_ffD011nn33
                0x000000000807cb32                sp_ffD011nn32
                0x000000000807cbc0                sp_ffD011nn31
                0x000000000807cc49                sp_ffD011nn30
                0x000000000807cce8                sp_ffD011nn29
                0x000000000807cd7f                sp_ffD011nn28
                0x000000000807ce08                sp_ffD011nn27
                0x000000000807ce72                sp_ffD011nn26
                0x000000000807cf20                sp_ffD011nn25
                0x000000000807cff7                sp_ffD011nn24
                0x000000000807d082                sp_ffD011nn23
                0x000000000807d0f5                sp_ffD011nn22
                0x000000000807d186                sp_ffD011nn21
                0x000000000807d1f7                sp_ffD011nn20
                0x000000000807d281                sp_ffD011nn19
                0x000000000807d324                sp_ffD011nn18
                0x000000000807d3b8                sp_ffD011nn17
                0x000000000807d443                sp_ffD011nn16
                0x000000000807d4d6                sp_ffD011nn15
                0x000000000807d590                sp_ffD011nn14
                0x000000000807d646                sp_ffD011nn13
                0x000000000807d6da                sp_ffD011nn12
                0x000000000807d790                sp_ffD011nn11
                0x000000000807d835                sp_ffD011nn10
                0x000000000807d8eb                sp_ffD011nn9
                0x000000000807d9a1                sp_ffD011nn8
                0x000000000807da13                sp_ffD011nn7
                0x000000000807daeb                sp_ffD011nn6
                0x000000000807dbc2                sp_ffD011nn5
                0x000000000807dc6d                sp_ffD011nn4
                0x000000000807dcef                sp_ffD011nn3
                0x000000000807ddab                sp_ffD011nn2
                0x000000000807de5a                sp_ffD011nn1
                0x000000000807df2f                sp_ffD011nn0
                0x000000000807dfeb                sp_ffD010nn173
                0x000000000807e072                sp_ffD010nn172
                0x000000000807e103                sp_ffD010nn171
                0x000000000807e1ac                sp_ffD010nn170
                0x000000000807e27b                sp_ffD010nn169
                0x000000000807e31b                sp_ffD010nn168
                0x000000000807e3ea                sp_ffD010nn167
                0x000000000807e481                sp_ffD010nn166
                0x000000000807e512                sp_ffD010nn165
                0x000000000807e5ce                sp_ffD010nn164
                0x000000000807e688                sp_ffD010nn163
                0x000000000807e6fc                sp_ffD010nn162
                0x000000000807e76a                sp_ffD010nn161
                0x000000000807e7fe                sp_ffD010nn160
                0x000000000807e87f                sp_ffD010nn159
                0x000000000807e916                sp_ffD010nn158
                0x000000000807e9d6                sp_ffD010nn157
                0x000000000807ea7c                sp_ffD010nn156
                0x000000000807eaf8                sp_ffD010nn155
                0x000000000807eb9e                sp_ffD010nn154
                0x000000000807ec2f                sp_ffD010nn153
                0x000000000807ecf3                sp_ffD010nn152
                0x000000000807ed88                sp_ffD010nn151
                0x000000000807ee31                sp_ffD010nn150
                0x000000000807eed1                sp_ffD010nn149
                0x000000000807ef51                sp_ffD010nn148
                0x000000000807efc4                sp_ffD010nn147
                0x000000000807f094                sp_ffD010nn146
                0x000000000807f10d                sp_ffD010nn145
                0x000000000807f1c7                sp_ffD010nn144
                0x000000000807f285                sp_ffD010nn143
                0x000000000807f305                sp_ffD010nn142
                0x000000000807f3a0                sp_ffD010nn141
                0x000000000807f43b                sp_ffD010nn140
                0x000000000807f4d9                sp_ffD010nn139
                0x000000000807f567                sp_ffD010nn138
                0x000000000807f5e2                sp_ffD010nn137
                0x000000000807f65f                sp_ffD010nn136
                0x000000000807f6dc                sp_ffD010nn135
                0x000000000807f7b3                sp_ffD010nn134
                0x000000000807f874                sp_ffD010nn133
                0x000000000807f927                sp_ffD010nn132
                0x000000000807f9d8                sp_ffD010nn131
                0x000000000807fa56                sp_ffD010nn130
                0x000000000807faf8                sp_ffD010nn129
                0x000000000807fbf3                sp_ffD010nn128
                0x000000000807fcc4                sp_ffD010nn127
                0x000000000807fd48                sp_ffD010nn126
                0x000000000807fe07                sp_ffD010nn125
                0x000000000807fe6e                sp_ffD010nn124
                0x000000000807ff37                sp_ffD010nn123
                0x000000000807ff92                sp_ffD010nn122
                0x0000000008080035                sp_ffD010nn121
                0x00000000080800c0                sp_ffD010nn120
                0x0000000008080148                sp_ffD010nn119
                0x00000000080801eb                sp_ffD010nn118
                0x0000000008080296                sp_ffD010nn117
                0x000000000808030f                sp_ffD010nn116
                0x000000000808038b                sp_ffD010nn115
                0x000000000808041b                sp_ffD010nn114
                0x0000000008080499                sp_ffD010nn113
                0x000000000808053b                sp_ffD010nn112
                0x0000000008080615                sp_ffD010nn111
                0x00000000080806b1                sp_ffD010nn110
                0x000000000808075b                sp_ffD010nn109
                0x000000000808081d                sp_ffD010nn108
                0x00000000080808be                sp_ffD010nn107
                0x000000000808093d                sp_ffD010nn106
                0x00000000080809d1                sp_ffD010nn105
                0x0000000008080a75                sp_ffD010nn104
                0x0000000008080b1c                sp_ffD010nn103
                0x0000000008080bf4                sp_ffD010nn102
                0x0000000008080cc7                sp_ffD010nn101
                0x0000000008080d78                sp_ffD010nn100
                0x0000000008080e4e                sp_ffD010nn99
                0x0000000008080ee4                sp_ffD010nn98
                0x0000000008080f96                sp_ffD010nn97
                0x0000000008081020                sp_ffD010nn96
                0x0000000008081125                sp_ffD010nn95
                0x00000000080811ab                sp_ffD010nn94
                0x000000000808124b                sp_ffD010nn93
                0x000000000808130e                sp_ffD010nn92
                0x00000000080813b2                sp_ffD010nn91
                0x000000000808143a                sp_ffD010nn90
                0x00000000080814c8                sp_ffD010nn89
                0x0000000008081544                sp_ffD010nn88
                0x00000000080815fe                sp_ffD010nn87
                0x00000000080816a0                sp_ffD010nn86
                0x000000000808172e                sp_ffD010nn85
                0x00000000080817e0                sp_ffD010nn84
                0x0000000008081850                sp_ffD010nn83
                0x00000000080818fc                sp_ffD010nn82
                0x00000000080819bd                sp_ffD010nn81
                0x0000000008081a64                sp_ffD010nn80
                0x0000000008081af4                sp_ffD010nn79
                0x0000000008081b8c                sp_ffD010nn78
                0x0000000008081c21                sp_ffD010nn77
                0x0000000008081cc5                sp_ffD010nn76
                0x0000000008081d9c                sp_ffD010nn75
                0x0000000008081e3c                sp_ffD010nn74
                0x0000000008081ec6                sp_ffD010nn73
                0x0000000008081f60                sp_ffD010nn72
                0x0000000008081fd5                sp_ffD010nn71
                0x00000000080820a7                sp_ffD010nn70
                0x0000000008082153                sp_ffD010nn69
                0x00000000080821c6                sp_ffD010nn68
                0x0000000008082273                sp_ffD010nn67
                0x0000000008082307                sp_ffD010nn66
                0x00000000080823c8                sp_ffD010nn65
                0x000000000808246f                sp_ffD010nn64
                0x00000000080824f8                sp_ffD010nn63
                0x00000000080825a6                sp_ffD010nn62
                0x000000000808263a                sp_ffD010nn61
                0x00000000080826ee                sp_ffD010nn60
                0x00000000080827ae                sp_ffD010nn59
                0x0000000008082855                sp_ffD010nn58
                0x00000000080828f1                sp_ffD010nn57
                0x00000000080829b8                sp_ffD010nn56
                0x0000000008082a6d                sp_ffD010nn55
                0x0000000008082b10                sp_ffD010nn54
                0x0000000008082ba2                sp_ffD010nn53
                0x0000000008082c2a                sp_ffD010nn52
                0x0000000008082ccc                sp_ffD010nn51
                0x0000000008082d4d                sp_ffD010nn50
                0x0000000008082dc4                sp_ffD010nn49
                0x0000000008082e97                sp_ffD010nn48
                0x0000000008082f31                sp_ffD010nn47
                0x0000000008082ff6                sp_ffD010nn46
                0x00000000080830a6                sp_ffD010nn45
                0x0000000008083158                sp_ffD010nn44
                0x00000000080831fc                sp_ffD010nn43
                0x00000000080832a5                sp_ffD010nn42
                0x0000000008083328                sp_ffD010nn41
                0x00000000080833a3                sp_ffD010nn40
                0x0000000008083447                sp_ffD010nn39
                0x00000000080834f6                sp_ffD010nn38
                0x000000000808359e                sp_ffD010nn37
                0x000000000808362e                sp_ffD010nn36
                0x00000000080836b0                sp_ffD010nn35
                0x000000000808374f                sp_ffD010nn34
                0x00000000080837f5                sp_ffD010nn33
                0x00000000080838a3                sp_ffD010nn32
                0x0000000008083977                sp_ffD010nn31
                0x0000000008083a4d                sp_ffD010nn30
                0x0000000008083b1b                sp_ffD010nn29
                0x0000000008083be8                sp_ffD010nn28
                0x0000000008083c71                sp_ffD010nn27
                0x0000000008083ce5                sp_ffD010nn26
                0x0000000008083d9f                sp_ffD010nn25
                0x0000000008083e66                sp_ffD010nn24
                0x0000000008083f38                sp_ffD010nn23
                0x0000000008084030                sp_ffD010nn22
                0x0000000008084103                sp_ffD010nn21
                0x00000000080841bf                sp_ffD010nn20
                0x00000000080842ae                sp_ffD010nn19
                0x0000000008084386                sp_ffD010nn18
                0x0000000008084425                sp_ffD010nn17
                0x00000000080844bd                sp_ffD010nn16
                0x000000000808455c                sp_ffD010nn15
                0x00000000080845d8                sp_ffD010nn14
                0x0000000008084657                sp_ffD010nn13
                0x000000000808473f                sp_ffD010nn12
                0x00000000080847f6                sp_ffD010nn11
                0x000000000808489f                sp_ffD010nn10
                0x000000000808497c                sp_ffD010nn9
                0x0000000008084a21                sp_ffD010nn8
                0x0000000008084ac0                sp_ffD010nn7
                0x0000000008084b94                sp_ffD010nn6
                0x0000000008084c5e                sp_ffD010nn5
                0x0000000008084cf8                sp_ffD010nn4
                0x0000000008084db4                sp_ffD010nn3
                0x0000000008084e5a                sp_ffD010nn2
                0x0000000008084f1b                sp_ffD010nn1
                0x0000000008084f91                sp_ffD010nn0
                0x000000000808502d                sp_ffD009nn179
                0x00000000080850e8                sp_ffD009nn178
                0x0000000008085166                sp_ffD009nn177
                0x0000000008085220                sp_ffD009nn176
                0x00000000080852a3                sp_ffD009nn175
                0x0000000008085315                sp_ffD009nn174
                0x0000000008085368                sp_ffD009nn173
                0x00000000080853f4                sp_ffD009nn172
                0x0000000008085468                sp_ffD009nn171
                0x00000000080854f3                sp_ffD009nn170
                0x0000000008085577                sp_ffD009nn169
                0x00000000080855f9                sp_ffD009nn168
                0x00000000080856c2                sp_ffD009nn167
                0x0000000008085745                sp_ffD009nn166
                0x00000000080857e0                sp_ffD009nn165
                0x000000000808585e                sp_ffD009nn164
                0x0000000008085921                sp_ffD009nn163
                0x00000000080859a7                sp_ffD009nn162
                0x0000000008085a46                sp_ffD009nn161
                0x0000000008085b06                sp_ffD009nn160
                0x0000000008085b9b                sp_ffD009nn159
                0x0000000008085c23                sp_ffD009nn158
                0x0000000008085ce8                sp_ffD009nn157
                0x0000000008085d67                sp_ffD009nn156
                0x0000000008085e2d                sp_ffD009nn155
                0x0000000008085ee4                sp_ffD009nn154
                0x0000000008085f99                sp_ffD009nn153
                0x000000000808601e                sp_ffD009nn152
                0x00000000080860ab                sp_ffD009nn151
                0x0000000008086138                sp_ffD009nn150
                0x00000000080861f8                sp_ffD009nn149
                0x0000000008086240                sp_ffD009nn148
                0x00000000080862a2                sp_ffD009nn147
                0x000000000808634b                sp_ffD009nn146
                0x00000000080863f1                sp_ffD009nn145
                0x000000000808647d                sp_ffD009nn144
                0x000000000808651d                sp_ffD009nn143
                0x00000000080865b4                sp_ffD009nn142
                0x0000000008086610                sp_ffD009nn141
                0x00000000080866ad                sp_ffD009nn140
                0x000000000808673a                sp_ffD009nn139
                0x00000000080867ba                sp_ffD009nn138
                0x000000000808683b                sp_ffD009nn137
                0x00000000080868a4                sp_ffD009nn136
                0x00000000080868fd                sp_ffD009nn135
                0x0000000008086982                sp_ffD009nn134
                0x00000000080869f0                sp_ffD009nn133
                0x0000000008086a77                sp_ffD009nn132
                0x0000000008086b1b                sp_ffD009nn131
                0x0000000008086bba                sp_ffD009nn130
                0x0000000008086c75                sp_ffD009nn129
                0x0000000008086d02                sp_ffD009nn128
                0x0000000008086d97                sp_ffD009nn127
                0x0000000008086e2a                sp_ffD009nn126
                0x0000000008086ebc                sp_ffD009nn125
                0x0000000008086f2e                sp_ffD009nn124
                0x0000000008086fe9                sp_ffD009nn123
                0x0000000008087089                sp_ffD009nn122
                0x000000000808711f                sp_ffD009nn121
                0x0000000008087205                sp_ffD009nn120
                0x0000000008087295                sp_ffD009nn119
                0x0000000008087317                sp_ffD009nn118
                0x000000000808737b                sp_ffD009nn117
                0x0000000008087442                sp_ffD009nn116
                0x00000000080874bf                sp_ffD009nn115
                0x0000000008087545                sp_ffD009nn114
                0x00000000080875ce                sp_ffD009nn113
                0x000000000808766e                sp_ffD009nn112
                0x00000000080876f3                sp_ffD009nn111
                0x0000000008087797                sp_ffD009nn110
                0x0000000008087825                sp_ffD009nn109
                0x00000000080878ac                sp_ffD009nn108
                0x0000000008087903                sp_ffD009nn107
                0x00000000080879a9                sp_ffD009nn106
                0x0000000008087a0e                sp_ffD009nn105
                0x0000000008087a78                sp_ffD009nn104
                0x0000000008087ad6                sp_ffD009nn103
                0x0000000008087b93                sp_ffD009nn102
                0x0000000008087c23                sp_ffD009nn101
                0x0000000008087ca9                sp_ffD009nn100
                0x0000000008087d58                sp_ffD009nn99
                0x0000000008087dbc                sp_ffD009nn98
                0x0000000008087e2f                sp_ffD009nn97
                0x0000000008087e86                sp_ffD009nn96
                0x0000000008087f17                sp_ffD009nn95
                0x0000000008087fc8                sp_ffD009nn94
                0x0000000008088028                sp_ffD009nn93
                0x00000000080880e1                sp_ffD009nn92
                0x0000000008088171                sp_ffD009nn91
                0x000000000808820c                sp_ffD009nn90
                0x00000000080882ae                sp_ffD009nn89
                0x0000000008088344                sp_ffD009nn88
                0x00000000080883a2                sp_ffD009nn87
                0x0000000008088452                sp_ffD009nn86
                0x00000000080884f0                sp_ffD009nn85
                0x0000000008088570                sp_ffD009nn84
                0x0000000008088612                sp_ffD009nn83
                0x00000000080886be                sp_ffD009nn82
                0x0000000008088754                sp_ffD009nn81
                0x00000000080887f0                sp_ffD009nn80
                0x0000000008088872                sp_ffD009nn79
                0x00000000080888e1                sp_ffD009nn78
                0x0000000008088945                sp_ffD009nn77
                0x00000000080889f6                sp_ffD009nn76
                0x0000000008088a78                sp_ffD009nn75
                0x0000000008088b10                sp_ffD009nn74
                0x0000000008088b9c                sp_ffD009nn73
                0x0000000008088c44                sp_ffD009nn72
                0x0000000008088ce3                sp_ffD009nn71
                0x0000000008088d60                sp_ffD009nn70
                0x0000000008088dfd                sp_ffD009nn69
                0x0000000008088eb2                sp_ffD009nn68
                0x0000000008088f55                sp_ffD009nn67
                0x0000000008088fe4                sp_ffD009nn66
                0x0000000008089058                sp_ffD009nn65
                0x00000000080890da                sp_ffD009nn64
                0x0000000008089194                sp_ffD009nn63
                0x000000000808923e                sp_ffD009nn62
                0x000000000808928c                sp_ffD009nn61
                0x000000000808931b                sp_ffD009nn60
                0x00000000080893ab                sp_ffD009nn59
                0x0000000008089457                sp_ffD009nn58
                0x00000000080894ca                sp_ffD009nn57
                0x0000000008089563                sp_ffD009nn56
                0x00000000080895fe                sp_ffD009nn55
                0x000000000808967f                sp_ffD009nn54
                0x0000000008089708                sp_ffD009nn53
                0x000000000808979f                sp_ffD009nn52
                0x000000000808982d                sp_ffD009nn51
                0x0000000008089890                sp_ffD009nn50
                0x0000000008089904                sp_ffD009nn49
                0x00000000080899b6                sp_ffD009nn48
                0x0000000008089a2e                sp_ffD009nn47
                0x0000000008089a91                sp_ffD009nn46
                0x0000000008089b5a                sp_ffD009nn45
                0x0000000008089bf2                sp_ffD009nn44
                0x0000000008089c5e                sp_ffD009nn43
                0x0000000008089cde                sp_ffD009nn42
                0x0000000008089d5b                sp_ffD009nn41
                0x0000000008089e04                sp_ffD009nn40
                0x0000000008089ea6                sp_ffD009nn39
                0x0000000008089f26                sp_ffD009nn38
                0x0000000008089fd2                sp_ffD009nn37
                0x000000000808a08a                sp_ffD009nn36
                0x000000000808a117                sp_ffD009nn35
                0x000000000808a1b9                sp_ffD009nn34
                0x000000000808a273                sp_ffD009nn33
                0x000000000808a2e8                sp_ffD009nn32
                0x000000000808a392                sp_ffD009nn31
                0x000000000808a437                sp_ffD009nn30
                0x000000000808a493                sp_ffD009nn29
                0x000000000808a53d                sp_ffD009nn28
                0x000000000808a5c7                sp_ffD009nn27
                0x000000000808a63b                sp_ffD009nn26
                0x000000000808a6af                sp_ffD009nn25
                0x000000000808a753                sp_ffD009nn24
                0x000000000808a800                sp_ffD009nn23
                0x000000000808a889                sp_ffD009nn22
                0x000000000808a93f                sp_ffD009nn21
                0x000000000808a9cb                sp_ffD009nn20
                0x000000000808aa3a                sp_ffD009nn19
                0x000000000808aad7                sp_ffD009nn18
                0x000000000808ab68                sp_ffD009nn17
                0x000000000808abde                sp_ffD009nn16
                0x000000000808acc2                sp_ffD009nn15
                0x000000000808ad9b                sp_ffD009nn14
                0x000000000808ae41                sp_ffD009nn13
                0x000000000808aec6                sp_ffD009nn12
                0x000000000808af39                sp_ffD009nn11
                0x000000000808b00e                sp_ffD009nn10
                0x000000000808b0bd                sp_ffD009nn9
                0x000000000808b159                sp_ffD009nn8
                0x000000000808b1e6                sp_ffD009nn7
                0x000000000808b279                sp_ffD009nn6
                0x000000000808b2cc                sp_ffD009nn5
                0x000000000808b385                sp_ffD009nn4
                0x000000000808b419                sp_ffD009nn3
                0x000000000808b4f3                sp_ffD009nn2
                0x000000000808b5bc                sp_ffD009nn1
                0x000000000808b62f                sp_ffD009nn0
                0x000000000808b6b2                sp_ffD008nn111
                0x000000000808b764                sp_ffD008nn110
                0x000000000808b7e7                sp_ffD008nn109
                0x000000000808b8e2                sp_ffD008nn108
                0x000000000808b95d                sp_ffD008nn107
                0x000000000808b9fc                sp_ffD008nn106
                0x000000000808ba6b                sp_ffD008nn105
                0x000000000808bb07                sp_ffD008nn104
                0x000000000808bb97                sp_ffD008nn103
                0x000000000808bc64                sp_ffD008nn102
                0x000000000808bcff                sp_ffD008nn101
                0x000000000808bd7c                sp_ffD008nn100
                0x000000000808be55                sp_ffD008nn99
                0x000000000808becf                sp_ffD008nn98
                0x000000000808bf52                sp_ffD008nn97
                0x000000000808bfd3                sp_ffD008nn96
                0x000000000808c037                sp_ffD008nn95
                0x000000000808c0a2                sp_ffD008nn94
                0x000000000808c0fb                sp_ffD008nn93
                0x000000000808c1c0                sp_ffD008nn92
                0x000000000808c226                sp_ffD008nn91
                0x000000000808c299                sp_ffD008nn90
                0x000000000808c34a                sp_ffD008nn89
                0x000000000808c423                sp_ffD008nn88
                0x000000000808c493                sp_ffD008nn87
                0x000000000808c53c                sp_ffD008nn86
                0x000000000808c596                sp_ffD008nn85
                0x000000000808c640                sp_ffD008nn84
                0x000000000808c698                sp_ffD008nn83
                0x000000000808c718                sp_ffD008nn82
                0x000000000808c787                sp_ffD008nn81
                0x000000000808c7e9                sp_ffD008nn80
                0x000000000808c898                sp_ffD008nn79
                0x000000000808c93c                sp_ffD008nn78
                0x000000000808c99b                sp_ffD008nn77
                0x000000000808ca38                sp_ffD008nn76
                0x000000000808cab8                sp_ffD008nn75
                0x000000000808cb37                sp_ffD008nn74
                0x000000000808cbd8                sp_ffD008nn73
                0x000000000808cc66                sp_ffD008nn72
                0x000000000808ccf6                sp_ffD008nn71
                0x000000000808cd6e                sp_ffD008nn70
                0x000000000808ce2a                sp_ffD008nn69
                0x000000000808cee0                sp_ffD008nn68
                0x000000000808cf6e                sp_ffD008nn67
                0x000000000808d017                sp_ffD008nn66
                0x000000000808d0a9                sp_ffD008nn65
                0x000000000808d15f                sp_ffD008nn64
                0x000000000808d1f3                sp_ffD008nn63
                0x000000000808d284                sp_ffD008nn62
                0x000000000808d326                sp_ffD008nn61
                0x000000000808d3cd                sp_ffD008nn60
                0x000000000808d458                sp_ffD008nn59
                0x000000000808d4fb                sp_ffD008nn58
                0x000000000808d56e                sp_ffD008nn57
                0x000000000808d5d2                sp_ffD008nn56
                0x000000000808d66e                sp_ffD008nn55
                0x000000000808d703                sp_ffD008nn54
                0x000000000808d762                sp_ffD008nn53
                0x000000000808d7fe                sp_ffD008nn52
                0x000000000808d852                sp_ffD008nn51
                0x000000000808d8c5                sp_ffD008nn50
                0x000000000808d949                sp_ffD008nn49
                0x000000000808d9cb                sp_ffD008nn48
                0x000000000808da33                sp_ffD008nn47
                0x000000000808daa1                sp_ffD008nn46
                0x000000000808db08                sp_ffD008nn45
                0x000000000808db80                sp_ffD008nn44
                0x000000000808dc2e                sp_ffD008nn43
                0x000000000808dc7e                sp_ffD008nn42
                0x000000000808dd2d                sp_ffD008nn41
                0x000000000808dd83                sp_ffD008nn40
                0x000000000808dde1                sp_ffD008nn39
                0x000000000808de54                sp_ffD008nn38
                0x000000000808dedc                sp_ffD008nn37
                0x000000000808df6a                sp_ffD008nn36
                0x000000000808dfd9                sp_ffD008nn35
                0x000000000808e0a1                sp_ffD008nn34
                0x000000000808e123                sp_ffD008nn33
                0x000000000808e174                sp_ffD008nn32
                0x000000000808e1f0                sp_ffD008nn31
                0x000000000808e254                sp_ffD008nn30
                0x000000000808e2f3                sp_ffD008nn29
                0x000000000808e36a                sp_ffD008nn28
                0x000000000808e406                sp_ffD008nn27
                0x000000000808e471                sp_ffD008nn26
                0x000000000808e50a                sp_ffD008nn25
                0x000000000808e5a9                sp_ffD008nn24
                0x000000000808e615                sp_ffD008nn23
                0x000000000808e66b                sp_ffD008nn22
                0x000000000808e6cf                sp_ffD008nn21
                0x000000000808e751                sp_ffD008nn20
                0x000000000808e7cd                sp_ffD008nn19
                0x000000000808e85e                sp_ffD008nn18
                0x000000000808e927                sp_ffD008nn17
                0x000000000808e9a3                sp_ffD008nn16
                0x000000000808e9fa                sp_ffD008nn15
                0x000000000808eae2                sp_ffD008nn14
                0x000000000808eb69                sp_ffD008nn13
                0x000000000808ebea                sp_ffD008nn12
                0x000000000808ec64                sp_ffD008nn11
                0x000000000808ece0                sp_ffD008nn10
                0x000000000808ed7c                sp_ffD008nn9
                0x000000000808edf5                sp_ffD008nn8
                0x000000000808ee43                sp_ffD008nn7
                0x000000000808eea9                sp_ffD008nn6
                0x000000000808ef23                sp_ffD008nn5
                0x000000000808ef80                sp_ffD008nn4
                0x000000000808f01c                sp_ffD008nn3
                0x000000000808f0be                sp_ffD008nn2
                0x000000000808f166                sp_ffD008nn1
                0x000000000808f1b1                sp_ffD008nn0
                0x000000000808f266                sp_ffD007nn177
                0x000000000808f316                sp_ffD007nn176
                0x000000000808f38d                sp_ffD007nn175
                0x000000000808f42e                sp_ffD007nn174
                0x000000000808f4f2                sp_ffD007nn173
                0x000000000808f57c                sp_ffD007nn172
                0x000000000808f5e8                sp_ffD007nn171
                0x000000000808f6c8                sp_ffD007nn170
                0x000000000808f781                sp_ffD007nn169
                0x000000000808f7ec                sp_ffD007nn168
                0x000000000808f875                sp_ffD007nn167
                0x000000000808f900                sp_ffD007nn166
                0x000000000808f976                sp_ffD007nn165
                0x000000000808f9ea                sp_ffD007nn164
                0x000000000808fa6d                sp_ffD007nn163
                0x000000000808fac5                sp_ffD007nn162
                0x000000000808fb1e                sp_ffD007nn161
                0x000000000808fba0                sp_ffD007nn160
                0x000000000808fc1a                sp_ffD007nn159
                0x000000000808fcaf                sp_ffD007nn158
                0x000000000808fd11                sp_ffD007nn157
                0x000000000808fde3                sp_ffD007nn156
                0x000000000808fe71                sp_ffD007nn155
                0x000000000808ff0c                sp_ffD007nn154
                0x000000000808ff76                sp_ffD007nn153
                0x0000000008090028                sp_ffD007nn152
                0x00000000080900b9                sp_ffD007nn151
                0x00000000080901a3                sp_ffD007nn150
                0x0000000008090233                sp_ffD007nn149
                0x000000000809028e                sp_ffD007nn148
                0x0000000008090320                sp_ffD007nn147
                0x00000000080903a8                sp_ffD007nn146
                0x0000000008090440                sp_ffD007nn145
                0x00000000080904d2                sp_ffD007nn144
                0x000000000809053f                sp_ffD007nn143
                0x00000000080905c0                sp_ffD007nn142
                0x0000000008090668                sp_ffD007nn141
                0x0000000008090732                sp_ffD007nn140
                0x000000000809079d                sp_ffD007nn139
                0x0000000008090858                sp_ffD007nn138
                0x00000000080908cb                sp_ffD007nn137
                0x000000000809093b                sp_ffD007nn136
                0x00000000080909ce                sp_ffD007nn135
                0x0000000008090a40                sp_ffD007nn134
                0x0000000008090ac9                sp_ffD007nn133
                0x0000000008090b65                sp_ffD007nn132
                0x0000000008090c09                sp_ffD007nn131
                0x0000000008090c90                sp_ffD007nn130
                0x0000000008090d00                sp_ffD007nn129
                0x0000000008090d8e                sp_ffD007nn128
                0x0000000008090e23                sp_ffD007nn127
                0x0000000008090e9d                sp_ffD007nn126
                0x0000000008090f36                sp_ffD007nn125
                0x0000000008090fdb                sp_ffD007nn124
                0x0000000008091044                sp_ffD007nn123
                0x00000000080910ab                sp_ffD007nn122
                0x000000000809110a                sp_ffD007nn121
                0x0000000008091180                sp_ffD007nn120
                0x000000000809124b                sp_ffD007nn119
                0x00000000080912bd                sp_ffD007nn118
                0x0000000008091325                sp_ffD007nn117
                0x00000000080913d6                sp_ffD007nn116
                0x0000000008091476                sp_ffD007nn115
                0x00000000080914ef                sp_ffD007nn114
                0x000000000809156b                sp_ffD007nn113
                0x0000000008091614                sp_ffD007nn112
                0x0000000008091696                sp_ffD007nn111
                0x000000000809172c                sp_ffD007nn110
                0x00000000080917a1                sp_ffD007nn109
                0x0000000008091835                sp_ffD007nn108
                0x00000000080918f3                sp_ffD007nn107
                0x0000000008091989                sp_ffD007nn106
                0x0000000008091a57                sp_ffD007nn105
                0x0000000008091aec                sp_ffD007nn104
                0x0000000008091baa                sp_ffD007nn103
                0x0000000008091c5e                sp_ffD007nn102
                0x0000000008091ced                sp_ffD007nn101
                0x0000000008091d4c                sp_ffD007nn100
                0x0000000008091db4                sp_ffD007nn99
                0x0000000008091e30                sp_ffD007nn98
                0x0000000008091e85                sp_ffD007nn97
                0x0000000008091f05                sp_ffD007nn96
                0x0000000008091f81                sp_ffD007nn95
                0x0000000008091fe9                sp_ffD007nn94
                0x000000000809204d                sp_ffD007nn93
                0x00000000080920db                sp_ffD007nn92
                0x000000000809212a                sp_ffD007nn91
                0x00000000080921b0                sp_ffD007nn90
                0x0000000008092247                sp_ffD007nn89
                0x00000000080922c4                sp_ffD007nn88
                0x0000000008092391                sp_ffD007nn87
                0x0000000008092403                sp_ffD007nn86
                0x0000000008092484                sp_ffD007nn85
                0x0000000008092513                sp_ffD007nn84
                0x0000000008092584                sp_ffD007nn83
                0x00000000080925ee                sp_ffD007nn82
                0x000000000809264a                sp_ffD007nn81
                0x0000000008092720                sp_ffD007nn80
                0x00000000080927b4                sp_ffD007nn79
                0x0000000008092840                sp_ffD007nn78
                0x00000000080928ee                sp_ffD007nn77
                0x0000000008092966                sp_ffD007nn76
                0x0000000008092a07                sp_ffD007nn75
                0x0000000008092aca                sp_ffD007nn74
                0x0000000008092b31                sp_ffD007nn73
                0x0000000008092bd6                sp_ffD007nn72
                0x0000000008092c3b                sp_ffD007nn71
                0x0000000008092cbd                sp_ffD007nn70
                0x0000000008092d35                sp_ffD007nn69
                0x0000000008092dbd                sp_ffD007nn68
                0x0000000008092e46                sp_ffD007nn67
                0x0000000008092ed5                sp_ffD007nn66
                0x0000000008092f45                sp_ffD007nn65
                0x0000000008092f8f                sp_ffD007nn64
                0x000000000809303b                sp_ffD007nn63
                0x00000000080930ae                sp_ffD007nn62
                0x00000000080930fd                sp_ffD007nn61
                0x0000000008093166                sp_ffD007nn60
                0x00000000080931eb                sp_ffD007nn59
                0x0000000008093285                sp_ffD007nn58
                0x00000000080932e9                sp_ffD007nn57
                0x00000000080933b6                sp_ffD007nn56
                0x0000000008093405                sp_ffD007nn55
                0x000000000809345d                sp_ffD007nn54
                0x0000000008093509                sp_ffD007nn53
                0x000000000809358c                sp_ffD007nn52
                0x0000000008093602                sp_ffD007nn51
                0x0000000008093673                sp_ffD007nn50
                0x000000000809371a                sp_ffD007nn49
                0x0000000008093793                sp_ffD007nn48
                0x0000000008093838                sp_ffD007nn47
                0x0000000008093888                sp_ffD007nn46
                0x00000000080938f6                sp_ffD007nn45
                0x000000000809396a                sp_ffD007nn44
                0x00000000080939eb                sp_ffD007nn43
                0x0000000008093a62                sp_ffD007nn42
                0x0000000008093b10                sp_ffD007nn41
                0x0000000008093b5e                sp_ffD007nn40
                0x0000000008093bf1                sp_ffD007nn39
                0x0000000008093c80                sp_ffD007nn38
                0x0000000008093cd5                sp_ffD007nn37
                0x0000000008093d2e                sp_ffD007nn36
                0x0000000008093da8                sp_ffD007nn35
                0x0000000008093e00                sp_ffD007nn34
                0x0000000008093e6a                sp_ffD007nn33
                0x0000000008093edb                sp_ffD007nn32
                0x0000000008093f6a                sp_ffD007nn31
                0x0000000008094022                sp_ffD007nn30
                0x0000000008094090                sp_ffD007nn29
                0x0000000008094117                sp_ffD007nn28
                0x000000000809417a                sp_ffD007nn27
                0x000000000809421d                sp_ffD007nn26
                0x00000000080942b7                sp_ffD007nn25
                0x0000000008094388                sp_ffD007nn24
                0x000000000809440a                sp_ffD007nn23
                0x00000000080944ad                sp_ffD007nn22
                0x0000000008094512                sp_ffD007nn21
                0x0000000008094596                sp_ffD007nn20
                0x0000000008094616                sp_ffD007nn19
                0x00000000080946ad                sp_ffD007nn18
                0x0000000008094741                sp_ffD007nn17
                0x00000000080947ad                sp_ffD007nn16
                0x0000000008094849                sp_ffD007nn15
                0x00000000080948d1                sp_ffD007nn14
                0x0000000008094953                sp_ffD007nn13
                0x00000000080949c0                sp_ffD007nn12
                0x0000000008094aac                sp_ffD007nn11
                0x0000000008094b1a                sp_ffD007nn10
                0x0000000008094b98                sp_ffD007nn9
                0x0000000008094c65                sp_ffD007nn8
                0x0000000008094cc2                sp_ffD007nn7
                0x0000000008094d2c                sp_ffD007nn6
                0x0000000008094db0                sp_ffD007nn5
                0x0000000008094e4b                sp_ffD007nn4
                0x0000000008094eff                sp_ffD007nn3
                0x0000000008094fa5                sp_ffD007nn2
                0x0000000008095024                sp_ffD007nn1
                0x00000000080950e1                sp_ffD007nn0
                0x0000000008095147                sp_ffD006nn141
                0x00000000080951cf                sp_ffD006nn140
                0x0000000008095263                sp_ffD006nn139
                0x00000000080952e6                sp_ffD006nn138
                0x0000000008095355                sp_ffD006nn137
                0x00000000080953c3                sp_ffD006nn136
                0x0000000008095460                sp_ffD006nn135
                0x00000000080954cf                sp_ffD006nn134
                0x0000000008095568                sp_ffD006nn133
                0x00000000080955f2                sp_ffD006nn132
                0x000000000809566c                sp_ffD006nn131
                0x00000000080956de                sp_ffD006nn130
                0x0000000008095747                sp_ffD006nn129
                0x00000000080957bf                sp_ffD006nn128
                0x0000000008095834                sp_ffD006nn127
                0x00000000080958ae                sp_ffD006nn126
                0x0000000008095937                sp_ffD006nn125
                0x00000000080959b8                sp_ffD006nn124
                0x0000000008095a1c                sp_ffD006nn123
                0x0000000008095a82                sp_ffD006nn122
                0x0000000008095afa                sp_ffD006nn121
                0x0000000008095b8d                sp_ffD006nn120
                0x0000000008095c19                sp_ffD006nn119
                0x0000000008095c76                sp_ffD006nn118
                0x0000000008095cd6                sp_ffD006nn117
                0x0000000008095d3c                sp_ffD006nn116
                0x0000000008095da7                sp_ffD006nn115
                0x0000000008095e2a                sp_ffD006nn114
                0x0000000008095eaa                sp_ffD006nn113
                0x0000000008095f73                sp_ffD006nn112
                0x0000000008095fd9                sp_ffD006nn111
                0x0000000008096053                sp_ffD006nn110
                0x00000000080960ec                sp_ffD006nn109
                0x00000000080961de                sp_ffD006nn108
                0x0000000008096253                sp_ffD006nn107
                0x00000000080962e7                sp_ffD006nn106
                0x0000000008096381                sp_ffD006nn105
                0x0000000008096408                sp_ffD006nn104
                0x000000000809647c                sp_ffD006nn103
                0x00000000080964f0                sp_ffD006nn102
                0x000000000809656a                sp_ffD006nn101
                0x00000000080965d3                sp_ffD006nn100
                0x000000000809662d                sp_ffD006nn99
                0x0000000008096691                sp_ffD006nn98
                0x00000000080966e1                sp_ffD006nn97
                0x000000000809672b                sp_ffD006nn96
                0x000000000809678f                sp_ffD006nn95
                0x000000000809685a                sp_ffD006nn94
                0x0000000008096909                sp_ffD006nn93
                0x000000000809698a                sp_ffD006nn92
                0x0000000008096a32                sp_ffD006nn91
                0x0000000008096aa0                sp_ffD006nn90
                0x0000000008096b30                sp_ffD006nn89
                0x0000000008096ba7                sp_ffD006nn88
                0x0000000008096c11                sp_ffD006nn87
                0x0000000008096ca4                sp_ffD006nn86
                0x0000000008096d26                sp_ffD006nn85
                0x0000000008096d9b                sp_ffD006nn84
                0x0000000008096e4c                sp_ffD006nn83
                0x0000000008096ebf                sp_ffD006nn82
                0x0000000008096f1d                sp_ffD006nn81
                0x0000000008096f96                sp_ffD006nn80
                0x0000000008097000                sp_ffD006nn79
                0x0000000008097065                sp_ffD006nn78
                0x00000000080970d6                sp_ffD006nn77
                0x0000000008097144                sp_ffD006nn76
                0x000000000809719d                sp_ffD006nn75
                0x0000000008097221                sp_ffD006nn74
                0x00000000080972bd                sp_ffD006nn73
                0x000000000809732b                sp_ffD006nn72
                0x000000000809737a                sp_ffD006nn71
                0x00000000080973e4                sp_ffD006nn70
                0x000000000809745a                sp_ffD006nn69
                0x00000000080974e9                sp_ffD006nn68
                0x0000000008097550                sp_ffD006nn67
                0x00000000080975b0                sp_ffD006nn66
                0x000000000809764c                sp_ffD006nn65
                0x00000000080976ba                sp_ffD006nn64
                0x00000000080976fe                sp_ffD006nn63
                0x0000000008097755                sp_ffD006nn62
                0x00000000080977df                sp_ffD006nn61
                0x0000000008097858                sp_ffD006nn60
                0x00000000080978cf                sp_ffD006nn59
                0x0000000008097921                sp_ffD006nn58
                0x000000000809799c                sp_ffD006nn57
                0x00000000080979ed                sp_ffD006nn56
                0x0000000008097a63                sp_ffD006nn55
                0x0000000008097a9f                sp_ffD006nn54
                0x0000000008097b5a                sp_ffD006nn53
                0x0000000008097be4                sp_ffD006nn52
                0x0000000008097c60                sp_ffD006nn51
                0x0000000008097cac                sp_ffD006nn50
                0x0000000008097d09                sp_ffD006nn49
                0x0000000008097d5c                sp_ffD006nn48
                0x0000000008097dd9                sp_ffD006nn47
                0x0000000008097e44                sp_ffD006nn46
                0x0000000008097ee8                sp_ffD006nn45
                0x0000000008097f40                sp_ffD006nn44
                0x0000000008097fa0                sp_ffD006nn43
                0x0000000008097fe6                sp_ffD006nn42
                0x0000000008098040                sp_ffD006nn41
                0x000000000809809d                sp_ffD006nn40
                0x000000000809811a                sp_ffD006nn39
                0x0000000008098194                sp_ffD006nn38
                0x0000000008098219                sp_ffD006nn37
                0x00000000080982b5                sp_ffD006nn36
                0x000000000809831a                sp_ffD006nn35
                0x00000000080983ab                sp_ffD006nn34
                0x0000000008098415                sp_ffD006nn33
                0x0000000008098494                sp_ffD006nn32
                0x00000000080984f6                sp_ffD006nn31
                0x000000000809857e                sp_ffD006nn30
                0x0000000008098606                sp_ffD006nn29
                0x0000000008098696                sp_ffD006nn28
                0x00000000080986f0                sp_ffD006nn27
                0x0000000008098770                sp_ffD006nn26
                0x0000000008098839                sp_ffD006nn25
                0x00000000080988e1                sp_ffD006nn24
                0x000000000809893a                sp_ffD006nn23
                0x0000000008098a28                sp_ffD006nn22
                0x0000000008098aeb                sp_ffD006nn21
                0x0000000008098b48                sp_ffD006nn20
                0x0000000008098be0                sp_ffD006nn19
                0x0000000008098c3c                sp_ffD006nn18
                0x0000000008098c85                sp_ffD006nn17
                0x0000000008098d16                sp_ffD006nn16
                0x0000000008098d74                sp_ffD006nn15
                0x0000000008098dec                sp_ffD006nn14
                0x0000000008098eac                sp_ffD006nn13
                0x0000000008098efb                sp_ffD006nn12
                0x0000000008098f6e                sp_ffD006nn11
                0x0000000008098fed                sp_ffD006nn10
                0x0000000008099056                sp_ffD006nn9
                0x00000000080990c6                sp_ffD006nn8
                0x0000000008099138                sp_ffD006nn7
                0x00000000080991f4                sp_ffD006nn6
                0x000000000809925e                sp_ffD006nn5
                0x00000000080992cb                sp_ffD006nn4
                0x000000000809932c                sp_ffD006nn3
                0x00000000080993a2                sp_ffD006nn2
                0x0000000008099433                sp_ffD006nn1
                0x0000000008099499                sp_ffD006nn0
                0x0000000008099545                sp_ffD005nn198
                0x00000000080995ec                sp_ffD005nn197
                0x000000000809964a                sp_ffD005nn196
                0x00000000080996fd                sp_ffD005nn195
                0x0000000008099773                sp_ffD005nn194
                0x00000000080997ec                sp_ffD005nn193
                0x0000000008099872                sp_ffD005nn192
                0x000000000809993b                sp_ffD005nn191
                0x00000000080999b6                sp_ffD005nn190
                0x0000000008099a24                sp_ffD005nn189
                0x0000000008099a97                sp_ffD005nn188
                0x0000000008099b4c                sp_ffD005nn187
                0x0000000008099bcc                sp_ffD005nn186
                0x0000000008099c72                sp_ffD005nn185
                0x0000000008099cf8                sp_ffD005nn184
                0x0000000008099d67                sp_ffD005nn183
                0x0000000008099de5                sp_ffD005nn182
                0x0000000008099e57                sp_ffD005nn181
                0x0000000008099ed9                sp_ffD005nn180
                0x0000000008099f55                sp_ffD005nn179
                0x000000000809a002                sp_ffD005nn178
                0x000000000809a08f                sp_ffD005nn177
                0x000000000809a0f9                sp_ffD005nn176
                0x000000000809a16a                sp_ffD005nn175
                0x000000000809a226                sp_ffD005nn174
                0x000000000809a28d                sp_ffD005nn173
                0x000000000809a35c                sp_ffD005nn172
                0x000000000809a3e6                sp_ffD005nn171
                0x000000000809a4a0                sp_ffD005nn170
                0x000000000809a51a                sp_ffD005nn169
                0x000000000809a58b                sp_ffD005nn168
                0x000000000809a610                sp_ffD005nn167
                0x000000000809a695                sp_ffD005nn166
                0x000000000809a720                sp_ffD005nn165
                0x000000000809a77e                sp_ffD005nn164
                0x000000000809a7fb                sp_ffD005nn163
                0x000000000809a894                sp_ffD005nn162
                0x000000000809a91d                sp_ffD005nn161
                0x000000000809a982                sp_ffD005nn160
                0x000000000809a9d9                sp_ffD005nn159
                0x000000000809aa91                sp_ffD005nn158
                0x000000000809aae9                sp_ffD005nn157
                0x000000000809ab7c                sp_ffD005nn156
                0x000000000809abfa                sp_ffD005nn155
                0x000000000809ac5a                sp_ffD005nn154
                0x000000000809acd5                sp_ffD005nn153
                0x000000000809ad58                sp_ffD005nn152
                0x000000000809addc                sp_ffD005nn151
                0x000000000809ae61                sp_ffD005nn150
                0x000000000809aebc                sp_ffD005nn149
                0x000000000809af55                sp_ffD005nn148
                0x000000000809afe7                sp_ffD005nn147
                0x000000000809b068                sp_ffD005nn146
                0x000000000809b0b3                sp_ffD005nn145
                0x000000000809b127                sp_ffD005nn144
                0x000000000809b1f2                sp_ffD005nn143
                0x000000000809b24d                sp_ffD005nn142
                0x000000000809b299                sp_ffD005nn141
                0x000000000809b33d                sp_ffD005nn140
                0x000000000809b3e4                sp_ffD005nn139
                0x000000000809b436                sp_ffD005nn138
                0x000000000809b4fe                sp_ffD005nn137
                0x000000000809b589                sp_ffD005nn136
                0x000000000809b5d8                sp_ffD005nn135
                0x000000000809b63e                sp_ffD005nn134
                0x000000000809b69e                sp_ffD005nn133
                0x000000000809b70e                sp_ffD005nn132
                0x000000000809b79d                sp_ffD005nn131
                0x000000000809b83c                sp_ffD005nn130
                0x000000000809b8cc                sp_ffD005nn129
                0x000000000809b944                sp_ffD005nn128
                0x000000000809b9c8                sp_ffD005nn127
                0x000000000809ba58                sp_ffD005nn126
                0x000000000809bad6                sp_ffD005nn125
                0x000000000809bb58                sp_ffD005nn124
                0x000000000809bbec                sp_ffD005nn123
                0x000000000809bc60                sp_ffD005nn122
                0x000000000809bcdd                sp_ffD005nn121
                0x000000000809bd56                sp_ffD005nn120
                0x000000000809bdd6                sp_ffD005nn119
                0x000000000809be7f                sp_ffD005nn118
                0x000000000809bec9                sp_ffD005nn117
                0x000000000809bf19                sp_ffD005nn116
                0x000000000809bfd9                sp_ffD005nn115
                0x000000000809c056                sp_ffD005nn114
                0x000000000809c12b                sp_ffD005nn113
                0x000000000809c1c7                sp_ffD005nn112
                0x000000000809c211                sp_ffD005nn111
                0x000000000809c2ae                sp_ffD005nn110
                0x000000000809c31e                sp_ffD005nn109
                0x000000000809c3da                sp_ffD005nn108
                0x000000000809c44f                sp_ffD005nn107
                0x000000000809c4fd                sp_ffD005nn106
                0x000000000809c575                sp_ffD005nn105
                0x000000000809c60b                sp_ffD005nn104
                0x000000000809c686                sp_ffD005nn103
                0x000000000809c6f0                sp_ffD005nn102
                0x000000000809c7bd                sp_ffD005nn101
                0x000000000809c848                sp_ffD005nn100
                0x000000000809c8b1                sp_ffD005nn99
                0x000000000809c982                sp_ffD005nn98
                0x000000000809ca33                sp_ffD005nn97
                0x000000000809cacb                sp_ffD005nn96
                0x000000000809cb7f                sp_ffD005nn95
                0x000000000809cc23                sp_ffD005nn94
                0x000000000809ccd0                sp_ffD005nn93
                0x000000000809cd8c                sp_ffD005nn92
                0x000000000809ce2f                sp_ffD005nn91
                0x000000000809cedc                sp_ffD005nn90
                0x000000000809cf9f                sp_ffD005nn89
                0x000000000809d064                sp_ffD005nn88
                0x000000000809d0f5                sp_ffD005nn87
                0x000000000809d163                sp_ffD005nn86
                0x000000000809d21f                sp_ffD005nn85
                0x000000000809d305                sp_ffD005nn84
                0x000000000809d3c5                sp_ffD005nn83
                0x000000000809d426                sp_ffD005nn82
                0x000000000809d4bc                sp_ffD005nn81
                0x000000000809d545                sp_ffD005nn80
                0x000000000809d5a9                sp_ffD005nn79
                0x000000000809d638                sp_ffD005nn78
                0x000000000809d69c                sp_ffD005nn77
                0x000000000809d728                sp_ffD005nn76
                0x000000000809d7a3                sp_ffD005nn75
                0x000000000809d843                sp_ffD005nn74
                0x000000000809d8f1                sp_ffD005nn73
                0x000000000809d986                sp_ffD005nn72
                0x000000000809d9fd                sp_ffD005nn71
                0x000000000809da7e                sp_ffD005nn70
                0x000000000809db23                sp_ffD005nn69
                0x000000000809dbdc                sp_ffD005nn68
                0x000000000809dc80                sp_ffD005nn67
                0x000000000809dd08                sp_ffD005nn66
                0x000000000809ddd5                sp_ffD005nn65
                0x000000000809de34                sp_ffD005nn64
                0x000000000809dec8                sp_ffD005nn63
                0x000000000809df4b                sp_ffD005nn62
                0x000000000809dfce                sp_ffD005nn61
                0x000000000809e02a                sp_ffD005nn60
                0x000000000809e0a7                sp_ffD005nn59
                0x000000000809e109                sp_ffD005nn58
                0x000000000809e17b                sp_ffD005nn57
                0x000000000809e1f2                sp_ffD005nn56
                0x000000000809e289                sp_ffD005nn55
                0x000000000809e300                sp_ffD005nn54
                0x000000000809e3a6                sp_ffD005nn53
                0x000000000809e428                sp_ffD005nn52
                0x000000000809e4ac                sp_ffD005nn51
                0x000000000809e51d                sp_ffD005nn50
                0x000000000809e5b0                sp_ffD005nn49
                0x000000000809e663                sp_ffD005nn48
                0x000000000809e70c                sp_ffD005nn47
                0x000000000809e79e                sp_ffD005nn46
                0x000000000809e824                sp_ffD005nn45
                0x000000000809e8bf                sp_ffD005nn44
                0x000000000809e973                sp_ffD005nn43
                0x000000000809ea13                sp_ffD005nn42
                0x000000000809ea97                sp_ffD005nn41
                0x000000000809eb22                sp_ffD005nn40
                0x000000000809eb86                sp_ffD005nn39
                0x000000000809ebf9                sp_ffD005nn38
                0x000000000809ec5a                sp_ffD005nn37
                0x000000000809ed18                sp_ffD005nn36
                0x000000000809ed9b                sp_ffD005nn35
                0x000000000809ee0b                sp_ffD005nn34
                0x000000000809ee60                sp_ffD005nn33
                0x000000000809eed9                sp_ffD005nn32
                0x000000000809ef52                sp_ffD005nn31
                0x000000000809efc1                sp_ffD005nn30
                0x000000000809f045                sp_ffD005nn29
                0x000000000809f0ff                sp_ffD005nn28
                0x000000000809f161                sp_ffD005nn27
                0x000000000809f1bf                sp_ffD005nn26
                0x000000000809f250                sp_ffD005nn25
                0x000000000809f2bf                sp_ffD005nn24
                0x000000000809f33d                sp_ffD005nn23
                0x000000000809f3ce                sp_ffD005nn22
                0x000000000809f47a                sp_ffD005nn21
                0x000000000809f525                sp_ffD005nn20
                0x000000000809f601                sp_ffD005nn19
                0x000000000809f6cd                sp_ffD005nn18
                0x000000000809f757                sp_ffD005nn17
                0x000000000809f7b3                sp_ffD005nn16
                0x000000000809f821                sp_ffD005nn15
                0x000000000809f8a3                sp_ffD005nn14
                0x000000000809f913                sp_ffD005nn13
                0x000000000809f980                sp_ffD005nn12
                0x000000000809fa18                sp_ffD005nn11
                0x000000000809fa7d                sp_ffD005nn10
                0x000000000809fb1e                sp_ffD005nn9
                0x000000000809fb7d                sp_ffD005nn8
                0x000000000809fc24                sp_ffD005nn7
                0x000000000809fc82                sp_ffD005nn6
                0x000000000809fcfe                sp_ffD005nn5
                0x000000000809fd90                sp_ffD005nn4
                0x000000000809fe2d                sp_ffD005nn3
                0x000000000809fe9c                sp_ffD005nn2
                0x000000000809ff37                sp_ffD005nn1
                0x000000000809ffb8                sp_ffD005nn0
                0x00000000080a002b                sp_ffD004nn198
                0x00000000080a008a                sp_ffD004nn197
                0x00000000080a0113                sp_ffD004nn196
                0x00000000080a01d9                sp_ffD004nn195
                0x00000000080a0262                sp_ffD004nn194
                0x00000000080a032f                sp_ffD004nn193
                0x00000000080a03a5                sp_ffD004nn192
                0x00000000080a0406                sp_ffD004nn191
                0x00000000080a04c2                sp_ffD004nn190
                0x00000000080a0519                sp_ffD004nn189
                0x00000000080a05ab                sp_ffD004nn188
                0x00000000080a0626                sp_ffD004nn187
                0x00000000080a0685                sp_ffD004nn186
                0x00000000080a06f4                sp_ffD004nn185
                0x00000000080a0785                sp_ffD004nn184
                0x00000000080a07e7                sp_ffD004nn183
                0x00000000080a0893                sp_ffD004nn182
                0x00000000080a0926                sp_ffD004nn181
                0x00000000080a09b7                sp_ffD004nn180
                0x00000000080a0a74                sp_ffD004nn179
                0x00000000080a0b21                sp_ffD004nn178
                0x00000000080a0bbc                sp_ffD004nn177
                0x00000000080a0c26                sp_ffD004nn176
                0x00000000080a0c88                sp_ffD004nn175
                0x00000000080a0d23                sp_ffD004nn174
                0x00000000080a0d6e                sp_ffD004nn173
                0x00000000080a0dc5                sp_ffD004nn172
                0x00000000080a0e72                sp_ffD004nn171
                0x00000000080a0ede                sp_ffD004nn170
                0x00000000080a0f33                sp_ffD004nn169
                0x00000000080a0fae                sp_ffD004nn168
                0x00000000080a1015                sp_ffD004nn167
                0x00000000080a106c                sp_ffD004nn166
                0x00000000080a110e                sp_ffD004nn165
                0x00000000080a11bb                sp_ffD004nn164
                0x00000000080a1257                sp_ffD004nn163
                0x00000000080a12cf                sp_ffD004nn162
                0x00000000080a133f                sp_ffD004nn161
                0x00000000080a13a3                sp_ffD004nn160
                0x00000000080a1438                sp_ffD004nn159
                0x00000000080a14c5                sp_ffD004nn158
                0x00000000080a152f                sp_ffD004nn157
                0x00000000080a1581                sp_ffD004nn156
                0x00000000080a1643                sp_ffD004nn155
                0x00000000080a16b2                sp_ffD004nn154
                0x00000000080a1718                sp_ffD004nn153
                0x00000000080a17ad                sp_ffD004nn152
                0x00000000080a1878                sp_ffD004nn151
                0x00000000080a18dd                sp_ffD004nn150
                0x00000000080a19a5                sp_ffD004nn149
                0x00000000080a1a39                sp_ffD004nn148
                0x00000000080a1ac2                sp_ffD004nn147
                0x00000000080a1b51                sp_ffD004nn146
                0x00000000080a1bc8                sp_ffD004nn145
                0x00000000080a1c32                sp_ffD004nn144
                0x00000000080a1c82                sp_ffD004nn143
                0x00000000080a1cf6                sp_ffD004nn142
                0x00000000080a1d7f                sp_ffD004nn141
                0x00000000080a1dce                sp_ffD004nn140
                0x00000000080a1e8d                sp_ffD004nn139
                0x00000000080a1ee4                sp_ffD004nn138
                0x00000000080a1f4e                sp_ffD004nn137
                0x00000000080a1fbb                sp_ffD004nn136
                0x00000000080a205e                sp_ffD004nn135
                0x00000000080a20e4                sp_ffD004nn134
                0x00000000080a2166                sp_ffD004nn133
                0x00000000080a21ac                sp_ffD004nn132
                0x00000000080a225e                sp_ffD004nn131
                0x00000000080a22c0                sp_ffD004nn130
                0x00000000080a2347                sp_ffD004nn129
                0x00000000080a23ba                sp_ffD004nn128
                0x00000000080a245f                sp_ffD004nn127
                0x00000000080a24cc                sp_ffD004nn126
                0x00000000080a2545                sp_ffD004nn125
                0x00000000080a25d8                sp_ffD004nn124
                0x00000000080a2625                sp_ffD004nn123
                0x00000000080a267a                sp_ffD004nn122
                0x00000000080a2728                sp_ffD004nn121
                0x00000000080a27ab                sp_ffD004nn120
                0x00000000080a2864                sp_ffD004nn119
                0x00000000080a28e9                sp_ffD004nn118
                0x00000000080a295f                sp_ffD004nn117
                0x00000000080a29ce                sp_ffD004nn116
                0x00000000080a2a1b                sp_ffD004nn115
                0x00000000080a2aaa                sp_ffD004nn114
                0x00000000080a2b1d                sp_ffD004nn113
                0x00000000080a2bbf                sp_ffD004nn112
                0x00000000080a2c64                sp_ffD004nn111
                0x00000000080a2d16                sp_ffD004nn110
                0x00000000080a2d82                sp_ffD004nn109
                0x00000000080a2e01                sp_ffD004nn108
                0x00000000080a2e62                sp_ffD004nn107
                0x00000000080a2eec                sp_ffD004nn106
                0x00000000080a2f88                sp_ffD004nn105
                0x00000000080a3031                sp_ffD004nn104
                0x00000000080a3096                sp_ffD004nn103
                0x00000000080a3104                sp_ffD004nn102
                0x00000000080a316e                sp_ffD004nn101
                0x00000000080a3219                sp_ffD004nn100
                0x00000000080a32ca                sp_ffD004nn99
                0x00000000080a3391                sp_ffD004nn98
                0x00000000080a3427                sp_ffD004nn97
                0x00000000080a348c                sp_ffD004nn96
                0x00000000080a3538                sp_ffD004nn95
                0x00000000080a35aa                sp_ffD004nn94
                0x00000000080a362e                sp_ffD004nn93
                0x00000000080a3691                sp_ffD004nn92
                0x00000000080a36f4                sp_ffD004nn91
                0x00000000080a37a4                sp_ffD004nn90
                0x00000000080a3823                sp_ffD004nn89
                0x00000000080a38b1                sp_ffD004nn88
                0x00000000080a3930                sp_ffD004nn87
                0x00000000080a3991                sp_ffD004nn86
                0x00000000080a3a2f                sp_ffD004nn85
                0x00000000080a3ac1                sp_ffD004nn84
                0x00000000080a3b3d                sp_ffD004nn83
                0x00000000080a3bc6                sp_ffD004nn82
                0x00000000080a3c76                sp_ffD004nn81
                0x00000000080a3ce0                sp_ffD004nn80
                0x00000000080a3d93                sp_ffD004nn79
                0x00000000080a3e27                sp_ffD004nn78
                0x00000000080a3e8f                sp_ffD004nn77
                0x00000000080a3f43                sp_ffD004nn76
                0x00000000080a3fc9                sp_ffD004nn75
                0x00000000080a409c                sp_ffD004nn74
                0x00000000080a4114                sp_ffD004nn73
                0x00000000080a41d8                sp_ffD004nn72
                0x00000000080a4274                sp_ffD004nn71
                0x00000000080a4334                sp_ffD004nn70
                0x00000000080a43e9                sp_ffD004nn69
                0x00000000080a444e                sp_ffD004nn68
                0x00000000080a44d2                sp_ffD004nn67
                0x00000000080a4563                sp_ffD004nn66
                0x00000000080a45fb                sp_ffD004nn65
                0x00000000080a465f                sp_ffD004nn64
                0x00000000080a46db                sp_ffD004nn63
                0x00000000080a474f                sp_ffD004nn62
                0x00000000080a47de                sp_ffD004nn61
                0x00000000080a4880                sp_ffD004nn60
                0x00000000080a4926                sp_ffD004nn59
                0x00000000080a4982                sp_ffD004nn58
                0x00000000080a4a42                sp_ffD004nn57
                0x00000000080a4ae3                sp_ffD004nn56
                0x00000000080a4b58                sp_ffD004nn55
                0x00000000080a4bc6                sp_ffD004nn54
                0x00000000080a4c73                sp_ffD004nn53
                0x00000000080a4d0b                sp_ffD004nn52
                0x00000000080a4da1                sp_ffD004nn51
                0x00000000080a4e23                sp_ffD004nn50
                0x00000000080a4e8c                sp_ffD004nn49
                0x00000000080a4f30                sp_ffD004nn48
                0x00000000080a4fc6                sp_ffD004nn47
                0x00000000080a504f                sp_ffD004nn46
                0x00000000080a50b2                sp_ffD004nn45
                0x00000000080a510f                sp_ffD004nn44
                0x00000000080a51ba                sp_ffD004nn43
                0x00000000080a5252                sp_ffD004nn42
                0x00000000080a52e0                sp_ffD004nn41
                0x00000000080a535a                sp_ffD004nn40
                0x00000000080a53cb                sp_ffD004nn39
                0x00000000080a5463                sp_ffD004nn38
                0x00000000080a54db                sp_ffD004nn37
                0x00000000080a557f                sp_ffD004nn36
                0x00000000080a5653                sp_ffD004nn35
                0x00000000080a56ed                sp_ffD004nn34
                0x00000000080a5777                sp_ffD004nn33
                0x00000000080a580f                sp_ffD004nn32
                0x00000000080a587a                sp_ffD004nn31
                0x00000000080a58f7                sp_ffD004nn30
                0x00000000080a597f                sp_ffD004nn29
                0x00000000080a59f0                sp_ffD004nn28
                0x00000000080a5a54                sp_ffD004nn27
                0x00000000080a5ac6                sp_ffD004nn26
                0x00000000080a5b23                sp_ffD004nn25
                0x00000000080a5bbe                sp_ffD004nn24
                0x00000000080a5c3a                sp_ffD004nn23
                0x00000000080a5cee                sp_ffD004nn22
                0x00000000080a5d53                sp_ffD004nn21
                0x00000000080a5dff                sp_ffD004nn20
                0x00000000080a5e98                sp_ffD004nn19
                0x00000000080a5f45                sp_ffD004nn18
                0x00000000080a5fb4                sp_ffD004nn17
                0x00000000080a5ff6                sp_ffD004nn16
                0x00000000080a608e                sp_ffD004nn15
                0x00000000080a60f6                sp_ffD004nn14
                0x00000000080a6168                sp_ffD004nn13
                0x00000000080a61d1                sp_ffD004nn12
                0x00000000080a622e                sp_ffD004nn11
                0x00000000080a6279                sp_ffD004nn10
                0x00000000080a62f3                sp_ffD004nn9
                0x00000000080a63a4                sp_ffD004nn8
                0x00000000080a6442                sp_ffD004nn7
                0x00000000080a64c9                sp_ffD004nn6
                0x00000000080a656c                sp_ffD004nn5
                0x00000000080a65fa                sp_ffD004nn4
                0x00000000080a667e                sp_ffD004nn3
                0x00000000080a66fd                sp_ffD004nn2
                0x00000000080a6790                sp_ffD004nn1
                0x00000000080a6818                sp_ffD004nn0
                0x00000000080a6896                sp_ffD003nn95
                0x00000000080a6914                sp_ffD003nn94
                0x00000000080a698f                sp_ffD003nn93
                0x00000000080a6a19                sp_ffD003nn92
                0x00000000080a6a87                sp_ffD003nn91
                0x00000000080a6b12                sp_ffD003nn90
                0x00000000080a6bb8                sp_ffD003nn89
                0x00000000080a6c2a                sp_ffD003nn88
                0x00000000080a6c87                sp_ffD003nn87
                0x00000000080a6d10                sp_ffD003nn86
                0x00000000080a6d81                sp_ffD003nn85
                0x00000000080a6dff                sp_ffD003nn84
                0x00000000080a6e37                sp_ffD003nn83
                0x00000000080a6eb3                sp_ffD003nn82
                0x00000000080a6f33                sp_ffD003nn81
                0x00000000080a6fc5                sp_ffD003nn80
                0x00000000080a7020                sp_ffD003nn79
                0x00000000080a70a6                sp_ffD003nn78
                0x00000000080a7112                sp_ffD003nn77
                0x00000000080a7193                sp_ffD003nn76
                0x00000000080a71f0                sp_ffD003nn75
                0x00000000080a7273                sp_ffD003nn74
                0x00000000080a72f3                sp_ffD003nn73
                0x00000000080a7362                sp_ffD003nn72
                0x00000000080a73e0                sp_ffD003nn71
                0x00000000080a746d                sp_ffD003nn70
                0x00000000080a74dd                sp_ffD003nn69
                0x00000000080a7547                sp_ffD003nn68
                0x00000000080a7590                sp_ffD003nn67
                0x00000000080a7616                sp_ffD003nn66
                0x00000000080a7672                sp_ffD003nn65
                0x00000000080a76d6                sp_ffD003nn64
                0x00000000080a7745                sp_ffD003nn63
                0x00000000080a77c8                sp_ffD003nn62
                0x00000000080a7866                sp_ffD003nn61
                0x00000000080a78b0                sp_ffD003nn60
                0x00000000080a790f                sp_ffD003nn59
                0x00000000080a7976                sp_ffD003nn58
                0x00000000080a79df                sp_ffD003nn57
                0x00000000080a7a69                sp_ffD003nn56
                0x00000000080a7b05                sp_ffD003nn55
                0x00000000080a7b61                sp_ffD003nn54
                0x00000000080a7c0f                sp_ffD003nn53
                0x00000000080a7c8e                sp_ffD003nn52
                0x00000000080a7cfc                sp_ffD003nn51
                0x00000000080a7d7d                sp_ffD003nn50
                0x00000000080a7deb                sp_ffD003nn49
                0x00000000080a7e69                sp_ffD003nn48
                0x00000000080a7f06                sp_ffD003nn47
                0x00000000080a7f78                sp_ffD003nn46
                0x00000000080a7fc3                sp_ffD003nn45
                0x00000000080a805c                sp_ffD003nn44
                0x00000000080a80f0                sp_ffD003nn43
                0x00000000080a817b                sp_ffD003nn42
                0x00000000080a8237                sp_ffD003nn41
                0x00000000080a82e6                sp_ffD003nn40
                0x00000000080a8382                sp_ffD003nn39
                0x00000000080a840f                sp_ffD003nn38
                0x00000000080a844e                sp_ffD003nn37
                0x00000000080a84a5                sp_ffD003nn36
                0x00000000080a852f                sp_ffD003nn35
                0x00000000080a8560                sp_ffD003nn34
                0x00000000080a8601                sp_ffD003nn33
                0x00000000080a86e4                sp_ffD003nn32
                0x00000000080a879e                sp_ffD003nn31
                0x00000000080a8819                sp_ffD003nn30
                0x00000000080a888a                sp_ffD003nn29
                0x00000000080a88dd                sp_ffD003nn28
                0x00000000080a894f                sp_ffD003nn27
                0x00000000080a89eb                sp_ffD003nn26
                0x00000000080a8a6a                sp_ffD003nn25
                0x00000000080a8ac1                sp_ffD003nn24
                0x00000000080a8b58                sp_ffD003nn23
                0x00000000080a8bae                sp_ffD003nn22
                0x00000000080a8c22                sp_ffD003nn21
                0x00000000080a8c9a                sp_ffD003nn20
                0x00000000080a8d0e                sp_ffD003nn19
                0x00000000080a8d8a                sp_ffD003nn18
                0x00000000080a8e2e                sp_ffD003nn17
                0x00000000080a8e80                sp_ffD003nn16
                0x00000000080a8ec5                sp_ffD003nn15
                0x00000000080a8f29                sp_ffD003nn14
                0x00000000080a8fa4                sp_ffD003nn13
                0x00000000080a9040                sp_ffD003nn12
                0x00000000080a90a0                sp_ffD003nn11
                0x00000000080a90fb                sp_ffD003nn10
                0x00000000080a9169                sp_ffD003nn9
                0x00000000080a91ce                sp_ffD003nn8
                0x00000000080a9277                sp_ffD003nn7
                0x00000000080a92bd                sp_ffD003nn6
                0x00000000080a9330                sp_ffD003nn5
                0x00000000080a93bf                sp_ffD003nn4
                0x00000000080a9419                sp_ffD003nn3
                0x00000000080a94c1                sp_ffD003nn2
                0x00000000080a9567                sp_ffD003nn1
                0x00000000080a95d3                sp_ffD003nn0
                0x00000000080a9620                sp_ffD002nn197
                0x00000000080a9691                sp_ffD002nn196
                0x00000000080a9744                sp_ffD002nn195
                0x00000000080a97c8                sp_ffD002nn194
                0x00000000080a983f                sp_ffD002nn193
                0x00000000080a98a2                sp_ffD002nn192
                0x00000000080a9913                sp_ffD002nn191
                0x00000000080a99c6                sp_ffD002nn190
                0x00000000080a9a35                sp_ffD002nn189
                0x00000000080a9a95                sp_ffD002nn188
                0x00000000080a9aea                sp_ffD002nn187
                0x00000000080a9b83                sp_ffD002nn186
                0x00000000080a9c51                sp_ffD002nn185
                0x00000000080a9ca8                sp_ffD002nn184
                0x00000000080a9d3d                sp_ffD002nn183
                0x00000000080a9db0                sp_ffD002nn182
                0x00000000080a9e4c                sp_ffD002nn181
                0x00000000080a9eb5                sp_ffD002nn180
                0x00000000080a9f1f                sp_ffD002nn179
                0x00000000080a9fe5                sp_ffD002nn178
                0x00000000080aa089                sp_ffD002nn177
                0x00000000080aa0d3                sp_ffD002nn176
                0x00000000080aa140                sp_ffD002nn175
                0x00000000080aa191                sp_ffD002nn174
                0x00000000080aa1fd                sp_ffD002nn173
                0x00000000080aa272                sp_ffD002nn172
                0x00000000080aa2f2                sp_ffD002nn171
                0x00000000080aa3a4                sp_ffD002nn170
                0x00000000080aa419                sp_ffD002nn169
                0x00000000080aa49b                sp_ffD002nn168
                0x00000000080aa53c                sp_ffD002nn167
                0x00000000080aa5a5                sp_ffD002nn166
                0x00000000080aa61b                sp_ffD002nn165
                0x00000000080aa676                sp_ffD002nn164
                0x00000000080aa72b                sp_ffD002nn163
                0x00000000080aa7dd                sp_ffD002nn162
                0x00000000080aa84b                sp_ffD002nn161
                0x00000000080aa8ae                sp_ffD002nn160
                0x00000000080aa951                sp_ffD002nn159
                0x00000000080aa9b6                sp_ffD002nn158
                0x00000000080aaa22                sp_ffD002nn157
                0x00000000080aaa78                sp_ffD002nn156
                0x00000000080aaad2                sp_ffD002nn155
                0x00000000080aab5d                sp_ffD002nn154
                0x00000000080aabc9                sp_ffD002nn153
                0x00000000080aac49                sp_ffD002nn152
                0x00000000080aacca                sp_ffD002nn151
                0x00000000080aad48                sp_ffD002nn150
                0x00000000080aada7                sp_ffD002nn149
                0x00000000080aae2c                sp_ffD002nn148
                0x00000000080aae9f                sp_ffD002nn147
                0x00000000080aaf46                sp_ffD002nn146
                0x00000000080aafb0                sp_ffD002nn145
                0x00000000080ab02c                sp_ffD002nn144
                0x00000000080ab08e                sp_ffD002nn143
                0x00000000080ab121                sp_ffD002nn142
                0x00000000080ab1a2                sp_ffD002nn141
                0x00000000080ab22e                sp_ffD002nn140
                0x00000000080ab2cf                sp_ffD002nn139
                0x00000000080ab353                sp_ffD002nn138
                0x00000000080ab3d4                sp_ffD002nn137
                0x00000000080ab47e                sp_ffD002nn136
                0x00000000080ab4fd                sp_ffD002nn135
                0x00000000080ab575                sp_ffD002nn134
                0x00000000080ab5f2                sp_ffD002nn133
                0x00000000080ab674                sp_ffD002nn132
                0x00000000080ab6f7                sp_ffD002nn131
                0x00000000080ab77a                sp_ffD002nn130
                0x00000000080ab7ee                sp_ffD002nn129
                0x00000000080ab86f                sp_ffD002nn128
                0x00000000080ab91c                sp_ffD002nn127
                0x00000000080ab971                sp_ffD002nn126
                0x00000000080ab9e9                sp_ffD002nn125
                0x00000000080aba71                sp_ffD002nn124
                0x00000000080abad7                sp_ffD002nn123
                0x00000000080abb3e                sp_ffD002nn122
                0x00000000080abbc4                sp_ffD002nn121
                0x00000000080abc30                sp_ffD002nn120
                0x00000000080abc91                sp_ffD002nn119
                0x00000000080abd38                sp_ffD002nn118
                0x00000000080abdb0                sp_ffD002nn117
                0x00000000080abe01                sp_ffD002nn116
                0x00000000080abe6c                sp_ffD002nn115
                0x00000000080abeeb                sp_ffD002nn114
                0x00000000080abf94                sp_ffD002nn113
                0x00000000080ac05d                sp_ffD002nn112
                0x00000000080ac0a7                sp_ffD002nn111
                0x00000000080ac109                sp_ffD002nn110
                0x00000000080ac18d                sp_ffD002nn109
                0x00000000080ac1d6                sp_ffD002nn108
                0x00000000080ac33d                sp_ffD002nn107
                0x00000000080ac3a7                sp_ffD002nn106
                0x00000000080ac415                sp_ffD002nn105
                0x00000000080ac47e                sp_ffD002nn104
                0x00000000080ac4f4                sp_ffD002nn103
                0x00000000080ac566                sp_ffD002nn102
                0x00000000080ac5e7                sp_ffD002nn101
                0x00000000080ac64d                sp_ffD002nn100
                0x00000000080ac6dc                sp_ffD002nn99
                0x00000000080ac760                sp_ffD002nn98
                0x00000000080ac7bb                sp_ffD002nn97
                0x00000000080ac81b                sp_ffD002nn96
                0x00000000080ac874                sp_ffD002nn95
                0x00000000080ac8f6                sp_ffD002nn94
                0x00000000080ac95d                sp_ffD002nn93
                0x00000000080ac9d2                sp_ffD002nn92
                0x00000000080aca48                sp_ffD002nn91
                0x00000000080aca88                sp_ffD002nn90
                0x00000000080acafb                sp_ffD002nn89
                0x00000000080acb6d                sp_ffD002nn88
                0x00000000080acbf9                sp_ffD002nn87
                0x00000000080acc81                sp_ffD002nn86
                0x00000000080acd12                sp_ffD002nn85
                0x00000000080acdb0                sp_ffD002nn84
                0x00000000080ace15                sp_ffD002nn83
                0x00000000080acec2                sp_ffD002nn82
                0x00000000080acf4e                sp_ffD002nn81
                0x00000000080acfc7                sp_ffD002nn80
                0x00000000080ad02c                sp_ffD002nn79
                0x00000000080ad09a                sp_ffD002nn78
                0x00000000080ad12d                sp_ffD002nn77
                0x00000000080ad1a3                sp_ffD002nn76
                0x00000000080ad21f                sp_ffD002nn75
                0x00000000080ad28f                sp_ffD002nn74
                0x00000000080ad315                sp_ffD002nn73
                0x00000000080ad3a8                sp_ffD002nn72
                0x00000000080ad42b                sp_ffD002nn71
                0x00000000080ad49e                sp_ffD002nn70
                0x00000000080ad570                sp_ffD002nn69
                0x00000000080ad613                sp_ffD002nn68
                0x00000000080ad68b                sp_ffD002nn67
                0x00000000080ad6f9                sp_ffD002nn66
                0x00000000080ad79c                sp_ffD002nn65
                0x00000000080ad806                sp_ffD002nn64
                0x00000000080ad862                sp_ffD002nn63
                0x00000000080ad8db                sp_ffD002nn62
                0x00000000080ad927                sp_ffD002nn61
                0x00000000080ad995                sp_ffD002nn60
                0x00000000080ad9e9                sp_ffD002nn59
                0x00000000080ada3e                sp_ffD002nn58
                0x00000000080adaa0                sp_ffD002nn57
                0x00000000080adb16                sp_ffD002nn56
                0x00000000080adbc8                sp_ffD002nn55
                0x00000000080adc48                sp_ffD002nn54
                0x00000000080adcdc                sp_ffD002nn53
                0x00000000080add43                sp_ffD002nn52
                0x00000000080add8a                sp_ffD002nn51
                0x00000000080addd6                sp_ffD002nn50
                0x00000000080ade5a                sp_ffD002nn49
                0x00000000080adede                sp_ffD002nn48
                0x00000000080adf4e                sp_ffD002nn47
                0x00000000080adfc4                sp_ffD002nn46
                0x00000000080ae041                sp_ffD002nn45
                0x00000000080ae0dc                sp_ffD002nn44
                0x00000000080ae155                sp_ffD002nn43
                0x00000000080ae1de                sp_ffD002nn42
                0x00000000080ae240                sp_ffD002nn41
                0x00000000080ae2b1                sp_ffD002nn40
                0x00000000080ae311                sp_ffD002nn39
                0x00000000080ae36d                sp_ffD002nn38
                0x00000000080ae3c6                sp_ffD002nn37
                0x00000000080ae412                sp_ffD002nn36
                0x00000000080ae480                sp_ffD002nn35
                0x00000000080ae518                sp_ffD002nn34
                0x00000000080ae584                sp_ffD002nn33
                0x00000000080ae5f0                sp_ffD002nn32
                0x00000000080ae661                sp_ffD002nn31
                0x00000000080ae6a3                sp_ffD002nn30
                0x00000000080ae6ff                sp_ffD002nn29
                0x00000000080ae760                sp_ffD002nn28
                0x00000000080ae7d3                sp_ffD002nn27
                0x00000000080ae81a                sp_ffD002nn26
                0x00000000080ae885                sp_ffD002nn25
                0x00000000080ae8fd                sp_ffD002nn24
                0x00000000080ae97e                sp_ffD002nn23
                0x00000000080ae9e0                sp_ffD002nn22
                0x00000000080aea5d                sp_ffD002nn21
                0x00000000080aead8                sp_ffD002nn20
                0x00000000080aeb27                sp_ffD002nn19
                0x00000000080aeb9c                sp_ffD002nn18
                0x00000000080aec58                sp_ffD002nn17
                0x00000000080aeced                sp_ffD002nn16
                0x00000000080aed3a                sp_ffD002nn15
                0x00000000080aedb6                sp_ffD002nn14
                0x00000000080aee51                sp_ffD002nn13
                0x00000000080aeeb6                sp_ffD002nn12
                0x00000000080aef16                sp_ffD002nn11
                0x00000000080aef85                sp_ffD002nn10
                0x00000000080aeffc                sp_ffD002nn9
                0x00000000080af054                sp_ffD002nn8
                0x00000000080af0a4                sp_ffD002nn7
                0x00000000080af0e5                sp_ffD002nn6
                0x00000000080af15f                sp_ffD002nn5
                0x00000000080af1c5                sp_ffD002nn4
                0x00000000080af29a                sp_ffD002nn3
                0x00000000080af32e                sp_ffD002nn2
                0x00000000080af3e4                sp_ffD002nn1
                0x00000000080af432                sp_ffD002nn0
                0x00000000080af493                sp_ffD001nn193
                0x00000000080af526                sp_ffD001nn192
                0x00000000080af5c3                sp_ffD001nn191
                0x00000000080af65a                sp_ffD001nn190
                0x00000000080af715                sp_ffD001nn189
                0x00000000080af76c                sp_ffD001nn188
                0x00000000080af802                sp_ffD001nn187
                0x00000000080af867                sp_ffD001nn186
                0x00000000080af8dc                sp_ffD001nn185
                0x00000000080af93c                sp_ffD001nn184
                0x00000000080af9b7                sp_ffD001nn183
                0x00000000080afa33                sp_ffD001nn182
                0x00000000080afa8e                sp_ffD001nn181
                0x00000000080afb0a                sp_ffD001nn180
                0x00000000080afb95                sp_ffD001nn179
                0x00000000080afc0d                sp_ffD001nn178
                0x00000000080afc70                sp_ffD001nn177
                0x00000000080afcfe                sp_ffD001nn176
                0x00000000080afd58                sp_ffD001nn175
                0x00000000080afe01                sp_ffD001nn174
                0x00000000080afece                sp_ffD001nn173
                0x00000000080aff19                sp_ffD001nn172
                0x00000000080affa5                sp_ffD001nn171
                0x00000000080b001f                sp_ffD001nn170
                0x00000000080b00a2                sp_ffD001nn169
                0x00000000080b012a                sp_ffD001nn168
                0x00000000080b018c                sp_ffD001nn167
                0x00000000080b01f1                sp_ffD001nn166
                0x00000000080b0292                sp_ffD001nn165
                0x00000000080b02f1                sp_ffD001nn164
                0x00000000080b038f                sp_ffD001nn163
                0x00000000080b0404                sp_ffD001nn162
                0x00000000080b048d                sp_ffD001nn161
                0x00000000080b0522                sp_ffD001nn160
                0x00000000080b0560                sp_ffD001nn159
                0x00000000080b05cf                sp_ffD001nn158
                0x00000000080b064a                sp_ffD001nn157
                0x00000000080b06f6                sp_ffD001nn156
                0x00000000080b0760                sp_ffD001nn155
                0x00000000080b07bc                sp_ffD001nn154
                0x00000000080b0827                sp_ffD001nn153
                0x00000000080b08ae                sp_ffD001nn152
                0x00000000080b0905                sp_ffD001nn151
                0x00000000080b099a                sp_ffD001nn150
                0x00000000080b0a04                sp_ffD001nn149
                0x00000000080b0ad9                sp_ffD001nn148
                0x00000000080b0b5a                sp_ffD001nn147
                0x00000000080b0bc5                sp_ffD001nn146
                0x00000000080b0c1f                sp_ffD001nn145
                0x00000000080b0c84                sp_ffD001nn144
                0x00000000080b0ced                sp_ffD001nn143
                0x00000000080b0d64                sp_ffD001nn142
                0x00000000080b0df9                sp_ffD001nn141
                0x00000000080b0e75                sp_ffD001nn140
                0x00000000080b0efa                sp_ffD001nn139
                0x00000000080b0f94                sp_ffD001nn138
                0x00000000080b1015                sp_ffD001nn137
                0x00000000080b106f                sp_ffD001nn136
                0x00000000080b10fe                sp_ffD001nn135
                0x00000000080b116b                sp_ffD001nn134
                0x00000000080b11ee                sp_ffD001nn133
                0x00000000080b124a                sp_ffD001nn132
                0x00000000080b12b0                sp_ffD001nn131
                0x00000000080b1334                sp_ffD001nn130
                0x00000000080b13b9                sp_ffD001nn129
                0x00000000080b1460                sp_ffD001nn128
                0x00000000080b14d3                sp_ffD001nn127
                0x00000000080b155f                sp_ffD001nn126
                0x00000000080b15e0                sp_ffD001nn125
                0x00000000080b1660                sp_ffD001nn124
                0x00000000080b16d1                sp_ffD001nn123
                0x00000000080b1763                sp_ffD001nn122
                0x00000000080b17be                sp_ffD001nn121
                0x00000000080b181d                sp_ffD001nn120
                0x00000000080b188f                sp_ffD001nn119
                0x00000000080b18ee                sp_ffD001nn118
                0x00000000080b1945                sp_ffD001nn117
                0x00000000080b19a5                sp_ffD001nn116
                0x00000000080b1a0b                sp_ffD001nn115
                0x00000000080b1aa0                sp_ffD001nn114
                0x00000000080b1af2                sp_ffD001nn113
                0x00000000080b1b51                sp_ffD001nn112
                0x00000000080b1bd0                sp_ffD001nn111
                0x00000000080b1c41                sp_ffD001nn110
                0x00000000080b1cbe                sp_ffD001nn109
                0x00000000080b1d1d                sp_ffD001nn108
                0x00000000080b1db0                sp_ffD001nn107
                0x00000000080b1e32                sp_ffD001nn106
                0x00000000080b1ed8                sp_ffD001nn105
                0x00000000080b1f60                sp_ffD001nn104
                0x00000000080b1fec                sp_ffD001nn103
                0x00000000080b205b                sp_ffD001nn102
                0x00000000080b2105                sp_ffD001nn101
                0x00000000080b21ad                sp_ffD001nn100
                0x00000000080b224b                sp_ffD001nn99
                0x00000000080b22be                sp_ffD001nn98
                0x00000000080b2312                sp_ffD001nn97
                0x00000000080b2361                sp_ffD001nn96
                0x00000000080b23b0                sp_ffD001nn95
                0x00000000080b2458                sp_ffD001nn94
                0x00000000080b24dd                sp_ffD001nn93
                0x00000000080b2549                sp_ffD001nn92
                0x00000000080b25da                sp_ffD001nn91
                0x00000000080b2681                sp_ffD001nn90
                0x00000000080b26c6                sp_ffD001nn89
                0x00000000080b2751                sp_ffD001nn88
                0x00000000080b27e6                sp_ffD001nn87
                0x00000000080b288e                sp_ffD001nn86
                0x00000000080b2965                sp_ffD001nn85
                0x00000000080b2a3d                sp_ffD001nn84
                0x00000000080b2b44                sp_ffD001nn83
                0x00000000080b2c23                sp_ffD001nn82
                0x00000000080b2cc9                sp_ffD001nn81
                0x00000000080b2d2a                sp_ffD001nn80
                0x00000000080b2d77                sp_ffD001nn79
                0x00000000080b2e39                sp_ffD001nn78
                0x00000000080b2e93                sp_ffD001nn77
                0x00000000080b2fa9                sp_ffD001nn76
                0x00000000080b3030                sp_ffD001nn75
                0x00000000080b30f9                sp_ffD001nn74
                0x00000000080b31e8                sp_ffD001nn73
                0x00000000080b328b                sp_ffD001nn72
                0x00000000080b3317                sp_ffD001nn71
                0x00000000080b33e3                sp_ffD001nn70
                0x00000000080b3488                sp_ffD001nn69
                0x00000000080b352d                sp_ffD001nn68
                0x00000000080b35b9                sp_ffD001nn67
                0x00000000080b3624                sp_ffD001nn66
                0x00000000080b36a8                sp_ffD001nn65
                0x00000000080b373b                sp_ffD001nn64
                0x00000000080b377f                sp_ffD001nn63
                0x00000000080b3821                sp_ffD001nn62
                0x00000000080b38a2                sp_ffD001nn61
                0x00000000080b3954                sp_ffD001nn60
                0x00000000080b39d7                sp_ffD001nn59
                0x00000000080b3a6a                sp_ffD001nn58
                0x00000000080b3b1d                sp_ffD001nn57
                0x00000000080b3bad                sp_ffD001nn56
                0x00000000080b3c30                sp_ffD001nn55
                0x00000000080b3c9b                sp_ffD001nn54
                0x00000000080b3d2a                sp_ffD001nn53
                0x00000000080b3dbf                sp_ffD001nn52
                0x00000000080b3e59                sp_ffD001nn51
                0x00000000080b3ee2                sp_ffD001nn50
                0x00000000080b3fc8                sp_ffD001nn49
                0x00000000080b405b                sp_ffD001nn48
                0x00000000080b40f7                sp_ffD001nn47
                0x00000000080b4176                sp_ffD001nn46
                0x00000000080b4208                sp_ffD001nn45
                0x00000000080b42a6                sp_ffD001nn44
                0x00000000080b4362                sp_ffD001nn43
                0x00000000080b43c3                sp_ffD001nn42
                0x00000000080b4456                sp_ffD001nn41
                0x00000000080b44a8                sp_ffD001nn40
                0x00000000080b44e8                sp_ffD001nn39
                0x00000000080b4576                sp_ffD001nn38
                0x00000000080b45f2                sp_ffD001nn37
                0x00000000080b46ac                sp_ffD001nn36
                0x00000000080b4753                sp_ffD001nn35
                0x00000000080b47cf                sp_ffD001nn34
                0x00000000080b4883                sp_ffD001nn33
                0x00000000080b4936                sp_ffD001nn32
                0x00000000080b4984                sp_ffD001nn31
                0x00000000080b4a2f                sp_ffD001nn30
                0x00000000080b4ae8                sp_ffD001nn29
                0x00000000080b4b6a                sp_ffD001nn28
                0x00000000080b4bf2                sp_ffD001nn27
                0x00000000080b4c8d                sp_ffD001nn26
                0x00000000080b4d1b                sp_ffD001nn25
                0x00000000080b4db6                sp_ffD001nn24
                0x00000000080b4e51                sp_ffD001nn23
                0x00000000080b4eea                sp_ffD001nn22
                0x00000000080b4f4b                sp_ffD001nn21
                0x00000000080b4ff6                sp_ffD001nn20
                0x00000000080b50aa                sp_ffD001nn19
                0x00000000080b514b                sp_ffD001nn18
                0x00000000080b51d0                sp_ffD001nn17
                0x00000000080b5246                sp_ffD001nn16
                0x00000000080b52a9                sp_ffD001nn15
                0x00000000080b5301                sp_ffD001nn14
                0x00000000080b5377                sp_ffD001nn13
                0x00000000080b53ef                sp_ffD001nn12
                0x00000000080b544b                sp_ffD001nn11
                0x00000000080b5500                sp_ffD001nn10
                0x00000000080b557c                sp_ffD001nn9
                0x00000000080b55fb                sp_ffD001nn8
                0x00000000080b567c                sp_ffD001nn7
                0x00000000080b56ea                sp_ffD001nn6
                0x00000000080b579b                sp_ffD001nn5
                0x00000000080b57e9                sp_ffD001nn4
                0x00000000080b5839                sp_ffD001nn3
                0x00000000080b5895                sp_ffD001nn2
                0x00000000080b5913                sp_ffD001nn1
                0x00000000080b597b                sp_ffD001nn0
                0x00000000080b59dc                sp_ffD000nn198
                0x00000000080b5a6b                sp_ffD000nn197
                0x00000000080b5ade                sp_ffD000nn196
                0x00000000080b5b60                sp_ffD000nn195
                0x00000000080b5be3                sp_ffD000nn194
                0x00000000080b5c37                sp_ffD000nn193
                0x00000000080b5cc9                sp_ffD000nn192
                0x00000000080b5d25                sp_ffD000nn191
                0x00000000080b5d71                sp_ffD000nn190
                0x00000000080b5de9                sp_ffD000nn189
                0x00000000080b5e6d                sp_ffD000nn188
                0x00000000080b5ed8                sp_ffD000nn187
                0x00000000080b5f3b                sp_ffD000nn186
                0x00000000080b5fb0                sp_ffD000nn185
                0x00000000080b603c                sp_ffD000nn184
                0x00000000080b6092                sp_ffD000nn183
                0x00000000080b6106                sp_ffD000nn182
                0x00000000080b613e                sp_ffD000nn181
                0x00000000080b61e0                sp_ffD000nn180
                0x00000000080b6288                sp_ffD000nn179
                0x00000000080b6346                sp_ffD000nn178
                0x00000000080b63c7                sp_ffD000nn177
                0x00000000080b6429                sp_ffD000nn176
                0x00000000080b6495                sp_ffD000nn175
                0x00000000080b64ff                sp_ffD000nn174
                0x00000000080b656a                sp_ffD000nn173
                0x00000000080b65da                sp_ffD000nn172
                0x00000000080b6635                sp_ffD000nn171
                0x00000000080b66c3                sp_ffD000nn170
                0x00000000080b6712                sp_ffD000nn169
                0x00000000080b6765                sp_ffD000nn168
                0x00000000080b67db                sp_ffD000nn167
                0x00000000080b6881                sp_ffD000nn166
                0x00000000080b68eb                sp_ffD000nn165
                0x00000000080b6951                sp_ffD000nn164
                0x00000000080b69f1                sp_ffD000nn163
                0x00000000080b6a7e                sp_ffD000nn162
                0x00000000080b6b11                sp_ffD000nn161
                0x00000000080b6b4c                sp_ffD000nn160
                0x00000000080b6b8c                sp_ffD000nn159
                0x00000000080b6c1a                sp_ffD000nn158
                0x00000000080b6c66                sp_ffD000nn157
                0x00000000080b6c91                sp_ffD000nn156
                0x00000000080b6d08                sp_ffD000nn155
                0x00000000080b6daf                sp_ffD000nn154
                0x00000000080b6e1e                sp_ffD000nn153
                0x00000000080b6e9a                sp_ffD000nn152
                0x00000000080b6ef9                sp_ffD000nn151
                0x00000000080b6f69                sp_ffD000nn150
                0x00000000080b6fea                sp_ffD000nn149
                0x00000000080b7068                sp_ffD000nn148
                0x00000000080b70da                sp_ffD000nn147
                0x00000000080b7156                sp_ffD000nn146
                0x00000000080b71b6                sp_ffD000nn145
                0x00000000080b720f                sp_ffD000nn144
                0x00000000080b726c                sp_ffD000nn143
                0x00000000080b72ec                sp_ffD000nn142
                0x00000000080b737b                sp_ffD000nn141
                0x00000000080b73da                sp_ffD000nn140
                0x00000000080b746f                sp_ffD000nn139
                0x00000000080b7508                sp_ffD000nn138
                0x00000000080b755d                sp_ffD000nn137
                0x00000000080b75d9                sp_ffD000nn136
                0x00000000080b767f                sp_ffD000nn135
                0x00000000080b76cb                sp_ffD000nn134
                0x00000000080b771a                sp_ffD000nn133
                0x00000000080b777b                sp_ffD000nn132
                0x00000000080b77c1                sp_ffD000nn131
                0x00000000080b7806                sp_ffD000nn130
                0x00000000080b78a2                sp_ffD000nn129
                0x00000000080b78e8                sp_ffD000nn128
                0x00000000080b794d                sp_ffD000nn127
                0x00000000080b79d1                sp_ffD000nn126
                0x00000000080b7a2d                sp_ffD000nn125
                0x00000000080b7a90                sp_ffD000nn124
                0x00000000080b7b44                sp_ffD000nn123
                0x00000000080b7bd9                sp_ffD000nn122
                0x00000000080b7c58                sp_ffD000nn121
                0x00000000080b7cf9                sp_ffD000nn120
                0x00000000080b7d7e                sp_ffD000nn119
                0x00000000080b7dfe                sp_ffD000nn118
                0x00000000080b7e80                sp_ffD000nn117
                0x00000000080b7f15                sp_ffD000nn116
                0x00000000080b7f71                sp_ffD000nn115
                0x00000000080b7fba                sp_ffD000nn114
                0x00000000080b8044                sp_ffD000nn113
                0x00000000080b80a9                sp_ffD000nn112
                0x00000000080b8131                sp_ffD000nn111
                0x00000000080b81af                sp_ffD000nn110
                0x00000000080b8224                sp_ffD000nn109
                0x00000000080b82b5                sp_ffD000nn108
                0x00000000080b837b                sp_ffD000nn107
                0x00000000080b83d9                sp_ffD000nn106
                0x00000000080b8451                sp_ffD000nn105
                0x00000000080b84c5                sp_ffD000nn104
                0x00000000080b8549                sp_ffD000nn103
                0x00000000080b8596                sp_ffD000nn102
                0x00000000080b85e8                sp_ffD000nn101
                0x00000000080b869b                sp_ffD000nn100
                0x00000000080b86dc                sp_ffD000nn99
                0x00000000080b8751                sp_ffD000nn98
                0x00000000080b87c1                sp_ffD000nn97
                0x00000000080b882f                sp_ffD000nn96
                0x00000000080b888d                sp_ffD000nn95
                0x00000000080b88f2                sp_ffD000nn94
                0x00000000080b8940                sp_ffD000nn93
                0x00000000080b89ab                sp_ffD000nn92
                0x00000000080b8a07                sp_ffD000nn91
                0x00000000080b8a6e                sp_ffD000nn90
                0x00000000080b8b29                sp_ffD000nn89
                0x00000000080b8b8f                sp_ffD000nn88
                0x00000000080b8c06                sp_ffD000nn87
                0x00000000080b8c7b                sp_ffD000nn86
                0x00000000080b8d17                sp_ffD000nn85
                0x00000000080b8d81                sp_ffD000nn84
                0x00000000080b8e09                sp_ffD000nn83
                0x00000000080b8e6d                sp_ffD000nn82
                0x00000000080b8ee3                sp_ffD000nn81
                0x00000000080b8f61                sp_ffD000nn80
                0x00000000080b8fb7                sp_ffD000nn79
                0x00000000080b9038                sp_ffD000nn78
                0x00000000080b90d4                sp_ffD000nn77
                0x00000000080b911f                sp_ffD000nn76
                0x00000000080b9163                sp_ffD000nn75
                0x00000000080b91ed                sp_ffD000nn74
                0x00000000080b926c                sp_ffD000nn73
                0x00000000080b92d8                sp_ffD000nn72
                0x00000000080b9327                sp_ffD000nn71
                0x00000000080b93ae                sp_ffD000nn70
                0x00000000080b940c                sp_ffD000nn69
                0x00000000080b94ac                sp_ffD000nn68
                0x00000000080b9509                sp_ffD000nn67
                0x00000000080b9578                sp_ffD000nn66
                0x00000000080b95db                sp_ffD000nn65
                0x00000000080b9640                sp_ffD000nn64
                0x00000000080b96da                sp_ffD000nn63
                0x00000000080b9761                sp_ffD000nn62
                0x00000000080b97d5                sp_ffD000nn61
                0x00000000080b9832                sp_ffD000nn60
                0x00000000080b98b3                sp_ffD000nn59
                0x00000000080b9937                sp_ffD000nn58
                0x00000000080b99ad                sp_ffD000nn57
                0x00000000080b9a02                sp_ffD000nn56
                0x00000000080b9a7c                sp_ffD000nn55
                0x00000000080b9acd                sp_ffD000nn54
                0x00000000080b9b48                sp_ffD000nn53
                0x00000000080b9bed                sp_ffD000nn52
                0x00000000080b9c34                sp_ffD000nn51
                0x00000000080b9cc1                sp_ffD000nn50
                0x00000000080b9d11                sp_ffD000nn49
                0x00000000080b9d76                sp_ffD000nn48
                0x00000000080b9dde                sp_ffD000nn47
                0x00000000080b9e75                sp_ffD000nn46
                0x00000000080b9ee1                sp_ffD000nn45
                0x00000000080b9f84                sp_ffD000nn44
                0x00000000080b9feb                sp_ffD000nn43
                0x00000000080ba04d                sp_ffD000nn42
                0x00000000080ba0e6                sp_ffD000nn41
                0x00000000080ba13f                sp_ffD000nn40
                0x00000000080ba1ba                sp_ffD000nn39
                0x00000000080ba240                sp_ffD000nn38
                0x00000000080ba2ca                sp_ffD000nn37
                0x00000000080ba384                sp_ffD000nn36
                0x00000000080ba3d9                sp_ffD000nn35
                0x00000000080ba48b                sp_ffD000nn34
                0x00000000080ba4fb                sp_ffD000nn33
                0x00000000080ba5a9                sp_ffD000nn32
                0x00000000080ba5ff                sp_ffD000nn31
                0x00000000080ba69f                sp_ffD000nn30
                0x00000000080ba733                sp_ffD000nn29
                0x00000000080ba7b9                sp_ffD000nn28
                0x00000000080ba845                sp_ffD000nn27
                0x00000000080ba8db                sp_ffD000nn26
                0x00000000080ba975                sp_ffD000nn25
                0x00000000080ba9dd                sp_ffD000nn24
                0x00000000080baa97                sp_ffD000nn23
                0x00000000080baaf6                sp_ffD000nn22
                0x00000000080bab94                sp_ffD000nn21
                0x00000000080bac11                sp_ffD000nn20
                0x00000000080bac8b                sp_ffD000nn19
                0x00000000080bad04                sp_ffD000nn18
                0x00000000080bad7b                sp_ffD000nn17
                0x00000000080badf8                sp_ffD000nn16
                0x00000000080bae54                sp_ffD000nn15
                0x00000000080bae99                sp_ffD000nn14
                0x00000000080baf07                sp_ffD000nn13
                0x00000000080bafa0                sp_ffD000nn12
                0x00000000080bb00e                sp_ffD000nn11
                0x00000000080bb080                sp_ffD000nn10
                0x00000000080bb0d1                sp_ffD000nn9
                0x00000000080bb14b                sp_ffD000nn8
                0x00000000080bb1ac                sp_ffD000nn7
                0x00000000080bb22d                sp_ffD000nn6
                0x00000000080bb26e                sp_ffD000nn5
                0x00000000080bb2ea                sp_ffD000nn4
                0x00000000080bb38f                sp_ffD000nn3
                0x00000000080bb3e1                sp_ffD000nn2
                0x00000000080bb443                sp_ffD000nn1
                0x00000000080bb4b4                sp_ffD000nn0
                0x00000000080bb532                sp_tron15
                0x00000000080bb630                sp_tron14
                0x00000000080bb7c5                sp_tron13
                0x00000000080bb967                sp_tron12
                0x00000000080bbafd                sp_tron11
                0x00000000080bbb73                sp_tron10
                0x00000000080bbc12                sp_tron9
                0x00000000080bbdb7                sp_tron8
                0x00000000080bbfc2                sp_tron7
                0x00000000080bc056                sp_tron6
                0x00000000080bc1c6                sp_tron5
                0x00000000080bc2c7                sp_tron4
                0x00000000080bc3c7                sp_tron3
                0x00000000080bc775                sp_tron2
                0x00000000080bc801                sp_tron1
                0x00000000080bc881                sp_tron0
                0x00000000080bc9f5                sp_misc28
                0x00000000080bca5b                sp_misc27
                0x00000000080bcab3                sp_misc26
                0x00000000080bcb69                sp_misc25
                0x00000000080bcbd9                sp_misc24
                0x00000000080bcc2c                sp_misc23
                0x00000000080bcc86                sp_misc22
                0x00000000080bcd14                sp_misc21
                0x00000000080bcd74                sp_misc20
                0x00000000080bcdb7                sp_misc19
                0x00000000080bce41                sp_misc18
                0x00000000080bcea1                sp_misc17
                0x00000000080bcf16                sp_misc16
                0x00000000080bcf9a                sp_misc15
                0x00000000080bd0fb                sp_misc14
                0x00000000080bd289                sp_misc13
                0x00000000080bd31c                sp_misc12
                0x00000000080bd3bd                sp_misc11
                0x00000000080bd54b                sp_misc10
                0x00000000080bd5ee                sp_misc9
                0x00000000080bd651                sp_misc8
                0x00000000080bd6eb                sp_misc7
                0x00000000080bd761                sp_misc6
                0x00000000080bd78e                sp_misc5
                0x00000000080bd7d3                sp_misc4
                0x00000000080bd85f                sp_misc3
                0x00000000080bd8d0                sp_misc2
                0x00000000080bd902                sp_misc1
                0x00000000080bd96c                sp_misc0
                0x00000000080bda31                sp_alphon127
                0x00000000080bda37                sp_alphon126
                0x00000000080bda3d                sp_alphon125
                0x00000000080bda51                sp_alphon124
                0x00000000080bda60                sp_alphon123
                0x00000000080bda7a                sp_alphon122
                0x00000000080bda8a                sp_alphon121
                0x00000000080bdaa8                sp_alphon120
                0x00000000080bdabc                sp_alphon119
                0x00000000080bdacf                sp_alphon118
                0x00000000080bdae0                sp_alphon117
                0x00000000080bdaef                sp_alphon116
                0x00000000080bdb09                sp_alphon115
                0x00000000080bdb19                sp_alphon114
                0x00000000080bdb28                sp_alphon113
                0x00000000080bdb34                sp_alphon112
                0x00000000080bdb41                sp_alphon111
                0x00000000080bdb4e                sp_alphon110
                0x00000000080bdb5c                sp_alphon109
                0x00000000080bdb66                sp_alphon108
                0x00000000080bdb73                sp_alphon107
                0x00000000080bdb7e                sp_alphon106
                0x00000000080bdb8b                sp_alphon105
                0x00000000080bdb99                sp_alphon104
                0x00000000080bdba6                sp_alphon103
                0x00000000080bdbac                sp_alphon102
                0x00000000080bdbc6                sp_alphon101
                0x00000000080bdbed                sp_alphon100
                0x00000000080bdc04                sp_alphon99
                0x00000000080bdc29                sp_alphon98
                0x00000000080bdc45                sp_alphon97
                0x00000000080bdc59                sp_alphon96
                0x00000000080bdc72                sp_alphon95
                0x00000000080bdc98                sp_alphon94
                0x00000000080bdcc3                sp_alphon93
                0x00000000080bdccf                sp_alphon92
                0x00000000080bdcfc                sp_alphon91
                0x00000000080bdd10                sp_alphon90
                0x00000000080bdd1d                sp_alphon89
                0x00000000080bdd37                sp_alphon88
                0x00000000080bdd44                sp_alphon87
                0x00000000080bdd59                sp_alphon86
                0x00000000080bdd66                sp_alphon85
                0x00000000080bdd75                sp_alphon84
                0x00000000080bdd8e                sp_alphon83
                0x00000000080bdda2                sp_alphon82
                0x00000000080bddb6                sp_alphon81
                0x00000000080bdddc                sp_alphon80
                0x00000000080bddf0                sp_alphon79
                0x00000000080bde0b                sp_alphon78
                0x00000000080bde1f                sp_alphon77
                0x00000000080bde43                sp_alphon76
                0x00000000080bde52                sp_alphon75
                0x00000000080bde78                sp_alphon74
                0x00000000080bde88                sp_alphon73
                0x00000000080bde98                sp_alphon72
                0x00000000080bdec5                sp_alphon71
                0x00000000080bdef2                sp_alphon70
                0x00000000080bdf20                sp_alphon69
                0x00000000080bdf39                sp_alphon68
                0x00000000080bdf5c                sp_alphon67
                0x00000000080bdf89                sp_alphon66
                0x00000000080bdfb6                sp_alphon65
                0x00000000080bdfe3                sp_alphon64
                0x00000000080bdffc                sp_alphon63
                0x00000000080be029                sp_alphon62
                0x00000000080be04d                sp_alphon61
                0x00000000080be086                sp_alphon60
                0x00000000080be09f                sp_alphon59
                0x00000000080be0b8                sp_alphon58
                0x00000000080be0e0                sp_alphon57
                0x00000000080be10d                sp_alphon56
                0x00000000080be13a                sp_alphon55
                0x00000000080be162                sp_alphon54
                0x00000000080be19d                sp_alphon53
                0x00000000080be1b6                sp_alphon52
                0x00000000080be1cf                sp_alphon51
                0x00000000080be1fc                sp_alphon50
                0x00000000080be229                sp_alphon49
                0x00000000080be256                sp_alphon48
                0x00000000080be26f                sp_alphon47
                0x00000000080be28d                sp_alphon46
                0x00000000080be2ad                sp_alphon45
                0x00000000080be2c3                sp_alphon44
                0x00000000080be2e3                sp_alphon43
                0x00000000080be303                sp_alphon42
                0x00000000080be323                sp_alphon41
                0x00000000080be343                sp_alphon40
                0x00000000080be359                sp_alphon39
                0x00000000080be379                sp_alphon38
                0x00000000080be38f                sp_alphon37
                0x00000000080be3a5                sp_alphon36
                0x00000000080be3c5                sp_alphon35
                0x00000000080be3e5                sp_alphon34
                0x00000000080be400                sp_alphon33
                0x00000000080be420                sp_alphon32
                0x00000000080be436                sp_alphon31
                0x00000000080be44c                sp_alphon30
                0x00000000080be46c                sp_alphon29
                0x00000000080be48e                sp_alphon28
                0x00000000080be4ae                sp_alphon27
                0x00000000080be4c4                sp_alphon26
                0x00000000080be4da                sp_alphon25
                0x00000000080be4f4                sp_alphon24
                0x00000000080be514                sp_alphon23
                0x00000000080be529                sp_alphon22
                0x00000000080be53d                sp_alphon21
                0x00000000080be551                sp_alphon20
                0x00000000080be565                sp_alphon19
                0x00000000080be579                sp_alphon18
                0x00000000080be58d                sp_alphon17
                0x00000000080be5a1                sp_alphon16
                0x00000000080be5b5                sp_alphon15
                0x00000000080be5c9                sp_alphon14
                0x00000000080be5dd                sp_alphon13
                0x00000000080be5f1                sp_alphon12
                0x00000000080be605                sp_alphon11
                0x00000000080be619                sp_alphon10
                0x00000000080be62d                sp_alphon9
                0x00000000080be641                sp_alphon8
                0x00000000080be655                sp_alphon7
                0x00000000080be669                sp_alphon6
                0x00000000080be67d                sp_alphon5
                0x00000000080be691                sp_alphon4
                0x00000000080be6a5                sp_alphon3
                0x00000000080be6b9                sp_alphon2
                0x00000000080be6cd                sp_alphon1
                0x00000000080be6e1                sp_013mm
                0x00000000080be7cd                sp_012mm
                0x00000000080be8a3                sp_011mm
                0x00000000080be964                sp_010mm
                0x00000000080bea2a                sp_009mm
                0x00000000080bead9                sp_008mm
                0x00000000080beb78                sp_007mm
                0x00000000080bebbf                sp_006mm
                0x00000000080bec99                sp_015mm
                0x00000000080bedb8                sp_017mm
                0x00000000080bee50                sp_005mm
                0x00000000080bef2b                sp_016mm
                0x00000000080bf004                sp_004mm
                0x00000000080bf126                sp_003mm
                0x00000000080bf223                sp_002mm
                0x00000000080bf2fc                sp_001mm
                0x00000000080bf391                sp_000mm
                0x00000000080bf468                sp_015s
                0x00000000080bf4ea                sp_013s
                0x00000000080bf66e                sp_012s
                0x00000000080bf6b5                sp_010s
                0x00000000080bf7a1                sp_0099s
                0x00000000080bf85f                sp_009s
                0x00000000080bf8ce                sp_0088s
                0x00000000080bf924                sp_008s
                0x00000000080bf978                sp_007s
                0x00000000080bf9d7                sp_00999s
                0x00000000080bfb48                sp_011s
                0x00000000080bfbf2                sp_006s
                0x00000000080bfc55                sp_005s
                0x00000000080bfcb0                sp_0033s
                0x00000000080bfd35                sp_003s
                0x00000000080bfda2                sp_002s
                0x00000000080bfe17                sp_000s
                0x00000000080bff01                sp_021m
                0x00000000080bffc3                sp_020m
                0x00000000080c00d2                sp_016m
                0x00000000080c02f7                sp_014m
                0x00000000080c03d0                sp_008m
                0x00000000080c04d9                sp_005m
                0x00000000080c0577                sp_019m
                0x00000000080c067d                sp_018m
                0x00000000080c07a8                sp_017m
                0x00000000080c0872                sp_015m
                0x00000000080c08ca                sp_012m
                0x00000000080c0973                sp_078m
                0x00000000080c09fc                sp_077m
                0x00000000080c0a8a                sp_007m
                0x00000000080c0ae2                sp_004m
                0x00000000080c0be8                sp_0055m
                0x00000000080c0c86                sp_021a
                0x00000000080c0cde                sp_0141a
                0x00000000080c0d8f                sp_012a
                0x00000000080c0e83                sp_011a
                0x00000000080c0f53                sp_010a
                0x00000000080c106c                sp_008a
                0x00000000080c117b                sp_007a
                0x00000000080c12a0                sp_006a
                0x00000000080c142b                sp_005a
                0x00000000080c1499                sp_0021a
                0x00000000080c1617                sp_001a
                0x00000000080c1725                sp_000a
                0x00000000080c17af                sp_003a
                0x00000000080c18d5                sp_0022a
                0x00000000080c19d3                sp_024a
                0x00000000080c1adc                sp_013a
                0x00000000080c1c1f                sp_b019
                0x00000000080c1c86                sp_b018
                0x00000000080c1cdd                sp_b016
                0x00000000080c1ddb                sp_b012
                0x00000000080c1f5d                sp_b011
                0x00000000080c205c                sp_b010
                0x00000000080c214b                sp_b009
                0x00000000080c21e3                sp_017b
                0x00000000080c22f7                sp_013b
                0x00000000080c2412                sp_parNICE2
                0x00000000080c250e                sp_parCONGRAT
                0x00000000080c260c                sp_parALERT2
                0x00000000080c2722                sp_parALERT1
                0x00000000080c28ee                sp_parASTEROID
                0x00000000080c2a36                sp_parEXTRA
                0x00000000080c2abf                sp_parFUEL
                0x00000000080c2c26                sp_parLASER
                0x00000000080c2d3e                sp_parREFUEL
                0x00000000080c2eac                sp_parTARGET
                0x00000000080c2fa7                sp_parENEMY
                0x00000000080c30b0                sp_parGREAT
                0x00000000080c316d                sp_parNICE
                0x00000000080c3216                sp_parADVANCE
                0x00000000080c331d                sp_parONE
                0x00000000080c3353                sp_parTWO
                0x00000000080c3381                sp_parTHREE
                0x00000000080c33b4                sp_parFOUR
                0x00000000080c33e8                sp_parFIVE
                0x00000000080c343f                sp_parCOUNT
                0x00000000080c34af                sp_parSHOT
                0x00000000080c353f                sp_parFIRE
                0x00000000080c362a                sp_spkvocaid123
                0x00000000080c3682                sp_spkvocaid122
                0x00000000080c36e5                sp_spkvocaid121
                0x00000000080c3747                sp_spkvocaid120
                0x00000000080c37a8                sp_spkvocaid119
                0x00000000080c3837                sp_spkvocaid118
                0x00000000080c3925                sp_spkvocaid117
                0x00000000080c3978                sp_spkvocaid116
                0x00000000080c39eb                sp_spkvocaid115
                0x00000000080c3a66                sp_spkvocaid114
                0x00000000080c3ac2                sp_spkvocaid113
                0x00000000080c3b2b                sp_spkvocaid112
                0x00000000080c3baa                sp_spkvocaid111
                0x00000000080c3c3c                sp_spkvocaid110
                0x00000000080c3cd1                sp_spkvocaid109
                0x00000000080c3dbc                sp_spkvocaid108
                0x00000000080c3e3d                sp_spkvocaid107
                0x00000000080c3ec6                sp_spkvocaid106
                0x00000000080c3f23                sp_spkvocaid105
                0x00000000080c3f7f                sp_spkvocaid104
                0x00000000080c3feb                sp_spkvocaid103
                0x00000000080c4071                sp_spkvocaid102
                0x00000000080c4119                sp_spkvocaid101
                0x00000000080c418d                sp_spkvocaid100
                0x00000000080c41ce                sp_spkvocaid99
                0x00000000080c42ba                sp_spkvocaid98
                0x00000000080c43da                sp_spkvocaid97
                0x00000000080c4540                sp_spkvocaid96
                0x00000000080c45cd                sp_spkvocaid95
                0x00000000080c462c                sp_spkvocaid94
                0x00000000080c4691                sp_spkvocaid93
                0x00000000080c46f4                sp_spkvocaid92
                0x00000000080c472d                sp_spkvocaid91
                0x00000000080c47ad                sp_spkvocaid90
                0x00000000080c480b                sp_spkvocaid89
                0x00000000080c486e                sp_spkvocaid88
                0x00000000080c48b4                sp_spkvocaid87
                0x00000000080c4901                sp_spkvocaid86
                0x00000000080c494c                sp_spkvocaid85
                0x00000000080c499e                sp_spkvocaid84
                0x00000000080c49f7                sp_spkvocaid83
                0x00000000080c4a44                sp_spkvocaid82
                0x00000000080c4a98                sp_spkvocaid81
                0x00000000080c4ae0                sp_spkvocaid80
                0x00000000080c4b34                sp_spkvocaid79
                0x00000000080c4b77                sp_spkvocaid78
                0x00000000080c4bd0                sp_spkvocaid77
                0x00000000080c4c21                sp_spkvocaid76
                0x00000000080c4c62                sp_spkvocaid75
                0x00000000080c4ca6                sp_spkvocaid74
                0x00000000080c4cec                sp_spkvocaid73
                0x00000000080c4d3f                sp_spkvocaid72
                0x00000000080c4d8a                sp_spkvocaid71
                0x00000000080c4ddb                sp_spkvocaid70
                0x00000000080c4e28                sp_spkvocaid69
                0x00000000080c4e80                sp_spkvocaid68
                0x00000000080c4ef3                sp_spkvocaid67
                0x00000000080c4f72                sp_spkvocaid66
                0x00000000080c4fe5                sp_spkvocaid65
                0x00000000080c503f                sp_spkvocaid64
                0x00000000080c5078                sp_spkvocaid63
                0x00000000080c50c5                sp_spkvocaid62
                0x00000000080c510d                sp_spkvocaid61
                0x00000000080c5165                sp_spkvocaid60
                0x00000000080c51dd                sp_spkvocaid59
                0x00000000080c5219                sp_spkvocaid58
                0x00000000080c5274                sp_spkvocaid57
                0x00000000080c52d9                sp_spkvocaid56
                0x00000000080c537b                sp_spkvocaid55
                0x00000000080c53f6                sp_spkvocaid54
                0x00000000080c543c                sp_spkvocaid53
                0x00000000080c548e                sp_spkvocaid52
                0x00000000080c54cd                sp_spkvocaid51
                0x00000000080c5510                sp_spkvocaid50
                0x00000000080c5572                sp_spkvocaid49
                0x00000000080c55a6                sp_spkvocaid48
                0x00000000080c55ed                sp_spkvocaid47
                0x00000000080c5660                sp_spkvocaid46
                0x00000000080c56e0                sp_spkvocaid45
                0x00000000080c5772                sp_spkvocaid44
                0x00000000080c57e7                sp_spkvocaid43
                0x00000000080c5821                sp_spkvocaid42
                0x00000000080c5859                sp_spkvocaid41
                0x00000000080c58f6                sp_spkvocaid40
                0x00000000080c5954                sp_spkvocaid39
                0x00000000080c59b7                sp_spkvocaid38
                0x00000000080c5a2c                sp_spkvocaid37
                0x00000000080c5aff                sp_spkvocaid36
                0x00000000080c5b69                sp_spkvocaid35
                0x00000000080c5ca2                sp_spkvocaid34
                0x00000000080c5dc2                sp_spkvocaid33
                0x00000000080c5e2b                sp_spkvocaid32
                0x00000000080c5e6c                sp_spkvocaid31
                0x00000000080c5eca                sp_spkvocaid30
                0x00000000080c5f76                sp_spkvocaid29
                0x00000000080c5fe3                sp_spkvocaid28
                0x00000000080c6031                sp_spkvocaid27
                0x00000000080c60a5                sp_spkvocaid26
                0x00000000080c6134                sp_spkvocaid25
                0x00000000080c6187                sp_spkvocaid24
                0x00000000080c61f5                sp_spkvocaid23
                0x00000000080c6280                sp_spkvocaid22
                0x00000000080c62f7                sp_spkvocaid21
                0x00000000080c6366                sp_spkvocaid20
                0x00000000080c63af                sp_spkvocaid19
                0x00000000080c646a                sp_spkvocaid18
                0x00000000080c64c3                sp_spkvocaid17
                0x00000000080c650c                sp_spkvocaid16
                0x00000000080c656a                sp_spkvocaid15
                0x00000000080c65d7                sp_spkvocaid14
                0x00000000080c662b                sp_spkvocaid13
                0x00000000080c6694                sp_spkvocaid12
                0x00000000080c671d                sp_spkvocaid11
                0x00000000080c6777                sp_spkvocaid10
                0x00000000080c67d5                sp_spkvocaid9
                0x00000000080c684b                sp_spkvocaid8
                0x00000000080c6893                sp_spkvocaid7
                0x00000000080c6906                sp_spkvocaid6
                0x00000000080c69c2                sp_spkvocaid5
                0x00000000080c6a14                sp_spkvocaid4
                0x00000000080c6a98                sp_spkvocaid3
                0x00000000080c6b25                sp_spkvocaid2
                0x00000000080c6bba                sp_spkvocaid1
                0x00000000080c6c18                sp_spkvocaid0
                0x00000000080c6cc7                sp_spk2352nn137
                0x00000000080c6d17                sp_spk2352nn136
                0x00000000080c6d72                sp_spk2352nn135
                0x00000000080c6dd3                sp_spk2352nn134
                0x00000000080c6e44                sp_spk2352nn133
                0x00000000080c6e92                sp_spk2352nn132
                0x00000000080c6edc                sp_spk2352nn131
                0x00000000080c6f31                sp_spk2352nn130
                0x00000000080c6f85                sp_spk2352nn129
                0x00000000080c6fc9                sp_spk2352nn128
                0x00000000080c7009                sp_spk2352nn127
                0x00000000080c7069                sp_spk2352nn126
                0x00000000080c70e0                sp_spk2352nn125
                0x00000000080c7119                sp_spk2352nn124
                0x00000000080c716c                sp_spk2352nn123
                0x00000000080c71c2                sp_spk2352nn122
                0x00000000080c71ee                sp_spk2352nn121
                0x00000000080c7222                sp_spk2352nn120
                0x00000000080c726b                sp_spk2352nn119
                0x00000000080c72a1                sp_spk2352nn118
                0x00000000080c72d0                sp_spk2352nn117
                0x00000000080c7302                sp_spk2352nn116
                0x00000000080c7333                sp_spk2352nn115
                0x00000000080c737b                sp_spk2352nn114
                0x00000000080c7413                sp_spk2352nn113
                0x00000000080c7468                sp_spk2352nn112
                0x00000000080c74be                sp_spk2352nn111
                0x00000000080c7504                sp_spk2352nn110
                0x00000000080c756d                sp_spk2352nn109
                0x00000000080c75c1                sp_spk2352nn108
                0x00000000080c760f                sp_spk2352nn107
                0x00000000080c765f                sp_spk2352nn106
                0x00000000080c76e3                sp_spk2352nn105
                0x00000000080c774b                sp_spk2352nn104
                0x00000000080c7792                sp_spk2352nn103
                0x00000000080c77e8                sp_spk2352nn102
                0x00000000080c7828                sp_spk2352nn101
                0x00000000080c7880                sp_spk2352nn100
                0x00000000080c78be                sp_spk2352nn99
                0x00000000080c792b                sp_spk2352nn98
                0x00000000080c798b                sp_spk2352nn97
                0x00000000080c79e3                sp_spk2352nn96
                0x00000000080c7a23                sp_spk2352nn95
                0x00000000080c7a82                sp_spk2352nn94
                0x00000000080c7ac3                sp_spk2352nn93
                0x00000000080c7b0e                sp_spk2352nn92
                0x00000000080c7b72                sp_spk2352nn91
                0x00000000080c7bb3                sp_spk2352nn90
                0x00000000080c7be9                sp_spk2352nn89
                0x00000000080c7c47                sp_spk2352nn88
                0x00000000080c7c83                sp_spk2352nn87
                0x00000000080c7cb7                sp_spk2352nn86
                0x00000000080c7d18                sp_spk2352nn85
                0x00000000080c7d60                sp_spk2352nn84
                0x00000000080c7da8                sp_spk2352nn83
                0x00000000080c7df8                sp_spk2352nn82
                0x00000000080c7ea2                sp_spk2352nn81
                0x00000000080c7ef0                sp_spk2352nn80
                0x00000000080c7f47                sp_spk2352nn79
                0x00000000080c7fa5                sp_spk2352nn78
                0x00000000080c7fec                sp_spk2352nn77
                0x00000000080c8058                sp_spk2352nn76
                0x00000000080c8093                sp_spk2352nn75
                0x00000000080c80dc                sp_spk2352nn74
                0x00000000080c812f                sp_spk2352nn73
                0x00000000080c8178                sp_spk2352nn72
                0x00000000080c81d1                sp_spk2352nn71
                0x00000000080c8206                sp_spk2352nn70
                0x00000000080c824b                sp_spk2352nn69
                0x00000000080c82ac                sp_spk2352nn68
                0x00000000080c82e5                sp_spk2352nn67
                0x00000000080c830a                sp_spk2352nn66
                0x00000000080c8350                sp_spk2352nn65
                0x00000000080c8397                sp_spk2352nn64
                0x00000000080c83f4                sp_spk2352nn63
                0x00000000080c843f                sp_spk2352nn62
                0x00000000080c84a0                sp_spk2352nn61
                0x00000000080c84eb                sp_spk2352nn60
                0x00000000080c8521                sp_spk2352nn59
                0x00000000080c8576                sp_spk2352nn58
                0x00000000080c85ca                sp_spk2352nn57
                0x00000000080c85f3                sp_spk2352nn56
                0x00000000080c8620                sp_spk2352nn55
                0x00000000080c8680                sp_spk2352nn54
                0x00000000080c86a6                sp_spk2352nn53
                0x00000000080c86ed                sp_spk2352nn52
                0x00000000080c875a                sp_spk2352nn51
                0x00000000080c87d8                sp_spk2352nn50
                0x00000000080c8849                sp_spk2352nn49
                0x00000000080c88b9                sp_spk2352nn48
                0x00000000080c890e                sp_spk2352nn47
                0x00000000080c8981                sp_spk2352nn46
                0x00000000080c89df                sp_spk2352nn45
                0x00000000080c8a1a                sp_spk2352nn44
                0x00000000080c8a85                sp_spk2352nn43
                0x00000000080c8adb                sp_spk2352nn42
                0x00000000080c8b14                sp_spk2352nn41
                0x00000000080c8b56                sp_spk2352nn40
                0x00000000080c8ba1                sp_spk2352nn39
                0x00000000080c8c22                sp_spk2352nn38
                0x00000000080c8c72                sp_spk2352nn37
                0x00000000080c8cd0                sp_spk2352nn36
                0x00000000080c8d23                sp_spk2352nn35
                0x00000000080c8d71                sp_spk2352nn34
                0x00000000080c8dbb                sp_spk2352nn33
                0x00000000080c8dff                sp_spk2352nn32
                0x00000000080c8e57                sp_spk2352nn31
                0x00000000080c8e9d                sp_spk2352nn30
                0x00000000080c8ebd                sp_spk2352nn29
                0x00000000080c8f08                sp_spk2352nn28
                0x00000000080c8f69                sp_spk2352nn27
                0x00000000080c8fca                sp_spk2352nn26
                0x00000000080c9032                sp_spk2352nn25
                0x00000000080c909c                sp_spk2352nn24
                0x00000000080c9109                sp_spk2352nn23
                0x00000000080c9172                sp_spk2352nn22
                0x00000000080c91b6                sp_spk2352nn21
                0x00000000080c920a                sp_spk2352nn20
                0x00000000080c924e                sp_spk2352nn19
                0x00000000080c92b9                sp_spk2352nn18
                0x00000000080c9300                sp_spk2352nn17
                0x00000000080c9351                sp_spk2352nn16
                0x00000000080c93aa                sp_spk2352nn15
                0x00000000080c93ee                sp_spk2352nn14
                0x00000000080c9420                sp_spk2352nn13
                0x00000000080c946b                sp_spk2352nn12
                0x00000000080c94b8                sp_spk2352nn11
                0x00000000080c9503                sp_spk2352nn10
                0x00000000080c957d                sp_spk2352nn9
                0x00000000080c95e4                sp_spk2352nn8
                0x00000000080c961a                sp_spk2352nn7
                0x00000000080c967d                sp_spk2352nn6
                0x00000000080c96a8                sp_spk2352nn5
                0x00000000080c96df                sp_spk2352nn4
                0x00000000080c9720                sp_spk2352nn3
                0x00000000080c9768                sp_spk2352nn2
                0x00000000080c97af                sp_spk2352nn1
                0x00000000080c9816                sp_spk2352nn0
                0x00000000080c987d                sp_spk2350nn150
                0x00000000080c98cd                sp_spk2350nn149
                0x00000000080c991d                sp_spk2350nn148
                0x00000000080c9967                sp_spk2350nn147
                0x00000000080c99cd                sp_spk2350nn146
                0x00000000080c9a1b                sp_spk2350nn145
                0x00000000080c9a68                sp_spk2350nn144
                0x00000000080c9aa7                sp_spk2350nn143
                0x00000000080c9ade                sp_spk2350nn142
                0x00000000080c9b4e                sp_spk2350nn141
                0x00000000080c9b9a                sp_spk2350nn140
                0x00000000080c9c0e                sp_spk2350nn139
                0x00000000080c9c5d                sp_spk2350nn138
                0x00000000080c9ca7                sp_spk2350nn137
                0x00000000080c9d05                sp_spk2350nn136
                0x00000000080c9d5b                sp_spk2350nn135
                0x00000000080c9dad                sp_spk2350nn134
                0x00000000080c9e0d                sp_spk2350nn133
                0x00000000080c9e59                sp_spk2350nn132
                0x00000000080c9e9e                sp_spk2350nn131
                0x00000000080c9ef0                sp_spk2350nn130
                0x00000000080c9f4c                sp_spk2350nn129
                0x00000000080c9fbd                sp_spk2350nn128
                0x00000000080ca007                sp_spk2350nn127
                0x00000000080ca061                sp_spk2350nn126
                0x00000000080ca0a6                sp_spk2350nn125
                0x00000000080ca0f0                sp_spk2350nn124
                0x00000000080ca134                sp_spk2350nn123
                0x00000000080ca18f                sp_spk2350nn122
                0x00000000080ca1f0                sp_spk2350nn121
                0x00000000080ca243                sp_spk2350nn120
                0x00000000080ca282                sp_spk2350nn119
                0x00000000080ca2cf                sp_spk2350nn118
                0x00000000080ca32a                sp_spk2350nn117
                0x00000000080ca373                sp_spk2350nn116
                0x00000000080ca3c7                sp_spk2350nn115
                0x00000000080ca432                sp_spk2350nn114
                0x00000000080ca48a                sp_spk2350nn113
                0x00000000080ca4c3                sp_spk2350nn112
                0x00000000080ca4f9                sp_spk2350nn111
                0x00000000080ca53a                sp_spk2350nn110
                0x00000000080ca58e                sp_spk2350nn109
                0x00000000080ca5de                sp_spk2350nn108
                0x00000000080ca62d                sp_spk2350nn107
                0x00000000080ca672                sp_spk2350nn106
                0x00000000080ca6c5                sp_spk2350nn105
                0x00000000080ca70f                sp_spk2350nn104
                0x00000000080ca745                sp_spk2350nn103
                0x00000000080ca78a                sp_spk2350nn102
                0x00000000080ca7cc                sp_spk2350nn101
                0x00000000080ca810                sp_spk2350nn100
                0x00000000080ca854                sp_spk2350nn99
                0x00000000080ca89b                sp_spk2350nn98
                0x00000000080ca911                sp_spk2350nn97
                0x00000000080ca968                sp_spk2350nn96
                0x00000000080ca9bd                sp_spk2350nn95
                0x00000000080caa0f                sp_spk2350nn94
                0x00000000080caa68                sp_spk2350nn93
                0x00000000080caac3                sp_spk2350nn92
                0x00000000080caafc                sp_spk2350nn91
                0x00000000080cab36                sp_spk2350nn90
                0x00000000080cab8a                sp_spk2350nn89
                0x00000000080cabce                sp_spk2350nn88
                0x00000000080cac1b                sp_spk2350nn87
                0x00000000080cac5d                sp_spk2350nn86
                0x00000000080cac98                sp_spk2350nn85
                0x00000000080cace0                sp_spk2350nn84
                0x00000000080cad29                sp_spk2350nn83
                0x00000000080cad75                sp_spk2350nn82
                0x00000000080cadba                sp_spk2350nn81
                0x00000000080cae01                sp_spk2350nn80
                0x00000000080cae54                sp_spk2350nn79
                0x00000000080caea7                sp_spk2350nn78
                0x00000000080caef0                sp_spk2350nn77
                0x00000000080caf36                sp_spk2350nn76
                0x00000000080caf9d                sp_spk2350nn75
                0x00000000080caff3                sp_spk2350nn74
                0x00000000080cb04b                sp_spk2350nn73
                0x00000000080cb097                sp_spk2350nn72
                0x00000000080cb0ed                sp_spk2350nn71
                0x00000000080cb141                sp_spk2350nn70
                0x00000000080cb194                sp_spk2350nn69
                0x00000000080cb1e9                sp_spk2350nn68
                0x00000000080cb22e                sp_spk2350nn67
                0x00000000080cb283                sp_spk2350nn66
                0x00000000080cb2d2                sp_spk2350nn65
                0x00000000080cb314                sp_spk2350nn64
                0x00000000080cb368                sp_spk2350nn63
                0x00000000080cb3b8                sp_spk2350nn62
                0x00000000080cb3ff                sp_spk2350nn61
                0x00000000080cb444                sp_spk2350nn60
                0x00000000080cb482                sp_spk2350nn59
                0x00000000080cb4e1                sp_spk2350nn58
                0x00000000080cb51e                sp_spk2350nn57
                0x00000000080cb56d                sp_spk2350nn56
                0x00000000080cb5b5                sp_spk2350nn55
                0x00000000080cb5e9                sp_spk2350nn54
                0x00000000080cb629                sp_spk2350nn53
                0x00000000080cb66e                sp_spk2350nn52
                0x00000000080cb6b6                sp_spk2350nn51
                0x00000000080cb70d                sp_spk2350nn50
                0x00000000080cb74e                sp_spk2350nn49
                0x00000000080cb796                sp_spk2350nn48
                0x00000000080cb7da                sp_spk2350nn47
                0x00000000080cb816                sp_spk2350nn46
                0x00000000080cb86e                sp_spk2350nn45
                0x00000000080cb8dc                sp_spk2350nn44
                0x00000000080cb916                sp_spk2350nn43
                0x00000000080cb97b                sp_spk2350nn42
                0x00000000080cb9c0                sp_spk2350nn41
                0x00000000080cba19                sp_spk2350nn40
                0x00000000080cba62                sp_spk2350nn39
                0x00000000080cbab5                sp_spk2350nn38
                0x00000000080cbb1d                sp_spk2350nn37
                0x00000000080cbb66                sp_spk2350nn36
                0x00000000080cbbae                sp_spk2350nn35
                0x00000000080cbc05                sp_spk2350nn34
                0x00000000080cbc5d                sp_spk2350nn33
                0x00000000080cbcb4                sp_spk2350nn32
                0x00000000080cbcfd                sp_spk2350nn31
                0x00000000080cbd45                sp_spk2350nn30
                0x00000000080cbd83                sp_spk2350nn29
                0x00000000080cbdd8                sp_spk2350nn28
                0x00000000080cbe04                sp_spk2350nn27
                0x00000000080cbe3b                sp_spk2350nn26
                0x00000000080cbe6c                sp_spk2350nn25
                0x00000000080cbea0                sp_spk2350nn24
                0x00000000080cbef1                sp_spk2350nn23
                0x00000000080cbf33                sp_spk2350nn22
                0x00000000080cbf68                sp_spk2350nn21
                0x00000000080cbfac                sp_spk2350nn20
                0x00000000080cbff8                sp_spk2350nn19
                0x00000000080cc02c                sp_spk2350nn18
                0x00000000080cc06a                sp_spk2350nn17
                0x00000000080cc0a8                sp_spk2350nn16
                0x00000000080cc0e7                sp_spk2350nn15
                0x00000000080cc12d                sp_spk2350nn14
                0x00000000080cc161                sp_spk2350nn13
                0x00000000080cc1ad                sp_spk2350nn12
                0x00000000080cc1ff                sp_spk2350nn11
                0x00000000080cc248                sp_spk2350nn10
                0x00000000080cc292                sp_spk2350nn9
                0x00000000080cc2c7                sp_spk2350nn8
                0x00000000080cc310                sp_spk2350nn7
                0x00000000080cc366                sp_spk2350nn6
                0x00000000080cc467                sp_spk2350nn5
                0x00000000080cc4e1                sp_spk2350nn4
                0x00000000080cc54d                sp_spk2350nn3
                0x00000000080cc5b8                sp_spk2350nn2
                0x00000000080cc623                sp_spk2350nn1
                0x00000000080cc65b                sp_spk2350nn0
                0x00000000080cc6a2                sp_spk2303nn87
                0x00000000080cc70e                sp_spk2303nn86
                0x00000000080cc797                sp_spk2303nn85
                0x00000000080cc7f3                sp_spk2303nn84
                0x00000000080cc883                sp_spk2303nn83
                0x00000000080cc8eb                sp_spk2303nn82
                0x00000000080cc95a                sp_spk2303nn81
                0x00000000080cc9bb                sp_spk2303nn80
                0x00000000080cca5a                sp_spk2303nn79
                0x00000000080ccac1                sp_spk2303nn78
                0x00000000080ccb1e                sp_spk2303nn77
                0x00000000080ccb87                sp_spk2303nn76
                0x00000000080ccc09                sp_spk2303nn75
                0x00000000080ccc8d                sp_spk2303nn74
                0x00000000080ccd0e                sp_spk2303nn73
                0x00000000080ccda8                sp_spk2303nn72
                0x00000000080cce1a                sp_spk2303nn71
                0x00000000080cce6c                sp_spk2303nn70
                0x00000000080ccec4                sp_spk2303nn69
                0x00000000080ccf2c                sp_spk2303nn68
                0x00000000080ccf8a                sp_spk2303nn67
                0x00000000080cd006                sp_spk2303nn66
                0x00000000080cd06c                sp_spk2303nn65
                0x00000000080cd0d3                sp_spk2303nn64
                0x00000000080cd122                sp_spk2303nn63
                0x00000000080cd19b                sp_spk2303nn62
                0x00000000080cd202                sp_spk2303nn61
                0x00000000080cd261                sp_spk2303nn60
                0x00000000080cd2af                sp_spk2303nn59
                0x00000000080cd303                sp_spk2303nn58
                0x00000000080cd347                sp_spk2303nn57
                0x00000000080cd3ad                sp_spk2303nn56
                0x00000000080cd424                sp_spk2303nn55
                0x00000000080cd49a                sp_spk2303nn54
                0x00000000080cd546                sp_spk2303nn53
                0x00000000080cd5b9                sp_spk2303nn52
                0x00000000080cd626                sp_spk2303nn51
                0x00000000080cd674                sp_spk2303nn50
                0x00000000080cd6d6                sp_spk2303nn49
                0x00000000080cd72c                sp_spk2303nn48
                0x00000000080cd786                sp_spk2303nn47
                0x00000000080cd7e2                sp_spk2303nn46
                0x00000000080cd851                sp_spk2303nn45
                0x00000000080cd8d3                sp_spk2303nn44
                0x00000000080cd956                sp_spk2303nn43
                0x00000000080cd9bd                sp_spk2303nn42
                0x00000000080cda16                sp_spk2303nn41
                0x00000000080cda90                sp_spk2303nn40
                0x00000000080cdadb                sp_spk2303nn39
                0x00000000080cdb4a                sp_spk2303nn38
                0x00000000080cdba9                sp_spk2303nn37
                0x00000000080cdc1d                sp_spk2303nn36
                0x00000000080cdc74                sp_spk2303nn35
                0x00000000080cdce2                sp_spk2303nn34
                0x00000000080cdd2f                sp_spk2303nn33
                0x00000000080cdd8a                sp_spk2303nn32
                0x00000000080cddc8                sp_spk2303nn31
                0x00000000080cde09                sp_spk2303nn30
                0x00000000080cde6d                sp_spk2303nn29
                0x00000000080cdecf                sp_spk2303nn28
                0x00000000080cdf2c                sp_spk2303nn27
                0x00000000080cdfa8                sp_spk2303nn26
                0x00000000080ce016                sp_spk2303nn25
                0x00000000080ce062                sp_spk2303nn24
                0x00000000080ce0c1                sp_spk2303nn23
                0x00000000080ce118                sp_spk2303nn22
                0x00000000080ce17c                sp_spk2303nn21
                0x00000000080ce200                sp_spk2303nn20
                0x00000000080ce26a                sp_spk2303nn19
                0x00000000080ce2d6                sp_spk2303nn18
                0x00000000080ce342                sp_spk2303nn17
                0x00000000080ce39e                sp_spk2303nn16
                0x00000000080ce404                sp_spk2303nn15
                0x00000000080ce468                sp_spk2303nn14
                0x00000000080ce4cd                sp_spk2303nn13
                0x00000000080ce533                sp_spk2303nn12
                0x00000000080ce57b                sp_spk2303nn11
                0x00000000080ce5d5                sp_spk2303nn10
                0x00000000080ce64e                sp_spk2303nn9
                0x00000000080ce69e                sp_spk2303nn8
                0x00000000080ce6fb                sp_spk2303nn7
                0x00000000080ce765                sp_spk2303nn6
                0x00000000080ce7c6                sp_spk2303nn5
                0x00000000080ce83d                sp_spk2303nn4
                0x00000000080ce88e                sp_spk2303nn3
                0x00000000080ce905                sp_spk2303nn2
                0x00000000080ce955                sp_spk2303nn1
                0x00000000080ce9aa                sp_spk2303nn0
                0x00000000080ce9f7                sp_spk0352nn165
                0x00000000080cea4b                sp_spk0352nn164
                0x00000000080ceabb                sp_spk0352nn163
                0x00000000080ceb13                sp_spk0352nn162
                0x00000000080ceb6b                sp_spk0352nn161
                0x00000000080cebdc                sp_spk0352nn160
                0x00000000080cec51                sp_spk0352nn159
                0x00000000080cecb9                sp_spk0352nn158
                0x00000000080ced1b                sp_spk0352nn157
                0x00000000080ced82                sp_spk0352nn156
                0x00000000080cedfd                sp_spk0352nn155
                0x00000000080cee5b                sp_spk0352nn154
                0x00000000080ceebc                sp_spk0352nn153
                0x00000000080cef2b                sp_spk0352nn152
                0x00000000080cefa7                sp_spk0352nn151
                0x00000000080ceff3                sp_spk0352nn150
                0x00000000080cf071                sp_spk0352nn149
                0x00000000080cf0fd                sp_spk0352nn148
                0x00000000080cf149                sp_spk0352nn147
                0x00000000080cf19d                sp_spk0352nn146
                0x00000000080cf237                sp_spk0352nn145
                0x00000000080cf2a2                sp_spk0352nn144
                0x00000000080cf319                sp_spk0352nn143
                0x00000000080cf38f                sp_spk0352nn142
                0x00000000080cf3e1                sp_spk0352nn141
                0x00000000080cf444                sp_spk0352nn140
                0x00000000080cf4a0                sp_spk0352nn139
                0x00000000080cf4de                sp_spk0352nn138
                0x00000000080cf54e                sp_spk0352nn137
                0x00000000080cf5b2                sp_spk0352nn136
                0x00000000080cf632                sp_spk0352nn135
                0x00000000080cf6b3                sp_spk0352nn134
                0x00000000080cf732                sp_spk0352nn133
                0x00000000080cf77e                sp_spk0352nn132
                0x00000000080cf7f4                sp_spk0352nn131
                0x00000000080cf871                sp_spk0352nn130
                0x00000000080cf8ee                sp_spk0352nn129
                0x00000000080cf969                sp_spk0352nn128
                0x00000000080cf9b0                sp_spk0352nn127
                0x00000000080cfa06                sp_spk0352nn126
                0x00000000080cfa46                sp_spk0352nn125
                0x00000000080cfa8d                sp_spk0352nn124
                0x00000000080cfae4                sp_spk0352nn123
                0x00000000080cfb3d                sp_spk0352nn122
                0x00000000080cfb95                sp_spk0352nn121
                0x00000000080cfbfc                sp_spk0352nn120
                0x00000000080cfc5a                sp_spk0352nn119
                0x00000000080cfcc2                sp_spk0352nn118
                0x00000000080cfd58                sp_spk0352nn117
                0x00000000080cfe03                sp_spk0352nn116
                0x00000000080cfe40                sp_spk0352nn115
                0x00000000080cfe86                sp_spk0352nn114
                0x00000000080cfeeb                sp_spk0352nn113
                0x00000000080cffa0                sp_spk0352nn112
                0x00000000080d000d                sp_spk0352nn111
                0x00000000080d0066                sp_spk0352nn110
                0x00000000080d00eb                sp_spk0352nn109
                0x00000000080d014a                sp_spk0352nn108
                0x00000000080d01ae                sp_spk0352nn107
                0x00000000080d01f3                sp_spk0352nn106
                0x00000000080d0254                sp_spk0352nn105
                0x00000000080d029e                sp_spk0352nn104
                0x00000000080d0332                sp_spk0352nn103
                0x00000000080d03c2                sp_spk0352nn102
                0x00000000080d0460                sp_spk0352nn101
                0x00000000080d04b3                sp_spk0352nn100
                0x00000000080d0522                sp_spk0352nn99
                0x00000000080d0581                sp_spk0352nn98
                0x00000000080d05f7                sp_spk0352nn97
                0x00000000080d0671                sp_spk0352nn96
                0x00000000080d06cb                sp_spk0352nn95
                0x00000000080d06fd                sp_spk0352nn94
                0x00000000080d0756                sp_spk0352nn93
                0x00000000080d07cc                sp_spk0352nn92
                0x00000000080d083a                sp_spk0352nn91
                0x00000000080d08a5                sp_spk0352nn90
                0x00000000080d0910                sp_spk0352nn89
                0x00000000080d09a1                sp_spk0352nn88
                0x00000000080d09fc                sp_spk0352nn87
                0x00000000080d0a75                sp_spk0352nn86
                0x00000000080d0ac6                sp_spk0352nn85
                0x00000000080d0b1a                sp_spk0352nn84
                0x00000000080d0b72                sp_spk0352nn83
                0x00000000080d0be7                sp_spk0352nn82
                0x00000000080d0c4f                sp_spk0352nn81
                0x00000000080d0cb0                sp_spk0352nn80
                0x00000000080d0d17                sp_spk0352nn79
                0x00000000080d0d92                sp_spk0352nn78
                0x00000000080d0df0                sp_spk0352nn77
                0x00000000080d0e51                sp_spk0352nn76
                0x00000000080d0ec0                sp_spk0352nn75
                0x00000000080d0f3c                sp_spk0352nn74
                0x00000000080d0f88                sp_spk0352nn73
                0x00000000080d0fed                sp_spk0352nn72
                0x00000000080d105c                sp_spk0352nn71
                0x00000000080d10d2                sp_spk0352nn70
                0x00000000080d1139                sp_spk0352nn69
                0x00000000080d1188                sp_spk0352nn68
                0x00000000080d1201                sp_spk0352nn67
                0x00000000080d1268                sp_spk0352nn66
                0x00000000080d12c7                sp_spk0352nn65
                0x00000000080d1323                sp_spk0352nn64
                0x00000000080d139d                sp_spk0352nn63
                0x00000000080d13e8                sp_spk0352nn62
                0x00000000080d142c                sp_spk0352nn61
                0x00000000080d149f                sp_spk0352nn60
                0x00000000080d1505                sp_spk0352nn59
                0x00000000080d1591                sp_spk0352nn58
                0x00000000080d15fc                sp_spk0352nn57
                0x00000000080d1673                sp_spk0352nn56
                0x00000000080d16e9                sp_spk0352nn55
                0x00000000080d1731                sp_spk0352nn54
                0x00000000080d179d                sp_spk0352nn53
                0x00000000080d1802                sp_spk0352nn52
                0x00000000080d1858                sp_spk0352nn51
                0x00000000080d18e0                sp_spk0352nn50
                0x00000000080d1928                sp_spk0352nn49
                0x00000000080d196f                sp_spk0352nn48
                0x00000000080d19eb                sp_spk0352nn47
                0x00000000080d1a4b                sp_spk0352nn46
                0x00000000080d1a9b                sp_spk0352nn45
                0x00000000080d1ae7                sp_spk0352nn44
                0x00000000080d1b4d                sp_spk0352nn43
                0x00000000080d1bae                sp_spk0352nn42
                0x00000000080d1bff                sp_spk0352nn41
                0x00000000080d1c7c                sp_spk0352nn40
                0x00000000080d1cdf                sp_spk0352nn39
                0x00000000080d1d3b                sp_spk0352nn38
                0x00000000080d1d8f                sp_spk0352nn37
                0x00000000080d1df2                sp_spk0352nn36
                0x00000000080d1e6c                sp_spk0352nn35
                0x00000000080d1ed3                sp_spk0352nn34
                0x00000000080d1f4c                sp_spk0352nn33
                0x00000000080d1fba                sp_spk0352nn32
                0x00000000080d2035                sp_spk0352nn31
                0x00000000080d209d                sp_spk0352nn30
                0x00000000080d20ef                sp_spk0352nn29
                0x00000000080d2141                sp_spk0352nn28
                0x00000000080d2184                sp_spk0352nn27
                0x00000000080d21d5                sp_spk0352nn26
                0x00000000080d221b                sp_spk0352nn25
                0x00000000080d2275                sp_spk0352nn24
                0x00000000080d22e3                sp_spk0352nn23
                0x00000000080d2330                sp_spk0352nn22
                0x00000000080d238b                sp_spk0352nn21
                0x00000000080d23ec                sp_spk0352nn20
                0x00000000080d244d                sp_spk0352nn19
                0x00000000080d247b                sp_spk0352nn18
                0x00000000080d24f7                sp_spk0352nn17
                0x00000000080d2551                sp_spk0352nn16
                0x00000000080d258f                sp_spk0352nn15
                0x00000000080d25f4                sp_spk0352nn14
                0x00000000080d2656                sp_spk0352nn13
                0x00000000080d26b3                sp_spk0352nn12
                0x00000000080d272f                sp_spk0352nn11
                0x00000000080d2793                sp_spk0352nn10
                0x00000000080d2801                sp_spk0352nn9
                0x00000000080d284c                sp_spk0352nn8
                0x00000000080d28ab                sp_spk0352nn7
                0x00000000080d2901                sp_spk0352nn6
                0x00000000080d296e                sp_spk0352nn5
                0x00000000080d29d2                sp_spk0352nn4
                0x00000000080d2a36                sp_spk0352nn3
                0x00000000080d2a93                sp_spk0352nn2
                0x00000000080d2aed                sp_spk0352nn1
                0x00000000080d2b4f                sp_spk0352nn0
                0x00000000080d2bc1                sp_spk0352n135
                0x00000000080d2c1a                sp_spk0352n134
                0x00000000080d2c5f                sp_spk0352n133
                0x00000000080d2cd6                sp_spk0352n132
                0x00000000080d2d49                sp_spk0352n131
                0x00000000080d2d9f                sp_spk0352n130
                0x00000000080d2e0f                sp_spk0352n129
                0x00000000080d2e4c                sp_spk0352n128
                0x00000000080d2e97                sp_spk0352n127
                0x00000000080d2f00                sp_spk0352n126
                0x00000000080d2f5f                sp_spk0352n125
                0x00000000080d2fc4                sp_spk0352n124
                0x00000000080d3026                sp_spk0352n123
                0x00000000080d3078                sp_spk0352n122
                0x00000000080d30d4                sp_spk0352n121
                0x00000000080d313b                sp_spk0352n120
                0x00000000080d317d                sp_spk0352n119
                0x00000000080d31ea                sp_spk0352n118
                0x00000000080d3243                sp_spk0352n117
                0x00000000080d32a7                sp_spk0352n116
                0x00000000080d3320                sp_spk0352n115
                0x00000000080d3364                sp_spk0352n114
                0x00000000080d33d5                sp_spk0352n113
                0x00000000080d343d                sp_spk0352n112
                0x00000000080d34c1                sp_spk0352n111
                0x00000000080d351d                sp_spk0352n110
                0x00000000080d3560                sp_spk0352n109
                0x00000000080d35b8                sp_spk0352n108
                0x00000000080d3620                sp_spk0352n107
                0x00000000080d3663                sp_spk0352n106
                0x00000000080d36b4                sp_spk0352n105
                0x00000000080d37d7                sp_spk0352n104
                0x00000000080d383f                sp_spk0352n103
                0x00000000080d38d9                sp_spk0352n102
                0x00000000080d3956                sp_spk0352n101
                0x00000000080d39a1                sp_spk0352n100
                0x00000000080d3a02                sp_spk0352n99
                0x00000000080d3a7c                sp_spk0352n98
                0x00000000080d3af7                sp_spk0352n97
                0x00000000080d3b56                sp_spk0352n96
                0x00000000080d3bd3                sp_spk0352n95
                0x00000000080d3c56                sp_spk0352n94
                0x00000000080d3cc3                sp_spk0352n93
                0x00000000080d3d37                sp_spk0352n92
                0x00000000080d3d93                sp_spk0352n91
                0x00000000080d3e12                sp_spk0352n90
                0x00000000080d3e71                sp_spk0352n89
                0x00000000080d3ed7                sp_spk0352n88
                0x00000000080d3f1a                sp_spk0352n87
                0x00000000080d3f8a                sp_spk0352n86
                0x00000000080d3fba                sp_spk0352n85
                0x00000000080d4011                sp_spk0352n84
                0x00000000080d4057                sp_spk0352n83
                0x00000000080d4090                sp_spk0352n82
                0x00000000080d4101                sp_spk0352n81
                0x00000000080d414a                sp_spk0352n80
                0x00000000080d418a                sp_spk0352n79
                0x00000000080d41d8                sp_spk0352n78
                0x00000000080d422a                sp_spk0352n77
                0x00000000080d428c                sp_spk0352n76
                0x00000000080d42d2                sp_spk0352n75
                0x00000000080d431d                sp_spk0352n74
                0x00000000080d4356                sp_spk0352n73
                0x00000000080d43a1                sp_spk0352n72
                0x00000000080d43ef                sp_spk0352n71
                0x00000000080d4437                sp_spk0352n70
                0x00000000080d4492                sp_spk0352n69
                0x00000000080d44e4                sp_spk0352n68
                0x00000000080d4542                sp_spk0352n67
                0x00000000080d457c                sp_spk0352n66
                0x00000000080d45d5                sp_spk0352n65
                0x00000000080d4640                sp_spk0352n64
                0x00000000080d467e                sp_spk0352n63
                0x00000000080d46e0                sp_spk0352n62
                0x00000000080d4733                sp_spk0352n61
                0x00000000080d47a2                sp_spk0352n60
                0x00000000080d47ee                sp_spk0352n59
                0x00000000080d4856                sp_spk0352n58
                0x00000000080d48ae                sp_spk0352n57
                0x00000000080d48ff                sp_spk0352n56
                0x00000000080d4973                sp_spk0352n55
                0x00000000080d49f3                sp_spk0352n54
                0x00000000080d4ab1                sp_spk0352n53
                0x00000000080d4b21                sp_spk0352n52
                0x00000000080d4b79                sp_spk0352n51
                0x00000000080d4bc0                sp_spk0352n50
                0x00000000080d4c1e                sp_spk0352n49
                0x00000000080d4cbb                sp_spk0352n48
                0x00000000080d4d6e                sp_spk0352n47
                0x00000000080d4dbe                sp_spk0352n46
                0x00000000080d4e42                sp_spk0352n45
                0x00000000080d4e84                sp_spk0352n44
                0x00000000080d4f00                sp_spk0352n43
                0x00000000080d4f87                sp_spk0352n42
                0x00000000080d5029                sp_spk0352n41
                0x00000000080d50c0                sp_spk0352n40
                0x00000000080d5110                sp_spk0352n39
                0x00000000080d5177                sp_spk0352n38
                0x00000000080d51a5                sp_spk0352n37
                0x00000000080d51e3                sp_spk0352n36
                0x00000000080d522a                sp_spk0352n35
                0x00000000080d5288                sp_spk0352n34
                0x00000000080d52d5                sp_spk0352n33
                0x00000000080d532f                sp_spk0352n32
                0x00000000080d5373                sp_spk0352n31
                0x00000000080d53be                sp_spk0352n30
                0x00000000080d5428                sp_spk0352n29
                0x00000000080d5464                sp_spk0352n28
                0x00000000080d54b6                sp_spk0352n27
                0x00000000080d54ea                sp_spk0352n26
                0x00000000080d5560                sp_spk0352n25
                0x00000000080d55a5                sp_spk0352n24
                0x00000000080d55eb                sp_spk0352n23
                0x00000000080d562d                sp_spk0352n22
                0x00000000080d5662                sp_spk0352n21
                0x00000000080d569d                sp_spk0352n20
                0x00000000080d56ee                sp_spk0352n19
                0x00000000080d5735                sp_spk0352n18
                0x00000000080d576a                sp_spk0352n17
                0x00000000080d579e                sp_spk0352n16
                0x00000000080d57db                sp_spk0352n15
                0x00000000080d581c                sp_spk0352n14
                0x00000000080d585a                sp_spk0352n13
                0x00000000080d58aa                sp_spk0352n12
                0x00000000080d58e0                sp_spk0352n11
                0x00000000080d5918                sp_spk0352n10
                0x00000000080d5956                sp_spk0352n9
                0x00000000080d598a                sp_spk0352n8
                0x00000000080d59ab                sp_spk0352n7
                0x00000000080d59de                sp_spk0352n6
                0x00000000080d5a1a                sp_spk0352n5
                0x00000000080d5a59                sp_spk0352n4
                0x00000000080d5a80                sp_spk0352n3
                0x00000000080d5ad9                sp_spk0352n2
                0x00000000080d5b47                sp_spk0352n1
                0x00000000080d5bac                sp_spk0352n0
 .flash         0x00000000080d5beb     0x5000 digitalker.o
 *fill*         0x00000000080dabeb        0x1 
 .flash         0x00000000080dabec     0x6351 nvp.o
 .flash         0x00000000080e0f3d      0xd7a newvotrax.o
                0x00000000080e113d                gorf114
                0x00000000080e1144                gorf113
                0x00000000080e1149                gorf112
                0x00000000080e114c                gorf111
                0x00000000080e1153                gorf110
                0x00000000080e1159                gorf109
                0x00000000080e115e                gorf108
                0x00000000080e1163                gorf107
                0x00000000080e116b                gorf106
                0x00000000080e1170                gorf105
                0x00000000080e1177                gorf104
                0x00000000080e117d                gorf103
                0x00000000080e1183                gorf102
                0x00000000080e1189                gorf101
                0x00000000080e1191                gorf100
                0x00000000080e119a                gorf99
                0x00000000080e119e                gorf98
                0x00000000080e11a2                gorf97
                0x00000000080e11a6                gorf96
                0x00000000080e11af                gorf95
                0x00000000080e11b3                gorf94
                0x00000000080e11b8                gorf93
                0x00000000080e11bd                gorf92
                0x00000000080e11c2                gorf91
                0x00000000080e11c7                gorf90
                0x00000000080e11cb                gorf89
                0x00000000080e11cf                gorf88
                0x00000000080e11d8                gorf87
                0x00000000080e11e0                gorf86
                0x00000000080e11eb                gorf85
                0x00000000080e11ef                gorf84
                0x00000000080e11f2                gorf83
                0x00000000080e11f8                gorf82
                0x00000000080e11fb                gorf81
                0x00000000080e11fe                gorf80
                0x00000000080e1201                gorf79
                0x00000000080e1205                gorf78
                0x00000000080e120f                gorf77
                0x00000000080e1211                gorf76
                0x00000000080e1218                gorf75
                0x00000000080e121c                gorf74
                0x00000000080e1221                gorf73
                0x00000000080e1225                gorf72
                0x00000000080e1229                gorf71
                0x00000000080e1232                gorf70
                0x00000000080e123a                gorf69
                0x00000000080e1241                gorf68
                0x00000000080e1246                gorf67
                0x00000000080e124f                gorf66
                0x00000000080e1259                gorf65
                0x00000000080e1260                gorf64
                0x00000000080e1266                gorf63
                0x00000000080e1268                gorf62
                0x00000000080e126e                gorf61
                0x00000000080e1271                gorf60
                0x00000000080e1277                gorf59
                0x00000000080e127d                gorf58
                0x00000000080e1281                gorf57
                0x00000000080e1286                gorf56
                0x00000000080e128b                gorf55
                0x00000000080e1290                gorf54
                0x00000000080e1295                gorf53
                0x00000000080e1299                gorf52
                0x00000000080e129d                gorf51
                0x00000000080e12a0                gorf50
                0x00000000080e12a6                gorf49
                0x00000000080e12aa                gorf48
                0x00000000080e12b3                gorf47
                0x00000000080e12b7                gorf46
                0x00000000080e12bb                gorf45
                0x00000000080e12c1                gorf44
                0x00000000080e12c6                gorf43
                0x00000000080e12cc                gorf42
                0x00000000080e12d5                gorf41
                0x00000000080e12df                gorf40
                0x00000000080e12e8                gorf39
                0x00000000080e12f1                gorf38
                0x00000000080e12fa                gorf37
                0x00000000080e1302                gorf36
                0x00000000080e130b                gorf35
                0x00000000080e130f                gorf34
                0x00000000080e1317                gorf33
                0x00000000080e131e                gorf32
                0x00000000080e1324                gorf31
                0x00000000080e1328                gorf30
                0x00000000080e1330                gorf29
                0x00000000080e1335                gorf28
                0x00000000080e133a                gorf27
                0x00000000080e1344                gorf26
                0x00000000080e134d                gorf25
                0x00000000080e1355                gorf24
                0x00000000080e135f                gorf23
                0x00000000080e1365                gorf22
                0x00000000080e136d                gorf21
                0x00000000080e1374                gorf20
                0x00000000080e1380                gorf19
                0x00000000080e1388                gorf18
                0x00000000080e138e                gorf17
                0x00000000080e1394                gorf16
                0x00000000080e139c                gorf15
                0x00000000080e13a1                gorf14
                0x00000000080e13a4                gorf13
                0x00000000080e13a9                gorf12
                0x00000000080e13ae                gorf11
                0x00000000080e13b8                gorf10
                0x00000000080e13bb                gorf9
                0x00000000080e13be                gorf8
                0x00000000080e13c5                gorf7
                0x00000000080e13cb                gorf6
                0x00000000080e13d6                gorf5
                0x00000000080e13db                gorf4
                0x00000000080e13de                gorf3
                0x00000000080e13e2                gorf2
                0x00000000080e13e8                gorf1
                0x00000000080e13eb                gorf0
                0x00000000080e13ef                p79
                0x00000000080e140a                p78
                0x00000000080e1429                p77
                0x00000000080e144d                p76
                0x00000000080e1469                p75
                0x00000000080e1495                p74
                0x00000000080e14b4                p73
                0x00000000080e14cf                p72
                0x00000000080e14fe                p71
                0x00000000080e151f                p70
                0x00000000080e1535                p69
                0x00000000080e1557                p68
                0x00000000080e1579                p67
                0x00000000080e1589                p66
                0x00000000080e15ac                p65
                0x00000000080e15c2                p64
                0x00000000080e15e5                p63
                0x00000000080e160f                p62
                0x00000000080e162c                p61
                0x00000000080e163b                p60
                0x00000000080e1652                p59
                0x00000000080e1659                p58
                0x00000000080e1681                p57
                0x00000000080e16ad                p56
                0x00000000080e16cf                p55
                0x00000000080e16f5                p54
                0x00000000080e170b                p53
                0x00000000080e172b                p52
                0x00000000080e1757                p51
                0x00000000080e1778                p50
                0x00000000080e1791                p49
                0x00000000080e17b3                p48
                0x00000000080e17da                p47
                0x00000000080e1800                p46
                0x00000000080e1818                p45
                0x00000000080e1826                p44
                0x00000000080e1851                p43
                0x00000000080e1878                p42
                0x00000000080e188a                p41
                0x00000000080e1894                p40
                0x00000000080e189c                p39
                0x00000000080e18b9                p38
                0x00000000080e18d6                p37
                0x00000000080e18f9                p36
                0x00000000080e1904                p35
                0x00000000080e1918                p34
                0x00000000080e193a                p33
                0x00000000080e1944                p32
                0x00000000080e1962                p31
                0x00000000080e1982                p30
                0x00000000080e198a                p29
                0x00000000080e199c                p28
                0x00000000080e19a6                p27
                0x00000000080e19b9                p26
                0x00000000080e19e4                p25
                0x00000000080e1a0a                p24
                0x00000000080e1a2d                p23
                0x00000000080e1a4f                p22
                0x00000000080e1a76                p21
                0x00000000080e1aa0                p20
                0x00000000080e1ab6                p19
                0x00000000080e1ad3                p18
                0x00000000080e1ad9                p17
                0x00000000080e1ae7                p16
                0x00000000080e1afc                p15
                0x00000000080e1b17                p14
                0x00000000080e1b2c                p13
                0x00000000080e1b5d                p12
                0x00000000080e1b89                p11
                0x00000000080e1ba8                p10
                0x00000000080e1bc6                p9
                0x00000000080e1be4                p8
                0x00000000080e1c00                p7
                0x00000000080e1c2c                p6
                0x00000000080e1c3e                p5
                0x00000000080e1c47                p4
                0x00000000080e1c5c                p3
                0x00000000080e1c67                p2
                0x00000000080e1c99                p1
 .flash         0x00000000080e1cb7      0x188 ./english2phoneme/parse.o
 .flash         0x00000000080e1e3f      0x4d8 ./english2phoneme/saynum.o
 .flash         0x00000000080e2317     0x1e14 ./english2phoneme/newenglish.o
                0x00000000080e2317                Z_rules
                0x00000000080e233f                X_rules
                0x00000000080e2367                Y_rules
                0x00000000080e2457                V_rules
                0x00000000080e2493                W_rules
                0x00000000080e2597                T_rules
                0x00000000080e27b3                U_rules
                0x00000000080e2a83                R_rules
                0x00000000080e2abf                S_rules
                0x00000000080e2c9f                P_rules
                0x00000000080e2d17                Q_rules
                0x00000000080e2d67                N_rules
                0x00000000080e2e1b                O_rules
                0x00000000080e3203                L_rules
                0x00000000080e327b                M_rules
                0x00000000080e32b7                J_rules
                0x00000000080e32df                K_rules
                0x00000000080e331b                H_rules
                0x00000000080e33a7                I_rules
                0x00000000080e35eb                F_rules
                0x00000000080e3627                G_rules
                0x00000000080e3703                D_rules
                0x00000000080e37df                E_rules
                0x00000000080e3c03                B_rules
                0x00000000080e3c8f                C_rules
                0x00000000080e3d7f                A_rules
                0x00000000080e4027                punct_rules
 .flash         0x00000000080e412b      0xc00 ./english2phoneme/spellwor.o
 .flash         0x00000000080e4d2b     0x357c rsynth_2005/elements.o
                0x00000000080e4d2b                Elementz
 .flash         0x00000000080e82a7     0x2ac0 ./rsynth-2.0-port/holmes.o
                0x00000000080e82a7                phoneme_prob_remap
 .flash         0x00000000080ead67     0x3db9 ./rsynth-2.0-port/elements.o
                0x00000000080ead67                Elements
 .flash         0x00000000080eeb20      0x320 ./rsynth-2.0-port/nsynth.o
                0x00000000080eee40                . = ALIGN (0x4)
                0x00000000080eee40                _sidata = .

.data           0x0000000020000000     0x6838 load address 0x00000000080eee40
                0x0000000020000000                . = ALIGN (0x4)
                0x0000000020000000                _sdata = .
 *(.data)
 .data          0x0000000020000000        0x1 /usr/lib/gcc/arm-none-eabi/8.3.1/../../../arm-none-eabi/lib/thumb/v7e-m+fp/hard/libm.a(lib_a-s_lib_ver.o)
                0x0000000020000000                __fdlib_version
 *fill*         0x0000000020000001        0x7 
 .data          0x0000000020000008      0x430 /usr/lib/gcc/arm-none-eabi/8.3.1/../../../arm-none-eabi/lib/thumb/v7e-m+fp/hard/libc.a(lib_a-impure.o)
                0x0000000020000008                _impure_ptr
 *(.data*)
 .data.TTStester
                0x0000000020000438       0x10 main.o
                0x0000000020000438                TTStester
 .data.test_elm
                0x0000000020000448       0x33 main.o
                0x0000000020000448                test_elm
 .data.test_elm_rsynthy
                0x000000002000047b       0x6c main.o
                0x000000002000047b                test_elm_rsynthy
 *fill*         0x00000000200004e7        0x1 
 .data.CODECTimeout
                0x00000000200004e8        0x4 codec.o
                0x00000000200004e8                CODECTimeout
 .data.APBAHBPrescTable
                0x00000000200004ec       0x10 stm32f4xx_rcc.o
 .data.compostmode.10658
                0x00000000200004fc        0x1 audio.o
 .data.oldcompost.10657
                0x00000000200004fd        0x1 audio.o
 *fill*         0x00000000200004fe        0x2 
 .data.oldselx  0x0000000020000500        0x4 audio.o
 .data.oldsely  0x0000000020000504        0x4 audio.o
 .data.oldselz  0x0000000020000508        0x4 audio.o
 .data.smoothed_adc_value
                0x000000002000050c       0x14 audio.o
                0x000000002000050c                smoothed_adc_value
 .data.vocab_sp0256_bankone
                0x0000000020000520      0x160 sp0256.o
                0x0000000020000520                vocab_sp0256_bankone
 .data.vocab_sp0256_banktwo
                0x0000000020000680      0x168 sp0256.o
                0x0000000020000680                vocab_sp0256_banktwo
 .data.mouth    0x00000000200007e8        0x1 sam.o
                0x00000000200007e8                mouth
 .data.pitch    0x00000000200007e9        0x1 sam.o
                0x00000000200007e9                pitch
 .data.speedd   0x00000000200007ea        0x1 sam.o
                0x00000000200007ea                speedd
 .data.throat   0x00000000200007eb        0x1 sam.o
                0x00000000200007eb                throat
 .data.vocablist_sam
                0x00000000200007ec       0x80 sam.o
                0x00000000200007ec                vocablist_sam
 .data.freq1data
                0x000000002000086c       0x50 render.o
                0x000000002000086c                freq1data
 .data.freq2data
                0x00000000200008bc       0x50 render.o
                0x00000000200008bc                freq2data
 .data.freq3data
                0x000000002000090c       0x50 render.o
                0x000000002000090c                freq3data
 .data.mouthFormants48_53
                0x000000002000095c        0x6 render.o
                0x000000002000095c                mouthFormants48_53
 .data.mouthFormants5_29
                0x0000000020000962       0x1e render.o
                0x0000000020000962                mouthFormants5_29
 .data.throatFormants48_53
                0x0000000020000980        0x6 render.o
                0x0000000020000980                throatFormants48_53
 .data.throatFormants5_29
                0x0000000020000986       0x1e render.o
                0x0000000020000986                throatFormants5_29
 .data.allTMSvocabs
                0x00000000200009a4      0x104 tms5200x.o
                0x00000000200009a4                allTMSvocabs
 .data.m_digital_select
                0x0000000020000aa8        0x1 tms5200x.o
                0x0000000020000aa8                m_digital_select
 .data.m_subc_reload
                0x0000000020000aa9        0x1 tms5200x.o
                0x0000000020000aa9                m_subc_reload
 *fill*         0x0000000020000aaa        0x2 
 .data.wordlist_acorn_1
                0x0000000020000aac      0x140 tms5200x.o
                0x0000000020000aac                wordlist_acorn_1
 .data.wordlist_acorn_2
                0x0000000020000bec      0x14c tms5200x.o
                0x0000000020000bec                wordlist_acorn_2
 .data.wordlist_alphons
                0x0000000020000d38      0x1fc tms5200x.o
                0x0000000020000d38                wordlist_alphons
 .data.wordlist_arcade_one
                0x0000000020000f34      0x128 tms5200x.o
                0x0000000020000f34                wordlist_arcade_one
 .data.wordlist_arcade_two
                0x000000002000105c      0x10c tms5200x.o
                0x000000002000105c                wordlist_arcade_two
 .data.wordlist_ffD000_1
                0x0000000020001168      0x190 tms5200x.o
                0x0000000020001168                wordlist_ffD000_1
 .data.wordlist_ffD000_2
                0x00000000200012f8      0x18c tms5200x.o
                0x00000000200012f8                wordlist_ffD000_2
 .data.wordlist_ffD001_1
                0x0000000020001484      0x184 tms5200x.o
                0x0000000020001484                wordlist_ffD001_1
 .data.wordlist_ffD001_2
                0x0000000020001608      0x184 tms5200x.o
                0x0000000020001608                wordlist_ffD001_2
 .data.wordlist_ffD002_1
                0x000000002000178c      0x18c tms5200x.o
                0x000000002000178c                wordlist_ffD002_1
 .data.wordlist_ffD002_2
                0x0000000020001918      0x18c tms5200x.o
                0x0000000020001918                wordlist_ffD002_2
 .data.wordlist_ffD003
                0x0000000020001aa4      0x180 tms5200x.o
                0x0000000020001aa4                wordlist_ffD003
 .data.wordlist_ffD004_1
                0x0000000020001c24      0x190 tms5200x.o
                0x0000000020001c24                wordlist_ffD004_1
 .data.wordlist_ffD004_2
                0x0000000020001db4      0x18c tms5200x.o
                0x0000000020001db4                wordlist_ffD004_2
 .data.wordlist_ffD005_1
                0x0000000020001f40      0x190 tms5200x.o
                0x0000000020001f40                wordlist_ffD005_1
 .data.wordlist_ffD005_2
                0x00000000200020d0      0x18c tms5200x.o
                0x00000000200020d0                wordlist_ffD005_2
 .data.wordlist_ffD006_1
                0x000000002000225c      0x11c tms5200x.o
                0x000000002000225c                wordlist_ffD006_1
 .data.wordlist_ffD006_2
                0x0000000020002378      0x11c tms5200x.o
                0x0000000020002378                wordlist_ffD006_2
 .data.wordlist_ffD007_1
                0x0000000020002494      0x164 tms5200x.o
                0x0000000020002494                wordlist_ffD007_1
 .data.wordlist_ffD007_2
                0x00000000200025f8      0x164 tms5200x.o
                0x00000000200025f8                wordlist_ffD007_2
 .data.wordlist_ffD008
                0x000000002000275c      0x1c0 tms5200x.o
                0x000000002000275c                wordlist_ffD008
 .data.wordlist_ffD009_1
                0x000000002000291c      0x168 tms5200x.o
                0x000000002000291c                wordlist_ffD009_1
 .data.wordlist_ffD009_2
                0x0000000020002a84      0x168 tms5200x.o
                0x0000000020002a84                wordlist_ffD009_2
 .data.wordlist_ffD010_1
                0x0000000020002bec      0x15c tms5200x.o
                0x0000000020002bec                wordlist_ffD010_1
 .data.wordlist_ffD010_2
                0x0000000020002d48      0x15c tms5200x.o
                0x0000000020002d48                wordlist_ffD010_2
 .data.wordlist_ffD011
                0x0000000020002ea4      0x16c tms5200x.o
                0x0000000020002ea4                wordlist_ffD011
 .data.wordlist_ffD012_1
                0x0000000020003010      0x16c tms5200x.o
                0x0000000020003010                wordlist_ffD012_1
 .data.wordlist_ffD012_2
                0x000000002000317c      0x170 tms5200x.o
                0x000000002000317c                wordlist_ffD012_2
 .data.wordlist_ffD013
                0x00000000200032ec       0xfc tms5200x.o
                0x00000000200032ec                wordlist_ffD013
 .data.wordlist_ffD014
                0x00000000200033e8      0x14c tms5200x.o
                0x00000000200033e8                wordlist_ffD014
 .data.wordlist_ffD015_1
                0x0000000020003534      0x140 tms5200x.o
                0x0000000020003534                wordlist_ffD015_1
 .data.wordlist_ffD015_2
                0x0000000020003674      0x144 tms5200x.o
                0x0000000020003674                wordlist_ffD015_2
 .data.wordlist_ffD016
                0x00000000200037b8       0x9c tms5200x.o
                0x00000000200037b8                wordlist_ffD016
 .data.wordlist_ffD017
                0x0000000020003854       0xcc tms5200x.o
                0x0000000020003854                wordlist_ffD017
 .data.wordlist_ffD018
                0x0000000020003920      0x104 tms5200x.o
                0x0000000020003920                wordlist_ffD018
 .data.wordlist_ffD019
                0x0000000020003a24      0x118 tms5200x.o
                0x0000000020003a24                wordlist_ffD019
 .data.wordlist_ffD021
                0x0000000020003b3c      0x118 tms5200x.o
                0x0000000020003b3c                wordlist_ffD021
 .data.wordlist_ffD022
                0x0000000020003c54       0xbc tms5200x.o
                0x0000000020003c54                wordlist_ffD022
 .data.wordlist_ffD023
                0x0000000020003d10       0xe0 tms5200x.o
                0x0000000020003d10                wordlist_ffD023
 .data.wordlist_ffD025
                0x0000000020003df0      0x130 tms5200x.o
                0x0000000020003df0                wordlist_ffD025
 .data.wordlist_ffD026
                0x0000000020003f20       0x9c tms5200x.o
                0x0000000020003f20                wordlist_ffD026
 .data.wordlist_ffD027to34
                0x0000000020003fbc       0xf4 tms5200x.o
                0x0000000020003fbc                wordlist_ffD027to34
 .data.wordlist_largemale_one_1
                0x00000000200040b0      0x188 tms5200x.o
                0x00000000200040b0                wordlist_largemale_one_1
 .data.wordlist_largemale_one_2
                0x0000000020004238      0x18c tms5200x.o
                0x0000000020004238                wordlist_largemale_one_2
 .data.wordlist_largemale_two_1
                0x00000000200043c4      0x188 tms5200x.o
                0x00000000200043c4                wordlist_largemale_two_1
 .data.wordlist_largemale_two_2
                0x000000002000454c      0x18c tms5200x.o
                0x000000002000454c                wordlist_largemale_two_2
 .data.wordlist_male_1
                0x00000000200046d8      0x19c tms5200x.o
                0x00000000200046d8                wordlist_male_1
 .data.wordlist_male_2
                0x0000000020004874      0x19c tms5200x.o
                0x0000000020004874                wordlist_male_2
 .data.wordlist_mpf
                0x0000000020004a10       0x80 tms5200x.o
                0x0000000020004a10                wordlist_mpf
 .data.wordlist_spell1_1
                0x0000000020004a90      0x12c tms5200x.o
                0x0000000020004a90                wordlist_spell1_1
 .data.wordlist_spell1_2
                0x0000000020004bbc       0xf4 tms5200x.o
                0x0000000020004bbc                wordlist_spell1_2
 .data.wordlist_spell2303
                0x0000000020004cb0      0x160 tms5200x.o
                0x0000000020004cb0                wordlist_spell2303
 .data.wordlist_spell2350_1
                0x0000000020004e10      0x130 tms5200x.o
                0x0000000020004e10                wordlist_spell2350_1
 .data.wordlist_spell2350_2
                0x0000000020004f40      0x12c tms5200x.o
                0x0000000020004f40                wordlist_spell2350_2
 .data.wordlist_spell2352_1
                0x000000002000506c      0x120 tms5200x.o
                0x000000002000506c                wordlist_spell2352_1
 .data.wordlist_spell2352_2
                0x000000002000518c      0x108 tms5200x.o
                0x000000002000518c                wordlist_spell2352_2
 .data.wordlist_spell2_1
                0x0000000020005294      0x14c tms5200x.o
                0x0000000020005294                wordlist_spell2_1
 .data.wordlist_spell2_2
                0x00000000200053e0      0x150 tms5200x.o
                0x00000000200053e0                wordlist_spell2_2
 .data.wordlist_spellvocaid
                0x0000000020005530      0x1f0 tms5200x.o
                0x0000000020005530                wordlist_spellvocaid
 .data.wordlist_testroms_1
                0x0000000020005720      0x188 tms5200x.o
                0x0000000020005720                wordlist_testroms_1
 .data.wordlist_testroms_2
                0x00000000200058a8      0x18c tms5200x.o
                0x00000000200058a8                wordlist_testroms_2
 .data.wordlist_ti99_one_1
                0x0000000020005a34      0x168 tms5200x.o
                0x0000000020005a34                wordlist_ti99_one_1
 .data.wordlist_ti99_one_2
                0x0000000020005b9c      0x168 tms5200x.o
                0x0000000020005b9c                wordlist_ti99_one_2
 .data.wordlist_ti99_two_1
                0x0000000020005d04      0x168 tms5200x.o
                0x0000000020005d04                wordlist_ti99_two_1
 .data.wordlist_ti99_two_2
                0x0000000020005e6c      0x168 tms5200x.o
                0x0000000020005e6c                wordlist_ti99_two_2
 .data.parammode.10237
                0x0000000020005fd4        0x1 samplerate.o
 *fill*         0x0000000020005fd5        0x3 
 .data.vocablist_gorf
                0x0000000020005fd8      0x1cc newvotrax.o
                0x0000000020005fd8                vocablist_gorf
 .data.vocablist_wow
                0x00000000200061a4      0x13c newvotrax.o
                0x00000000200061a4                vocablist_wow
 .data.Nothing  0x00000000200062e0        0x2 ./english2phoneme/newenglish.o
 *fill*         0x00000000200062e2        0x2 
 .data.Rules    0x00000000200062e4       0x6c ./english2phoneme/newenglish.o
                0x00000000200062e4                Rules
 .data.le.8569  0x0000000020006350        0x4 rsynth_2005/holmes.o
 .data.nextelement
                0x0000000020006354        0x1 rsynth_2005/holmes.o
 *fill*         0x0000000020006355        0x3 
 .data.rsynth_vocab
                0x0000000020006358      0x200 rsynth_2005/holmes.o
                0x0000000020006358                rsynth_vocab
 .data.Ep_namez
                0x0000000020006558       0x48 rsynth_2005/elements.o
                0x0000000020006558                Ep_namez
 .data.elm_single
                0x00000000200065a0        0x6 ./rsynth-2.0-port/holmes.o
 *fill*         0x00000000200065a6        0x2 
 .data.i        0x00000000200065a8        0x4 ./rsynth-2.0-port/holmes.o
 .data.nextelement
                0x00000000200065ac        0x1 ./rsynth-2.0-port/holmes.o
 .data.r1c      0x00000000200065ad       0x18 ./rsynth-2.0-port/nsynth.o
 .data.r1p      0x00000000200065c5       0x18 ./rsynth-2.0-port/nsynth.o
 .data.r2c      0x00000000200065dd       0x18 ./rsynth-2.0-port/nsynth.o
 .data.r2p      0x00000000200065f5       0x18 ./rsynth-2.0-port/nsynth.o
 .data.r3c      0x000000002000660d       0x18 ./rsynth-2.0-port/nsynth.o
 .data.r3p      0x0000000020006625       0x18 ./rsynth-2.0-port/nsynth.o
 .data.r4c      0x000000002000663d       0x18 ./rsynth-2.0-port/nsynth.o
 .data.r4p      0x0000000020006655       0x18 ./rsynth-2.0-port/nsynth.o
 .data.r5c      0x000000002000666d       0x18 ./rsynth-2.0-port/nsynth.o
 .data.r5p      0x0000000020006685       0x18 ./rsynth-2.0-port/nsynth.o
 .data.r6c      0x000000002000669d       0x18 ./rsynth-2.0-port/nsynth.o
 .data.r6p      0x00000000200066b5       0x18 ./rsynth-2.0-port/nsynth.o
 .data.r7c      0x00000000200066cd       0x18 ./rsynth-2.0-port/nsynth.o
 .data.r8c      0x00000000200066e5       0x18 ./rsynth-2.0-port/nsynth.o
 .data.rgl      0x00000000200066fd       0x18 ./rsynth-2.0-port/nsynth.o
 .data.rlp      0x0000000020006715       0x18 ./rsynth-2.0-port/nsynth.o
 .data.rnpc     0x000000002000672d       0x18 ./rsynth-2.0-port/nsynth.o
 .data.rnpp     0x0000000020006745       0x18 ./rsynth-2.0-port/nsynth.o
 .data.rnz      0x000000002000675d       0x18 ./rsynth-2.0-port/nsynth.o
 .data.rout     0x0000000020006775       0x18 ./rsynth-2.0-port/nsynth.o
 *fill*         0x000000002000678d        0x3 
 .data.seed.11373
                0x0000000020006790        0x4 ./rsynth-2.0-port/nsynth.o
 .data.def_pars
                0x0000000020006794       0xa0 ./rsynth-2.0-port/def_pars.o
                0x0000000020006794                def_pars
 .data.samp_rate
                0x0000000020006834        0x4 ./rsynth-2.0-port/def_pars.o
                0x0000000020006834                samp_rate
                0x0000000020006838                . = ALIGN (0x4)
                0x0000000020006838                _edata = .

.tm_clone_table
                0x0000000020006838        0x0 load address 0x00000000080f5678
 .tm_clone_table
                0x0000000020006838        0x0 /usr/lib/gcc/arm-none-eabi/8.3.1/thumb/v7e-m+fp/hard/crtbegin.o
 .tm_clone_table
                0x0000000020006838        0x0 /usr/lib/gcc/arm-none-eabi/8.3.1/thumb/v7e-m+fp/hard/crtend.o

.igot.plt       0x0000000020006838        0x0 load address 0x00000000080f5678
 .igot.plt      0x0000000020006838        0x0 /usr/lib/gcc/arm-none-eabi/8.3.1/thumb/v7e-m+fp/hard/crtbegin.o
                0x0000000020006838                . = ALIGN (0x4)

.bss            0x0000000020006838     0x3768 load address 0x00000000080f5678
                0x0000000020006838                _sbss = .
                0x0000000020006838                __bss_start__ = _sbss
 *(.bss)
 .bss           0x0000000020006838       0x1c /usr/lib/gcc/arm-none-eabi/8.3.1/thumb/v7e-m+fp/hard/crtbegin.o
 *(.bss*)
 .bss.adc_buffer
                0x0000000020006854        0xa main.o
                0x0000000020006854                adc_buffer
 *fill*         0x000000002000685e        0x2 
 .bss.exy       0x0000000020006860      0x3c0 main.o
                0x0000000020006860                exy
 .bss.rx_buffer
                0x0000000020006c20      0x100 main.o
                0x0000000020006c20                rx_buffer
 .bss.tx_buffer
                0x0000000020006d20      0x100 main.o
                0x0000000020006d20                tx_buffer
 .bss.DMA_InitStructure
                0x0000000020006e20       0x3c i2s.o
                0x0000000020006e20                DMA_InitStructure
 .bss.DMA_InitStructure2
                0x0000000020006e5c       0x3c i2s.o
                0x0000000020006e5c                DMA_InitStructure2
 .bss.rxbuf     0x0000000020006e98        0x4 i2s.o
                0x0000000020006e98                rxbuf
 .bss.szbuf     0x0000000020006e9c        0x4 i2s.o
                0x0000000020006e9c                szbuf
 .bss.txbuf     0x0000000020006ea0        0x4 i2s.o
                0x0000000020006ea0                txbuf
 .bss.TTSinarray
                0x0000000020006ea4       0x11 audio.o
                0x0000000020006ea4                TTSinarray
 .bss._intmode.10678
                0x0000000020006eb5        0x1 audio.o
 *fill*         0x0000000020006eb6        0x2 
 .bss._mode     0x0000000020006eb8        0x4 audio.o
                0x0000000020006eb8                _mode
 .bss._selx     0x0000000020006ebc        0x4 audio.o
                0x0000000020006ebc                _selx
 .bss._sely     0x0000000020006ec0        0x4 audio.o
                0x0000000020006ec0                _sely
 .bss._selz     0x0000000020006ec4        0x4 audio.o
                0x0000000020006ec4                _selz
 .bss._speed    0x0000000020006ec8        0x4 audio.o
                0x0000000020006ec8                _speed
 .bss.cc        0x0000000020006ecc        0x2 audio.o
 .bss.comp_counter
                0x0000000020006ece        0x2 audio.o
 .bss.delay_buffer
                0x0000000020006ed0        0x4 audio.o
 .bss.firsttime.10687
                0x0000000020006ed4        0x1 audio.o
 .bss.freezer   0x0000000020006ed5        0x1 audio.o
 .bss.freezery  0x0000000020006ed6        0x1 audio.o
 *fill*         0x0000000020006ed7        0x1 
 .bss.int_time.10656
                0x0000000020006ed8        0x4 audio.o
 .bss.left_buffer
                0x0000000020006edc       0x40 audio.o
                0x0000000020006edc                left_buffer
 .bss.mono_buffer
                0x0000000020006f1c       0x40 audio.o
                0x0000000020006f1c                mono_buffer
 .bss.retrigger.10686
                0x0000000020006f5c        0x1 audio.o
 *fill*         0x0000000020006f5d        0x3 
 .bss.time_now.10654
                0x0000000020006f60        0x4 audio.o
 .bss.TTSindex  0x0000000020006f64        0x1 sp0256.o
 .bss.TTSlength
                0x0000000020006f65        0x1 sp0256.o
 .bss.TTSoutarray
                0x0000000020006f66      0x100 sp0256.o
 *fill*         0x0000000020007066        0x2 
 .bss.m_ald     0x0000000020007068        0x4 sp0256.o
 .bss.m_fifo_bitp
                0x000000002000706c        0x4 sp0256.o
 .bss.m_fifo_head
                0x0000000020007070        0x4 sp0256.o
 .bss.m_fifo_sel
                0x0000000020007074        0x1 sp0256.o
 *fill*         0x0000000020007075        0x3 
 .bss.m_fifo_tail
                0x0000000020007078        0x4 sp0256.o
 .bss.m_filt    0x000000002000707c       0x54 sp0256.o
 .bss.m_halted  0x00000000200070d0        0x1 sp0256.o
 *fill*         0x00000000200070d1        0x1 
 .bss.m_lrq     0x00000000200070d2        0x2 sp0256.o
 .bss.m_mode    0x00000000200070d4        0x4 sp0256.o
 .bss.m_page    0x00000000200070d8        0x4 sp0256.o
 .bss.m_pc      0x00000000200070dc        0x4 sp0256.o
 .bss.m_romm    0x00000000200070e0        0x4 sp0256.o
 .bss.m_silent  0x00000000200070e4        0x1 sp0256.o
                0x00000000200070e4                m_silent
 *fill*         0x00000000200070e5        0x3 
 .bss.m_stack   0x00000000200070e8        0x4 sp0256.o
 .bss.modus     0x00000000200070ec        0x1 sp0256.o
 *fill*         0x00000000200070ed        0x1 
 .bss.output.11630
                0x00000000200070ee        0x2 sp0256.o
 .bss.output.11641
                0x00000000200070f0        0x2 sp0256.o
 .bss.output.11645
                0x00000000200070f2        0x2 sp0256.o
 .bss.output.11649
                0x00000000200070f4        0x2 sp0256.o
 .bss.output.11653
                0x00000000200070f6        0x2 sp0256.o
 .bss.output.11657
                0x00000000200070f8        0x2 sp0256.o
 .bss.vocabindex.11682
                0x00000000200070fa        0x1 sp0256.o
 .bss.vocabindex.11688
                0x00000000200070fb        0x1 sp0256.o
 .bss.whichone.11683
                0x00000000200070fc        0x1 sp0256.o
 .bss.whichone.11689
                0x00000000200070fd        0x1 sp0256.o
 .bss.frame     0x00000000200070fe       0x50 simpleklatt.o
 .bss.globale   0x000000002000714e      0x1e3 simpleklatt.o
 *fill*         0x0000000020007331        0x3 
 .bss.globals   0x0000000020007334        0x4 simpleklatt.o
 .bss.samplenumber
                0x0000000020007338        0x2 simpleklatt.o
 *fill*         0x000000002000733a        0x2 
 .bss.glotlast.11181
                0x000000002000733c        0x4 parwave.o
 .bss.nlast.11243
                0x0000000020007340        0x4 parwave.o
 .bss.vlast.11182
                0x0000000020007344        0x4 parwave.o
 .bss.vwave.11211
                0x0000000020007348        0x4 parwave.o
 .bss.vwave.11216
                0x000000002000734c        0x4 parwave.o
 .bss.A         0x0000000020007350        0x1 sam.o
                0x0000000020007350                A
 .bss.X         0x0000000020007351        0x1 sam.o
                0x0000000020007351                X
 .bss.Y         0x0000000020007352        0x1 sam.o
                0x0000000020007352                Y
 *fill*         0x0000000020007353        0x1 
 .bss.bufferpos
                0x0000000020007354        0x4 sam.o
                0x0000000020007354                bufferpos
 .bss.howmany.11311
                0x0000000020007358        0x1 sam.o
 .bss.howmany.11318
                0x0000000020007359        0x1 sam.o
 .bss.howmany.11325
                0x000000002000735a        0x1 sam.o
 .bss.howmany.11332
                0x000000002000735b        0x1 sam.o
 .bss.howmany.11339
                0x000000002000735c        0x1 sam.o
 .bss.howmany.11346
                0x000000002000735d        0x1 sam.o
 .bss.howmany.11353
                0x000000002000735e        0x1 sam.o
 .bss.howmany.11360
                0x000000002000735f        0x1 sam.o
 .bss.howmany.11367
                0x0000000020007360        0x1 sam.o
 .bss.howmany.11374
                0x0000000020007361        0x1 sam.o
 .bss.input     0x0000000020007362      0x200 sam.o
 .bss.lastsample.11261
                0x0000000020007562        0x2 sam.o
 .bss.lastsample.11269
                0x0000000020007564        0x2 sam.o
 .bss.lastsample.11277
                0x0000000020007566        0x2 sam.o
 .bss.lastsample.11285
                0x0000000020007568        0x2 sam.o
 .bss.lastsample.11294
                0x000000002000756a        0x2 sam.o
 .bss.lastsample.11303
                0x000000002000756c        0x2 sam.o
 .bss.lastsample.11382
                0x000000002000756e        0x2 sam.o
 .bss.lastsample.11390
                0x0000000020007570        0x2 sam.o
 .bss.lastsample.11398
                0x0000000020007572        0x2 sam.o
 .bss.lastsample.11406
                0x0000000020007574        0x2 sam.o
 .bss.mem39     0x0000000020007576        0x1 sam.o
                0x0000000020007576                mem39
 .bss.mem44     0x0000000020007577        0x1 sam.o
                0x0000000020007577                mem44
 .bss.mem47     0x0000000020007578        0x1 sam.o
                0x0000000020007578                mem47
 .bss.mem49     0x0000000020007579        0x1 sam.o
                0x0000000020007579                mem49
 .bss.mem50     0x000000002000757a        0x1 sam.o
                0x000000002000757a                mem50
 .bss.mem51     0x000000002000757b        0x1 sam.o
                0x000000002000757b                mem51
 .bss.mem53     0x000000002000757c        0x1 sam.o
                0x000000002000757c                mem53
 .bss.mem56     0x000000002000757d        0x1 sam.o
                0x000000002000757d                mem56
 .bss.mem59     0x000000002000757e        0x1 sam.o
                0x000000002000757e                mem59
 .bss.mem66     0x000000002000757f        0x1 sam.o
                0x000000002000757f                mem66
 .bss.modus     0x0000000020007580        0x1 sam.o
                0x0000000020007580                modus
 .bss.phonemeIndexOutput
                0x0000000020007581       0x3c sam.o
                0x0000000020007581                phonemeIndexOutput
 .bss.phonemeLength
                0x00000000200075bd      0x100 sam.o
 .bss.phonemeLengthOutput
                0x00000000200076bd       0x3c sam.o
                0x00000000200076bd                phonemeLengthOutput
 .bss.phonemeindex
                0x00000000200076f9      0x100 sam.o
 .bss.resetted  0x00000000200077f9        0x1 sam.o
                0x00000000200077f9                resetted
 .bss.samplel.11312
                0x00000000200077fa        0x2 sam.o
 .bss.samplel.11319
                0x00000000200077fc        0x2 sam.o
 .bss.samplel.11326
                0x00000000200077fe        0x2 sam.o
 .bss.samplel.11333
                0x0000000020007800        0x2 sam.o
 .bss.samplel.11340
                0x0000000020007802        0x2 sam.o
 .bss.samplel.11347
                0x0000000020007804        0x2 sam.o
 .bss.samplel.11354
                0x0000000020007806        0x2 sam.o
 .bss.samplel.11361
                0x0000000020007808        0x2 sam.o
 .bss.samplel.11368
                0x000000002000780a        0x2 sam.o
 .bss.samplel.11375
                0x000000002000780c        0x2 sam.o
 .bss.singmode  0x000000002000780e        0x1 sam.o
                0x000000002000780e                singmode
 .bss.stress    0x000000002000780f      0x100 sam.o
 .bss.stressOutput
                0x000000002000790f       0x3c sam.o
                0x000000002000790f                stressOutput
 .bss.tmpinput  0x000000002000794b      0x101 sam.o
 .bss.amplitude1
                0x0000000020007a4c      0x100 render.o
                0x0000000020007a4c                amplitude1
 .bss.amplitude2
                0x0000000020007b4c      0x100 render.o
                0x0000000020007b4c                amplitude2
 .bss.amplitude3
                0x0000000020007c4c      0x100 render.o
                0x0000000020007c4c                amplitude3
 .bss.frequency1
                0x0000000020007d4c      0x100 render.o
                0x0000000020007d4c                frequency1
 .bss.frequency2
                0x0000000020007e4c      0x100 render.o
                0x0000000020007e4c                frequency2
 .bss.frequency3
                0x0000000020007f4c      0x100 render.o
                0x0000000020007f4c                frequency3
 .bss.mem38     0x000000002000804c        0x1 render.o
                0x000000002000804c                mem38
 .bss.mem40     0x000000002000804d        0x1 render.o
                0x000000002000804d                mem40
 .bss.mem48     0x000000002000804e        0x1 render.o
                0x000000002000804e                mem48
 .bss.mem48stored
                0x000000002000804f        0x1 render.o
                0x000000002000804f                mem48stored
 .bss.phase1.11096
                0x0000000020008050        0x1 render.o
 .bss.phase1.11128
                0x0000000020008051        0x1 render.o
 .bss.phase2    0x0000000020008052        0x1 render.o
                0x0000000020008052                phase2
 .bss.phase3    0x0000000020008053        0x1 render.o
                0x0000000020008053                phase3
 .bss.pitches   0x0000000020008054      0x100 render.o
                0x0000000020008054                pitches
 .bss.sampledConsonantFlag
                0x0000000020008154      0x100 render.o
                0x0000000020008154                sampledConsonantFlag
 .bss.secondstate.11130
                0x0000000020008254        0x1 render.o
 *fill*         0x0000000020008255        0x3 
 .bss.speedcounter
                0x0000000020008258        0x4 render.o
                0x0000000020008258                speedcounter
 .bss.state.11127
                0x000000002000825c        0x1 render.o
 .bss.TTSindex  0x000000002000825d        0x1 tms5200x.o
 .bss.TTSlength
                0x000000002000825e        0x1 tms5200x.o
 .bss.TTSoutarray
                0x000000002000825f      0x100 tms5200x.o
 .bss.byte_rev  0x000000002000835f      0x100 tms5200x.o
                0x000000002000835f                byte_rev
 .bss.counter.16821
                0x000000002000845f        0x1 tms5200x.o
 .bss.m_IP      0x0000000020008460        0x1 tms5200x.o
                0x0000000020008460                m_IP
 .bss.m_OLDE    0x0000000020008461        0x1 tms5200x.o
                0x0000000020008461                m_OLDE
 .bss.m_OLDP    0x0000000020008462        0x1 tms5200x.o
                0x0000000020008462                m_OLDP
 .bss.m_PC      0x0000000020008463        0x1 tms5200x.o
                0x0000000020008463                m_PC
 .bss.m_RNG     0x0000000020008464        0x2 tms5200x.o
                0x0000000020008464                m_RNG
 .bss.m_c_variant_rate
                0x0000000020008466        0x1 tms5200x.o
                0x0000000020008466                m_c_variant_rate
 *fill*         0x0000000020008467        0x1 
 .bss.m_coeff   0x0000000020008468        0x4 tms5200x.o
                0x0000000020008468                m_coeff
 .bss.m_current_energy
                0x000000002000846c        0x4 tms5200x.o
                0x000000002000846c                m_current_energy
 .bss.m_current_k
                0x0000000020008470       0x28 tms5200x.o
                0x0000000020008470                m_current_k
 .bss.m_current_pitch
                0x0000000020008498        0x4 tms5200x.o
                0x0000000020008498                m_current_pitch
 .bss.m_excitation_data
                0x000000002000849c        0x2 tms5200x.o
                0x000000002000849c                m_excitation_data
 .bss.m_inhibit
                0x000000002000849e        0x1 tms5200x.o
                0x000000002000849e                m_inhibit
 .bss.m_new_frame_energy_idx
                0x000000002000849f        0x1 tms5200x.o
                0x000000002000849f                m_new_frame_energy_idx
 .bss.m_new_frame_k_idx
                0x00000000200084a0        0xa tms5200x.o
                0x00000000200084a0                m_new_frame_k_idx
 .bss.m_new_frame_pitch_idx
                0x00000000200084aa        0x1 tms5200x.o
                0x00000000200084aa                m_new_frame_pitch_idx
 .bss.m_old_frame_energy_idx
                0x00000000200084ab        0x1 tms5200x.o
                0x00000000200084ab                m_old_frame_energy_idx
 .bss.m_old_frame_k_idx
                0x00000000200084ac        0xa tms5200x.o
                0x00000000200084ac                m_old_frame_k_idx
 .bss.m_old_frame_pitch_idx
                0x00000000200084b6        0x1 tms5200x.o
                0x00000000200084b6                m_old_frame_pitch_idx
 *fill*         0x00000000200084b7        0x1 
 .bss.m_pitch_count
                0x00000000200084b8        0x2 tms5200x.o
                0x00000000200084b8                m_pitch_count
 .bss.m_previous_energy
                0x00000000200084ba        0x2 tms5200x.o
                0x00000000200084ba                m_previous_energy
 .bss.m_speak_external
                0x00000000200084bc        0x1 tms5200x.o
                0x00000000200084bc                m_speak_external
 .bss.m_subcycle
                0x00000000200084bd        0x1 tms5200x.o
                0x00000000200084bd                m_subcycle
 .bss.m_talk_status
                0x00000000200084be        0x1 tms5200x.o
                0x00000000200084be                m_talk_status
 *fill*         0x00000000200084bf        0x1 
 .bss.m_target_energy
                0x00000000200084c0        0x2 tms5200x.o
                0x00000000200084c0                m_target_energy
 .bss.m_target_k
                0x00000000200084c2       0x14 tms5200x.o
                0x00000000200084c2                m_target_k
 .bss.m_target_pitch
                0x00000000200084d6        0x2 tms5200x.o
                0x00000000200084d6                m_target_pitch
 .bss.m_u       0x00000000200084d8       0x2c tms5200x.o
                0x00000000200084d8                m_u
 .bss.m_variant
                0x0000000020008504        0x4 tms5200x.o
                0x0000000020008504                m_variant
 .bss.m_x       0x0000000020008508       0x28 tms5200x.o
                0x0000000020008508                m_x
 .bss.modus     0x0000000020008530        0x1 tms5200x.o
 *fill*         0x0000000020008531        0x3 
 .bss.ptrAddr   0x0000000020008534        0x4 tms5200x.o
 .bss.ptrBit    0x0000000020008538        0x1 tms5200x.o
 *fill*         0x0000000020008539        0x1 
 .bss.m_apos    0x000000002000853a        0x2 digitalker.o
 .bss.m_bpos    0x000000002000853c        0x2 digitalker.o
 .bss.m_cur_bits
                0x000000002000853e        0x1 digitalker.o
 .bss.m_cur_repeat
                0x000000002000853f        0x1 digitalker.o
 .bss.m_cur_segment
                0x0000000020008540        0x1 digitalker.o
 *fill*         0x0000000020008541        0x1 
 .bss.m_dac     0x0000000020008542      0x100 digitalker.o
 .bss.m_dac_index
                0x0000000020008642        0x1 digitalker.o
 .bss.m_mode    0x0000000020008643        0x1 digitalker.o
 .bss.m_pitch   0x0000000020008644        0x2 digitalker.o
 .bss.m_prev_pitch
                0x0000000020008646        0x1 digitalker.o
 .bss.m_repeats
                0x0000000020008647        0x1 digitalker.o
 .bss.m_rom     0x0000000020008648        0x4 digitalker.o
 .bss.m_segments
                0x000000002000864c        0x1 digitalker.o
 .bss.m_stop_after
                0x000000002000864d        0x1 digitalker.o
 *fill*         0x000000002000864e        0x2 
 .bss.m_zero_count
                0x0000000020008650        0x4 digitalker.o
 .bss.modus     0x0000000020008654        0x1 digitalker.o
 *fill*         0x0000000020008655        0x3 
 .bss.pp.11251  0x0000000020008658        0x4 digitalker.o
 .bss.pp.11261  0x000000002000865c        0x4 digitalker.o
 .bss.pp.11271  0x0000000020008660        0x4 digitalker.o
 .bss.framer    0x0000000020008664       0xbc nvp.o
 .bss.indexy    0x0000000020008720       0x9c nvp.o
 .bss.oldframer
                0x00000000200087bc       0xbc nvp.o
 .bss.ourvocab  0x0000000020008878        0x4 nvp.o
 .bss.r1        0x000000002000887c       0x1e nvp.o
 .bss.r2        0x000000002000889a       0x1e nvp.o
 .bss.r3        0x00000000200088b8       0x1e nvp.o
 .bss.r4        0x00000000200088d6       0x1e nvp.o
 .bss.r5        0x00000000200088f4       0x1e nvp.o
 .bss.r6        0x0000000020008912       0x1e nvp.o
 .bss.rN0       0x0000000020008930       0x1e nvp.o
 .bss.rNP       0x000000002000894e       0x1e nvp.o
 .bss.rr1       0x000000002000896c       0x1e nvp.o
 .bss.rr2       0x000000002000898a       0x1e nvp.o
 .bss.rr3       0x00000000200089a8       0x1e nvp.o
 .bss.rr4       0x00000000200089c6       0x1e nvp.o
 .bss.rr5       0x00000000200089e4       0x1e nvp.o
 .bss.rr6       0x0000000020008a02       0x1e nvp.o
 .bss.this_frame_length
                0x0000000020008a20        0x2 nvp.o
 .bss.this_interpol
                0x0000000020008a22        0x2 nvp.o
 .bss.delay_buffer
                0x0000000020008a24        0x4 samplerate.o
 .bss.int_time.10218
                0x0000000020008a28        0x4 samplerate.o
 .bss.int_time.10242
                0x0000000020008a2c        0x4 samplerate.o
 .bss.int_time.10268
                0x0000000020008a30        0x4 samplerate.o
 .bss.time_now.10216
                0x0000000020008a34        0x4 samplerate.o
 .bss.time_now.10240
                0x0000000020008a38        0x4 samplerate.o
 .bss.time_now.10265
                0x0000000020008a3c        0x4 samplerate.o
 .bss.TTSindex  0x0000000020008a40        0x1 newvotrax.o
 .bss.TTSlength
                0x0000000020008a41        0x1 newvotrax.o
 .bss.TTSoutarray
                0x0000000020008a42      0x100 newvotrax.o
 *fill*         0x0000000020008b42        0x2 
 .bss.lenny     0x0000000020008b44        0x4 newvotrax.o
 .bss.m_ar_state
                0x0000000020008b48        0x1 newvotrax.o
                0x0000000020008b48                m_ar_state
 *fill*         0x0000000020008b49        0x3 
 .bss.m_cclock  0x0000000020008b4c        0x4 newvotrax.o
                0x0000000020008b4c                m_cclock
 .bss.m_closure
                0x0000000020008b50        0x1 newvotrax.o
                0x0000000020008b50                m_closure
 .bss.m_cur_closure
                0x0000000020008b51        0x1 newvotrax.o
                0x0000000020008b51                m_cur_closure
 .bss.m_cur_f1  0x0000000020008b52        0x1 newvotrax.o
                0x0000000020008b52                m_cur_f1
 .bss.m_cur_f1_orig
                0x0000000020008b53        0x1 newvotrax.o
                0x0000000020008b53                m_cur_f1_orig
 .bss.m_cur_f2  0x0000000020008b54        0x1 newvotrax.o
                0x0000000020008b54                m_cur_f2
 .bss.m_cur_f2_orig
                0x0000000020008b55        0x1 newvotrax.o
                0x0000000020008b55                m_cur_f2_orig
 .bss.m_cur_f2q
                0x0000000020008b56        0x1 newvotrax.o
                0x0000000020008b56                m_cur_f2q
 .bss.m_cur_f2q_orig
                0x0000000020008b57        0x1 newvotrax.o
                0x0000000020008b57                m_cur_f2q_orig
 .bss.m_cur_f3  0x0000000020008b58        0x1 newvotrax.o
                0x0000000020008b58                m_cur_f3
 .bss.m_cur_f3_orig
                0x0000000020008b59        0x1 newvotrax.o
                0x0000000020008b59                m_cur_f3_orig
 .bss.m_cur_fa  0x0000000020008b5a        0x1 newvotrax.o
                0x0000000020008b5a                m_cur_fa
 .bss.m_cur_fa_orig
                0x0000000020008b5b        0x1 newvotrax.o
                0x0000000020008b5b                m_cur_fa_orig
 .bss.m_cur_fc  0x0000000020008b5c        0x1 newvotrax.o
                0x0000000020008b5c                m_cur_fc
 .bss.m_cur_fc_orig
                0x0000000020008b5d        0x1 newvotrax.o
                0x0000000020008b5d                m_cur_fc_orig
 .bss.m_cur_noise
                0x0000000020008b5e        0x1 newvotrax.o
                0x0000000020008b5e                m_cur_noise
 .bss.m_cur_va  0x0000000020008b5f        0x1 newvotrax.o
                0x0000000020008b5f                m_cur_va
 .bss.m_cur_va_orig
                0x0000000020008b60        0x1 newvotrax.o
                0x0000000020008b60                m_cur_va_orig
 *fill*         0x0000000020008b61        0x3 
 .bss.m_f1_a    0x0000000020008b64       0x10 newvotrax.o
                0x0000000020008b64                m_f1_a
 .bss.m_f1_b    0x0000000020008b74       0x10 newvotrax.o
                0x0000000020008b74                m_f1_b
 .bss.m_f2n_a   0x0000000020008b84        0x8 newvotrax.o
                0x0000000020008b84                m_f2n_a
 .bss.m_f2n_b   0x0000000020008b8c        0x8 newvotrax.o
                0x0000000020008b8c                m_f2n_b
 .bss.m_f2v_a   0x0000000020008b94       0x10 newvotrax.o
                0x0000000020008b94                m_f2v_a
 .bss.m_f2v_b   0x0000000020008ba4       0x10 newvotrax.o
                0x0000000020008ba4                m_f2v_b
 .bss.m_f3_a    0x0000000020008bb4       0x10 newvotrax.o
                0x0000000020008bb4                m_f3_a
 .bss.m_f3_b    0x0000000020008bc4       0x10 newvotrax.o
                0x0000000020008bc4                m_f3_b
 .bss.m_f4_a    0x0000000020008bd4       0x10 newvotrax.o
                0x0000000020008bd4                m_f4_a
 .bss.m_f4_b    0x0000000020008be4       0x10 newvotrax.o
                0x0000000020008be4                m_f4_b
 .bss.m_filt_f1
                0x0000000020008bf4        0x1 newvotrax.o
                0x0000000020008bf4                m_filt_f1
 .bss.m_filt_f2
                0x0000000020008bf5        0x1 newvotrax.o
                0x0000000020008bf5                m_filt_f2
 .bss.m_filt_f2q
                0x0000000020008bf6        0x1 newvotrax.o
                0x0000000020008bf6                m_filt_f2q
 .bss.m_filt_f3
                0x0000000020008bf7        0x1 newvotrax.o
                0x0000000020008bf7                m_filt_f3
 .bss.m_filt_fa
                0x0000000020008bf8        0x1 newvotrax.o
                0x0000000020008bf8                m_filt_fa
 .bss.m_filt_fc
                0x0000000020008bf9        0x1 newvotrax.o
                0x0000000020008bf9                m_filt_fc
 .bss.m_filt_va
                0x0000000020008bfa        0x1 newvotrax.o
                0x0000000020008bfa                m_filt_va
 *fill*         0x0000000020008bfb        0x1 
 .bss.m_fn_a    0x0000000020008bfc        0xc newvotrax.o
                0x0000000020008bfc                m_fn_a
 .bss.m_fn_b    0x0000000020008c08        0xc newvotrax.o
                0x0000000020008c08                m_fn_b
 .bss.m_fx_a    0x0000000020008c14        0x4 newvotrax.o
                0x0000000020008c14                m_fx_a
 .bss.m_fx_b    0x0000000020008c18        0x8 newvotrax.o
                0x0000000020008c18                m_fx_b
 .bss.m_inflection
                0x0000000020008c20        0x1 newvotrax.o
                0x0000000020008c20                m_inflection
 *fill*         0x0000000020008c21        0x3 
 .bss.m_mainclock
                0x0000000020008c24        0x4 newvotrax.o
                0x0000000020008c24                m_mainclock
 .bss.m_noise   0x0000000020008c28        0x2 newvotrax.o
                0x0000000020008c28                m_noise
 *fill*         0x0000000020008c2a        0x2 
 .bss.m_noise_1
                0x0000000020008c2c        0xc newvotrax.o
                0x0000000020008c2c                m_noise_1
 .bss.m_noise_2
                0x0000000020008c38        0xc newvotrax.o
                0x0000000020008c38                m_noise_2
 .bss.m_noise_3
                0x0000000020008c44        0x8 newvotrax.o
                0x0000000020008c44                m_noise_3
 .bss.m_noise_4
                0x0000000020008c4c        0x8 newvotrax.o
                0x0000000020008c4c                m_noise_4
 .bss.m_phone   0x0000000020008c54        0x1 newvotrax.o
                0x0000000020008c54                m_phone
 *fill*         0x0000000020008c55        0x1 
 .bss.m_phonetick
                0x0000000020008c56        0x2 newvotrax.o
                0x0000000020008c56                m_phonetick
 .bss.m_pitch   0x0000000020008c58        0x1 newvotrax.o
                0x0000000020008c58                m_pitch
 .bss.m_rom_cld
                0x0000000020008c59        0x1 newvotrax.o
                0x0000000020008c59                m_rom_cld
 .bss.m_rom_closure
                0x0000000020008c5a        0x1 newvotrax.o
                0x0000000020008c5a                m_rom_closure
 .bss.m_rom_duration
                0x0000000020008c5b        0x1 newvotrax.o
                0x0000000020008c5b                m_rom_duration
 .bss.m_rom_f1  0x0000000020008c5c        0x1 newvotrax.o
                0x0000000020008c5c                m_rom_f1
 .bss.m_rom_f2  0x0000000020008c5d        0x1 newvotrax.o
                0x0000000020008c5d                m_rom_f2
 .bss.m_rom_f2q
                0x0000000020008c5e        0x1 newvotrax.o
                0x0000000020008c5e                m_rom_f2q
 .bss.m_rom_f3  0x0000000020008c5f        0x1 newvotrax.o
                0x0000000020008c5f                m_rom_f3
 .bss.m_rom_fa  0x0000000020008c60        0x1 newvotrax.o
                0x0000000020008c60                m_rom_fa
 .bss.m_rom_fc  0x0000000020008c61        0x1 newvotrax.o
                0x0000000020008c61                m_rom_fc
 .bss.m_rom_pause
                0x0000000020008c62        0x1 newvotrax.o
                0x0000000020008c62                m_rom_pause
 .bss.m_rom_va  0x0000000020008c63        0x1 newvotrax.o
                0x0000000020008c63                m_rom_va
 .bss.m_rom_vd  0x0000000020008c64        0x1 newvotrax.o
                0x0000000020008c64                m_rom_vd
 *fill*         0x0000000020008c65        0x3 
 .bss.m_sample_count
                0x0000000020008c68        0x4 newvotrax.o
                0x0000000020008c68                m_sample_count
 .bss.m_sclock  0x0000000020008c6c        0x4 newvotrax.o
                0x0000000020008c6c                m_sclock
 .bss.m_ticks   0x0000000020008c70        0x1 newvotrax.o
                0x0000000020008c70                m_ticks
 .bss.m_update_counter
                0x0000000020008c71        0x1 newvotrax.o
                0x0000000020008c71                m_update_counter
 *fill*         0x0000000020008c72        0x2 
 .bss.m_vn_1    0x0000000020008c74       0x10 newvotrax.o
                0x0000000020008c74                m_vn_1
 .bss.m_vn_2    0x0000000020008c84       0x10 newvotrax.o
                0x0000000020008c84                m_vn_2
 .bss.m_vn_3    0x0000000020008c94       0x10 newvotrax.o
                0x0000000020008c94                m_vn_3
 .bss.m_vn_4    0x0000000020008ca4       0x10 newvotrax.o
                0x0000000020008ca4                m_vn_4
 .bss.m_vn_5    0x0000000020008cb4        0x8 newvotrax.o
                0x0000000020008cb4                m_vn_5
 .bss.m_vn_6    0x0000000020008cbc        0x8 newvotrax.o
                0x0000000020008cbc                m_vn_6
 .bss.m_voice_1
                0x0000000020008cc4       0x10 newvotrax.o
                0x0000000020008cc4                m_voice_1
 .bss.m_voice_2
                0x0000000020008cd4       0x10 newvotrax.o
                0x0000000020008cd4                m_voice_2
 .bss.m_voice_3
                0x0000000020008ce4       0x10 newvotrax.o
                0x0000000020008ce4                m_voice_3
 .bss.modus     0x0000000020008cf4        0x1 newvotrax.o
 .bss.vocabindex.11684
                0x0000000020008cf5        0x1 newvotrax.o
 .bss.vocabindex.11696
                0x0000000020008cf6        0x1 newvotrax.o
 .bss.vocabindex.11705
                0x0000000020008cf7        0x1 newvotrax.o
 .bss.vocabindex.11714
                0x0000000020008cf8        0x1 newvotrax.o
 .bss.whichone.11685
                0x0000000020008cf9        0x1 newvotrax.o
 .bss.whichone.11697
                0x0000000020008cfa        0x1 newvotrax.o
 .bss.whichone.11706
                0x0000000020008cfb        0x1 newvotrax.o
 .bss.whichone.11715
                0x0000000020008cfc        0x1 newvotrax.o
 *fill*         0x0000000020008cfd        0x3 
 .bss.m_ald     0x0000000020008d00        0x4 sp0256bend.o
 .bss.m_fifo_bitp
                0x0000000020008d04        0x4 sp0256bend.o
 .bss.m_fifo_head
                0x0000000020008d08        0x4 sp0256bend.o
 .bss.m_fifo_sel
                0x0000000020008d0c        0x1 sp0256bend.o
 *fill*         0x0000000020008d0d        0x3 
 .bss.m_fifo_tail
                0x0000000020008d10        0x4 sp0256bend.o
 .bss.m_filt    0x0000000020008d14       0x6e sp0256bend.o
 .bss.m_halted  0x0000000020008d82        0x1 sp0256bend.o
 *fill*         0x0000000020008d83        0x1 
 .bss.m_lrq     0x0000000020008d84        0x2 sp0256bend.o
 *fill*         0x0000000020008d86        0x2 
 .bss.m_mode    0x0000000020008d88        0x4 sp0256bend.o
 .bss.m_page    0x0000000020008d8c        0x4 sp0256bend.o
 .bss.m_pc      0x0000000020008d90        0x4 sp0256bend.o
 .bss.m_romm    0x0000000020008d94        0x4 sp0256bend.o
 .bss.m_stack   0x0000000020008d98        0x4 sp0256bend.o
 .bss.output.11300
                0x0000000020008d9c        0x2 sp0256bend.o
 *fill*         0x0000000020008d9e        0x2 
 .bss.Char      0x0000000020008da0        0x4 ./english2phoneme/parse.o
 .bss.Char1     0x0000000020008da4        0x4 ./english2phoneme/parse.o
 .bss.Char2     0x0000000020008da8        0x4 ./english2phoneme/parse.o
 .bss.Char3     0x0000000020008dac        0x4 ./english2phoneme/parse.o
 .bss.input_array
                0x0000000020008db0        0x4 ./english2phoneme/parse.o
 .bss.input_count
                0x0000000020008db4        0x4 ./english2phoneme/parse.o
 .bss.input_length
                0x0000000020008db8        0x4 ./english2phoneme/parse.o
 .bss.output_array
                0x0000000020008dbc      0x100 ./english2phoneme/parse.o
                0x0000000020008dbc                output_array
 .bss.output_count
                0x0000000020008ebc        0x4 ./english2phoneme/parse.o
                0x0000000020008ebc                output_count
 .bss.Anything  0x0000000020008ec0        0x1 ./english2phoneme/newenglish.o
 *fill*         0x0000000020008ec1        0x3 
 .bss.F0Hz.8571
                0x0000000020008ec4        0x4 rsynth_2005/holmes.o
 .bss.F0Hz.8649
                0x0000000020008ec8        0x4 rsynth_2005/holmes.o
 .bss.ampl      0x0000000020008ecc        0x4 rsynth_2005/holmes.o
                0x0000000020008ecc                ampl
 .bss.ce.8572   0x0000000020008ed0        0x4 rsynth_2005/holmes.o
 .bss.ce.8600   0x0000000020008ed4        0x4 rsynth_2005/holmes.o
 .bss.ce.8625   0x0000000020008ed8        0x4 rsynth_2005/holmes.o
 .bss.ce.8650   0x0000000020008edc        0x4 rsynth_2005/holmes.o
 .bss.dur.8566  0x0000000020008ee0        0x1 rsynth_2005/holmes.o
 .bss.dur.8594  0x0000000020008ee1        0x1 rsynth_2005/holmes.o
 .bss.dur.8619  0x0000000020008ee2        0x1 rsynth_2005/holmes.o
 .bss.dur.8644  0x0000000020008ee3        0x1 rsynth_2005/holmes.o
 .bss.element   0x0000000020008ee4        0x4 rsynth_2005/holmes.o
 .bss.elm       0x0000000020008ee8        0x4 rsynth_2005/holmes.o
 .bss.end.8574  0x0000000020008eec       0x90 rsynth_2005/holmes.o
 .bss.end.8602  0x0000000020008f7c       0x90 rsynth_2005/holmes.o
 .bss.end.8627  0x000000002000900c       0x90 rsynth_2005/holmes.o
 .bss.end.8652  0x000000002000909c       0x90 rsynth_2005/holmes.o
 .bss.ep.8568   0x000000002000912c       0x48 rsynth_2005/holmes.o
 .bss.ep.8596   0x0000000020009174       0x48 rsynth_2005/holmes.o
 .bss.ep.8621   0x00000000200091bc       0x48 rsynth_2005/holmes.o
 .bss.ep.8646   0x0000000020009204       0x48 rsynth_2005/holmes.o
 .bss.f0        0x000000002000924c        0x4 rsynth_2005/holmes.o
 .bss.f0e       0x0000000020009250        0x4 rsynth_2005/holmes.o
 .bss.f0s       0x0000000020009254        0x4 rsynth_2005/holmes.o
 .bss.flt       0x0000000020009258       0xd8 rsynth_2005/holmes.o
 .bss.i         0x0000000020009330        0x1 rsynth_2005/holmes.o
 .bss.nelm      0x0000000020009331        0x1 rsynth_2005/holmes.o
 .bss.newframe.8565
                0x0000000020009332        0x1 rsynth_2005/holmes.o
 .bss.newframe.8593
                0x0000000020009333        0x1 rsynth_2005/holmes.o
 .bss.newframe.8618
                0x0000000020009334        0x1 rsynth_2005/holmes.o
 .bss.newframe.8643
                0x0000000020009335        0x1 rsynth_2005/holmes.o
 *fill*         0x0000000020009336        0x2 
 .bss.ntf0      0x0000000020009338        0x4 rsynth_2005/holmes.o
 .bss.samplenumber.8564
                0x000000002000933c        0x2 rsynth_2005/holmes.o
 .bss.samplenumber.8592
                0x000000002000933e        0x2 rsynth_2005/holmes.o
 .bss.samplenumber.8617
                0x0000000020009340        0x2 rsynth_2005/holmes.o
 .bss.samplenumber.8642
                0x0000000020009342        0x2 rsynth_2005/holmes.o
 .bss.start.8573
                0x0000000020009344       0x90 rsynth_2005/holmes.o
 .bss.start.8601
                0x00000000200093d4       0x90 rsynth_2005/holmes.o
 .bss.start.8626
                0x0000000020009464       0x90 rsynth_2005/holmes.o
 .bss.start.8651
                0x00000000200094f4       0x90 rsynth_2005/holmes.o
 .bss.t.8575    0x0000000020009584        0x4 rsynth_2005/holmes.o
 .bss.t.8603    0x0000000020009588        0x4 rsynth_2005/holmes.o
 .bss.t.8628    0x000000002000958c        0x4 rsynth_2005/holmes.o
 .bss.t.8653    0x0000000020009590        0x4 rsynth_2005/holmes.o
 .bss.tf0       0x0000000020009594        0x4 rsynth_2005/holmes.o
 .bss.pars      0x0000000020009598       0x34 rsynth_2005/elements.o
                0x0000000020009598                pars
 .bss.priv      0x00000000200095cc      0x164 rsynth_2005/opsynth.o
                0x00000000200095cc                priv
 .bss.rsynth    0x0000000020009730        0x4 rsynth_2005/opsynth.o
 .bss.rsynthi   0x0000000020009734       0x24 rsynth_2005/opsynth.o
                0x0000000020009734                rsynthi
 .bss.ce.11500  0x0000000020009758        0x4 ./rsynth-2.0-port/holmes.o
 .bss.ce.11528  0x000000002000975c        0x4 ./rsynth-2.0-port/holmes.o
 .bss.ce.11565  0x0000000020009760        0x4 ./rsynth-2.0-port/holmes.o
 .bss.ce.11603  0x0000000020009764        0x4 ./rsynth-2.0-port/holmes.o
 .bss.ce.11630  0x0000000020009768        0x4 ./rsynth-2.0-port/holmes.o
 .bss.dur.11505
                0x000000002000976c        0x1 ./rsynth-2.0-port/holmes.o
 .bss.dur.11533
                0x000000002000976d        0x1 ./rsynth-2.0-port/holmes.o
 .bss.dur.11570
                0x000000002000976e        0x1 ./rsynth-2.0-port/holmes.o
 .bss.dur.11608
                0x000000002000976f        0x1 ./rsynth-2.0-port/holmes.o
 .bss.dur.11635
                0x0000000020009770        0x1 ./rsynth-2.0-port/holmes.o
 *fill*         0x0000000020009771        0x3 
 .bss.elm_plen  0x0000000020009774        0x4 ./rsynth-2.0-port/holmes.o
 .bss.end.11508
                0x0000000020009778       0x98 ./rsynth-2.0-port/holmes.o
 .bss.end.11536
                0x0000000020009810       0x98 ./rsynth-2.0-port/holmes.o
 .bss.end.11573
                0x00000000200098a8       0x98 ./rsynth-2.0-port/holmes.o
 .bss.end.11610
                0x0000000020009940       0x98 ./rsynth-2.0-port/holmes.o
 .bss.end.11637
                0x00000000200099d8       0x98 ./rsynth-2.0-port/holmes.o
 .bss.flt       0x0000000020009a70       0xe4 ./rsynth-2.0-port/holmes.o
 .bss.le        0x0000000020009b54        0x4 ./rsynth-2.0-port/holmes.o
 .bss.ne        0x0000000020009b58        0x4 ./rsynth-2.0-port/holmes.o
 .bss.newframe.11499
                0x0000000020009b5c        0x1 ./rsynth-2.0-port/holmes.o
 .bss.newframe.11527
                0x0000000020009b5d        0x1 ./rsynth-2.0-port/holmes.o
 .bss.newframe.11564
                0x0000000020009b5e        0x1 ./rsynth-2.0-port/holmes.o
 .bss.newframe.11602
                0x0000000020009b5f        0x1 ./rsynth-2.0-port/holmes.o
 .bss.newframe.11629
                0x0000000020009b60        0x1 ./rsynth-2.0-port/holmes.o
 *fill*         0x0000000020009b61        0x3 
 .bss.ntstress  0x0000000020009b64        0x4 ./rsynth-2.0-port/holmes.o
 .bss.pars      0x0000000020009b68       0xa0 ./rsynth-2.0-port/holmes.o
 .bss.samplenumber
                0x0000000020009c08        0x2 ./rsynth-2.0-port/holmes.o
 .bss.startyy.11507
                0x0000000020009c0a       0x98 ./rsynth-2.0-port/holmes.o
 .bss.startyy.11535
                0x0000000020009ca2       0x98 ./rsynth-2.0-port/holmes.o
 .bss.startyy.11572
                0x0000000020009d3a       0x98 ./rsynth-2.0-port/holmes.o
 .bss.startyy.11609
                0x0000000020009dd2       0x98 ./rsynth-2.0-port/holmes.o
 .bss.startyy.11636
                0x0000000020009e6a       0x98 ./rsynth-2.0-port/holmes.o
 .bss.stress_e  0x0000000020009f02        0x8 ./rsynth-2.0-port/holmes.o
 .bss.stress_s  0x0000000020009f0a        0x8 ./rsynth-2.0-port/holmes.o
 .bss.t         0x0000000020009f12        0x1 ./rsynth-2.0-port/holmes.o
 *fill*         0x0000000020009f13        0x1 
 .bss.top       0x0000000020009f14        0x4 ./rsynth-2.0-port/holmes.o
 .bss.tstress   0x0000000020009f18        0x4 ./rsynth-2.0-port/holmes.o
 .bss.vocab_elm
                0x0000000020009f1c        0x4 ./rsynth-2.0-port/holmes.o
 .bss.AVdb      0x0000000020009f20        0x4 ./rsynth-2.0-port/nsynth.o
 .bss.F0hz10    0x0000000020009f24        0x4 ./rsynth-2.0-port/nsynth.o
 .bss.Kskew     0x0000000020009f28        0x4 ./rsynth-2.0-port/nsynth.o
 .bss.T0        0x0000000020009f2c        0x4 ./rsynth-2.0-port/nsynth.o
 .bss.amp_aspir
                0x0000000020009f30        0x4 ./rsynth-2.0-port/nsynth.o
 .bss.amp_breth
                0x0000000020009f34        0x4 ./rsynth-2.0-port/nsynth.o
 .bss.amp_bypas
                0x0000000020009f38        0x4 ./rsynth-2.0-port/nsynth.o
 .bss.amp_frica
                0x0000000020009f3c        0x4 ./rsynth-2.0-port/nsynth.o
 .bss.amp_voice
                0x0000000020009f40        0x4 ./rsynth-2.0-port/nsynth.o
 .bss.decay     0x0000000020009f44        0x4 ./rsynth-2.0-port/nsynth.o
 .bss.glotlast  0x0000000020009f48        0x4 ./rsynth-2.0-port/nsynth.o
 .bss.minus_pi_t
                0x0000000020009f4c        0x4 ./rsynth-2.0-port/nsynth.o
 .bss.natglot_a
                0x0000000020009f50        0x4 ./rsynth-2.0-port/nsynth.o
 .bss.natglot_b
                0x0000000020009f54        0x4 ./rsynth-2.0-port/nsynth.o
 .bss.nlast     0x0000000020009f58        0x4 ./rsynth-2.0-port/nsynth.o
 .bss.nmod      0x0000000020009f5c        0x4 ./rsynth-2.0-port/nsynth.o
 .bss.nopen     0x0000000020009f60        0x4 ./rsynth-2.0-port/nsynth.o
 .bss.nper      0x0000000020009f64        0x4 ./rsynth-2.0-port/nsynth.o
 .bss.onemd     0x0000000020009f68        0x4 ./rsynth-2.0-port/nsynth.o
 .bss.out       0x0000000020009f6c        0x4 ./rsynth-2.0-port/nsynth.o
                0x0000000020009f6c                out
 .bss.skew      0x0000000020009f70        0x4 ./rsynth-2.0-port/nsynth.o
 .bss.time_count
                0x0000000020009f74        0x4 ./rsynth-2.0-port/nsynth.o
                0x0000000020009f74                time_count
 .bss.two_pi_t  0x0000000020009f78        0x4 ./rsynth-2.0-port/nsynth.o
 .bss.vlast     0x0000000020009f7c        0x4 ./rsynth-2.0-port/nsynth.o
 .bss.vwave     0x0000000020009f80        0x4 ./rsynth-2.0-port/nsynth.o
 .bss.klatt_global
                0x0000000020009f84       0x1c ./rsynth-2.0-port/def_pars.o
                0x0000000020009f84                klatt_global
 *(COMMON)
                0x0000000020009fa0                . = ALIGN (0x4)
                0x0000000020009fa0                _ebss = .
                0x0000000020009fa0                __bss_end__ = _ebss

._user_heap_stack
                0x0000000020009fa0     0x1200 load address 0x00000000080f8de0
                0x0000000020009fa0                . = ALIGN (0x4)
                0x0000000020009fa0                PROVIDE (end = .)
                [!provide]                        PROVIDE (_end = .)
                0x000000002000a1a0                . = (. + _Min_Heap_Size)
 *fill*         0x0000000020009fa0      0x200 
                0x000000002000b1a0                . = (. + _Min_Stack_Size)
 *fill*         0x000000002000a1a0     0x1000 
                0x000000002000b1a0                . = ALIGN (0x4)

.ccm_data       0x0000000010000000    0x10000
                0x0000000010000000                _sccmram = .
                0x0000000010000000                . = ALIGN (0x4)
 *(.ccmdata)
 .ccmdata       0x0000000010000000    0x10000 audio.o
                0x0000000010000000                audio_buffer
                0x0000000010010000                . = ALIGN (0x4)
                0x0000000010010000                _eccmram = .

.ARM.attributes
                0x0000000000000000       0x30
 *(.ARM.attributes)
 .ARM.attributes
                0x0000000000000000       0x1e /usr/lib/gcc/arm-none-eabi/8.3.1/thumb/v7e-m+fp/hard/crti.o
 .ARM.attributes
                0x000000000000001e       0x34 /usr/lib/gcc/arm-none-eabi/8.3.1/thumb/v7e-m+fp/hard/crtbegin.o
 .ARM.attributes
                0x0000000000000052       0x21 startup_stm32f4xx.o
 .ARM.attributes
                0x0000000000000073       0x34 system_stm32f4xx.o
 .ARM.attributes
                0x00000000000000a7       0x34 main.o
 .ARM.attributes
                0x00000000000000db       0x34 codec.o
 .ARM.attributes
                0x000000000000010f       0x34 i2s.o
 .ARM.attributes
                0x0000000000000143       0x34 adc.o
 .ARM.attributes
                0x0000000000000177       0x34 stm32f4xx_gpio.o
 .ARM.attributes
                0x00000000000001ab       0x34 stm32f4xx_i2c.o
 .ARM.attributes
                0x00000000000001df       0x34 stm32f4xx_rcc.o
 .ARM.attributes
                0x0000000000000213       0x34 stm32f4xx_spi.o
 .ARM.attributes
                0x0000000000000247       0x34 stm32f4xx_dma.o
 .ARM.attributes
                0x000000000000027b       0x34 stm32f4xx_adc.o
 .ARM.attributes
                0x00000000000002af       0x39 resources.o
 .ARM.attributes
                0x00000000000002e8       0x34 audio.o
 .ARM.attributes
                0x000000000000031c       0x34 sp0256.o
 .ARM.attributes
                0x0000000000000350       0x34 simpleklatt.o
 .ARM.attributes
                0x0000000000000384       0x34 parwave.o
 .ARM.attributes
                0x00000000000003b8       0x34 sam.o
 .ARM.attributes
                0x00000000000003ec       0x34 render.o
 .ARM.attributes
                0x0000000000000420       0x34 tms5200x.o
 .ARM.attributes
                0x0000000000000454       0x34 digitalker.o
 .ARM.attributes
                0x0000000000000488       0x34 nvp.o
 .ARM.attributes
                0x00000000000004bc       0x34 samplerate.o
 .ARM.attributes
                0x00000000000004f0       0x34 newvotrax.o
 .ARM.attributes
                0x0000000000000524       0x34 sp0256bend.o
 .ARM.attributes
                0x0000000000000558       0x34 ./english2phoneme/parse.o
 .ARM.attributes
                0x000000000000058c       0x34 ./english2phoneme/saynum.o
 .ARM.attributes
                0x00000000000005c0       0x39 ./english2phoneme/newenglish.o
 .ARM.attributes
                0x00000000000005f9       0x34 ./english2phoneme/phoneme.o
 .ARM.attributes
                0x000000000000062d       0x34 ./english2phoneme/spellwor.o
 .ARM.attributes
                0x0000000000000661       0x34 rsynth_2005/holmes.o
 .ARM.attributes
                0x0000000000000695       0x34 rsynth_2005/elements.o
 .ARM.attributes
                0x00000000000006c9       0x34 rsynth_2005/opsynth.o
 .ARM.attributes
                0x00000000000006fd       0x34 ./rsynth-2.0-port/holmes.o
 .ARM.attributes
                0x0000000000000731       0x39 ./rsynth-2.0-port/elements.o
 .ARM.attributes
                0x000000000000076a       0x34 ./rsynth-2.0-port/nsynth.o
 .ARM.attributes
                0x000000000000079e       0x34 ./rsynth-2.0-port/def_pars.o
 .ARM.attributes
                0x00000000000007d2       0x34 /usr/lib/gcc/arm-none-eabi/8.3.1/../../../arm-none-eabi/lib/thumb/v7e-m+fp/hard/libm.a(lib_a-sf_cos.o)
 .ARM.attributes
                0x0000000000000806       0x34 /usr/lib/gcc/arm-none-eabi/8.3.1/../../../arm-none-eabi/lib/thumb/v7e-m+fp/hard/libm.a(lib_a-sf_fabs.o)
 .ARM.attributes
                0x000000000000083a       0x34 /usr/lib/gcc/arm-none-eabi/8.3.1/../../../arm-none-eabi/lib/thumb/v7e-m+fp/hard/libm.a(lib_a-sf_sin.o)
 .ARM.attributes
                0x000000000000086e       0x34 /usr/lib/gcc/arm-none-eabi/8.3.1/../../../arm-none-eabi/lib/thumb/v7e-m+fp/hard/libm.a(lib_a-sf_tan.o)
 .ARM.attributes
                0x00000000000008a2       0x34 /usr/lib/gcc/arm-none-eabi/8.3.1/../../../arm-none-eabi/lib/thumb/v7e-m+fp/hard/libm.a(lib_a-wf_exp.o)
 .ARM.attributes
                0x00000000000008d6       0x34 /usr/lib/gcc/arm-none-eabi/8.3.1/../../../arm-none-eabi/lib/thumb/v7e-m+fp/hard/libm.a(lib_a-wf_pow.o)
 .ARM.attributes
                0x000000000000090a       0x34 /usr/lib/gcc/arm-none-eabi/8.3.1/../../../arm-none-eabi/lib/thumb/v7e-m+fp/hard/libm.a(lib_a-wf_sqrt.o)
 .ARM.attributes
                0x000000000000093e       0x34 /usr/lib/gcc/arm-none-eabi/8.3.1/../../../arm-none-eabi/lib/thumb/v7e-m+fp/hard/libm.a(lib_a-ef_exp.o)
 .ARM.attributes
                0x0000000000000972       0x34 /usr/lib/gcc/arm-none-eabi/8.3.1/../../../arm-none-eabi/lib/thumb/v7e-m+fp/hard/libm.a(lib_a-ef_pow.o)
 .ARM.attributes
                0x00000000000009a6       0x34 /usr/lib/gcc/arm-none-eabi/8.3.1/../../../arm-none-eabi/lib/thumb/v7e-m+fp/hard/libm.a(lib_a-ef_rem_pio2.o)
 .ARM.attributes
                0x00000000000009da       0x34 /usr/lib/gcc/arm-none-eabi/8.3.1/../../../arm-none-eabi/lib/thumb/v7e-m+fp/hard/libm.a(lib_a-ef_sqrt.o)
 .ARM.attributes
                0x0000000000000a0e       0x34 /usr/lib/gcc/arm-none-eabi/8.3.1/../../../arm-none-eabi/lib/thumb/v7e-m+fp/hard/libm.a(lib_a-kf_cos.o)
 .ARM.attributes
                0x0000000000000a42       0x34 /usr/lib/gcc/arm-none-eabi/8.3.1/../../../arm-none-eabi/lib/thumb/v7e-m+fp/hard/libm.a(lib_a-kf_rem_pio2.o)
 .ARM.attributes
                0x0000000000000a76       0x34 /usr/lib/gcc/arm-none-eabi/8.3.1/../../../arm-none-eabi/lib/thumb/v7e-m+fp/hard/libm.a(lib_a-kf_sin.o)
 .ARM.attributes
                0x0000000000000aaa       0x34 /usr/lib/gcc/arm-none-eabi/8.3.1/../../../arm-none-eabi/lib/thumb/v7e-m+fp/hard/libm.a(lib_a-kf_tan.o)
 .ARM.attributes
                0x0000000000000ade       0x32 /usr/lib/gcc/arm-none-eabi/8.3.1/../../../arm-none-eabi/lib/thumb/v7e-m+fp/hard/libm.a(lib_a-s_lib_ver.o)
 .ARM.attributes
                0x0000000000000b10       0x34 /usr/lib/gcc/arm-none-eabi/8.3.1/../../../arm-none-eabi/lib/thumb/v7e-m+fp/hard/libm.a(lib_a-sf_finite.o)
 .ARM.attributes
                0x0000000000000b44       0x34 /usr/lib/gcc/arm-none-eabi/8.3.1/../../../arm-none-eabi/lib/thumb/v7e-m+fp/hard/libm.a(lib_a-sf_floor.o)
 .ARM.attributes
                0x0000000000000b78       0x34 /usr/lib/gcc/arm-none-eabi/8.3.1/../../../arm-none-eabi/lib/thumb/v7e-m+fp/hard/libm.a(lib_a-sf_nan.o)
 .ARM.attributes
                0x0000000000000bac       0x34 /usr/lib/gcc/arm-none-eabi/8.3.1/../../../arm-none-eabi/lib/thumb/v7e-m+fp/hard/libm.a(lib_a-sf_rint.o)
 .ARM.attributes
                0x0000000000000be0       0x34 /usr/lib/gcc/arm-none-eabi/8.3.1/../../../arm-none-eabi/lib/thumb/v7e-m+fp/hard/libm.a(lib_a-sf_scalbn.o)
 .ARM.attributes
                0x0000000000000c14       0x34 /usr/lib/gcc/arm-none-eabi/8.3.1/../../../arm-none-eabi/lib/thumb/v7e-m+fp/hard/libc.a(lib_a-atexit.o)
 .ARM.attributes
                0x0000000000000c48       0x32 /usr/lib/gcc/arm-none-eabi/8.3.1/../../../arm-none-eabi/lib/thumb/v7e-m+fp/hard/libc.a(lib_a-ctype_.o)
 .ARM.attributes
                0x0000000000000c7a       0x34 /usr/lib/gcc/arm-none-eabi/8.3.1/../../../arm-none-eabi/lib/thumb/v7e-m+fp/hard/libc.a(lib_a-errno.o)
 .ARM.attributes
                0x0000000000000cae       0x34 /usr/lib/gcc/arm-none-eabi/8.3.1/../../../arm-none-eabi/lib/thumb/v7e-m+fp/hard/libc.a(lib_a-fini.o)
 .ARM.attributes
                0x0000000000000ce2       0x32 /usr/lib/gcc/arm-none-eabi/8.3.1/../../../arm-none-eabi/lib/thumb/v7e-m+fp/hard/libc.a(lib_a-impure.o)
 .ARM.attributes
                0x0000000000000d14       0x1c /usr/lib/gcc/arm-none-eabi/8.3.1/../../../arm-none-eabi/lib/thumb/v7e-m+fp/hard/libc.a(lib_a-memcpy.o)
 .ARM.attributes
                0x0000000000000d30       0x34 /usr/lib/gcc/arm-none-eabi/8.3.1/../../../arm-none-eabi/lib/thumb/v7e-m+fp/hard/libc.a(lib_a-memset.o)
 .ARM.attributes
                0x0000000000000d64       0x34 /usr/lib/gcc/arm-none-eabi/8.3.1/../../../arm-none-eabi/lib/thumb/v7e-m+fp/hard/libc.a(lib_a-rand.o)
 .ARM.attributes
                0x0000000000000d98       0x34 /usr/lib/gcc/arm-none-eabi/8.3.1/../../../arm-none-eabi/lib/thumb/v7e-m+fp/hard/libc.a(lib_a-strcat.o)
 .ARM.attributes
                0x0000000000000dcc       0x1c /usr/lib/gcc/arm-none-eabi/8.3.1/../../../arm-none-eabi/lib/thumb/v7e-m+fp/hard/libc.a(lib_a-strcmp.o)
 .ARM.attributes
                0x0000000000000de8       0x34 /usr/lib/gcc/arm-none-eabi/8.3.1/../../../arm-none-eabi/lib/thumb/v7e-m+fp/hard/libc.a(lib_a-strcpy.o)
 .ARM.attributes
                0x0000000000000e1c       0x1c /usr/lib/gcc/arm-none-eabi/8.3.1/../../../arm-none-eabi/lib/thumb/v7e-m+fp/hard/libc.a(lib_a-strlen.o)
 .ARM.attributes
                0x0000000000000e38       0x34 /usr/lib/gcc/arm-none-eabi/8.3.1/../../../arm-none-eabi/lib/thumb/v7e-m+fp/hard/libc.a(lib_a-__atexit.o)
 .ARM.attributes
                0x0000000000000e6c       0x34 /usr/lib/gcc/arm-none-eabi/8.3.1/../../../arm-none-eabi/lib/thumb/v7e-m+fp/hard/libc.a(lib_a-__call_atexit.o)
 .ARM.attributes
                0x0000000000000ea0       0x32 /usr/lib/gcc/arm-none-eabi/8.3.1/thumb/v7e-m+fp/hard/crtend.o
 .ARM.attributes
                0x0000000000000ed2       0x1e /usr/lib/gcc/arm-none-eabi/8.3.1/thumb/v7e-m+fp/hard/crtn.o
OUTPUT(main.elf elf32-littlearm)
LOAD linker stubs

.comment        0x0000000000000000       0x9f
 .comment       0x0000000000000000       0x51 /usr/lib/gcc/arm-none-eabi/8.3.1/thumb/v7e-m+fp/hard/crtbegin.o
                                         0x52 (size before relaxing)
 .comment       0x0000000000000051       0x52 system_stm32f4xx.o
 .comment       0x0000000000000051       0x52 main.o
 .comment       0x0000000000000051       0x52 codec.o
 .comment       0x0000000000000051       0x52 i2s.o
 .comment       0x0000000000000051       0x52 adc.o
 .comment       0x0000000000000051       0x52 stm32f4xx_gpio.o
 .comment       0x0000000000000051       0x52 stm32f4xx_i2c.o
 .comment       0x0000000000000051       0x52 stm32f4xx_rcc.o
 .comment       0x0000000000000051       0x52 stm32f4xx_spi.o
 .comment       0x0000000000000051       0x52 stm32f4xx_dma.o
 .comment       0x0000000000000051       0x52 stm32f4xx_adc.o
 .comment       0x0000000000000051       0x52 resources.o
 .comment       0x0000000000000051       0x52 audio.o
 .comment       0x0000000000000051       0x52 sp0256.o
 .comment       0x0000000000000051       0x52 simpleklatt.o
 .comment       0x0000000000000051       0x52 parwave.o
 .comment       0x0000000000000051       0x52 sam.o
 .comment       0x0000000000000051       0x52 render.o
 .comment       0x0000000000000051       0x52 tms5200x.o
 .comment       0x0000000000000051       0x52 digitalker.o
 .comment       0x0000000000000051       0x52 nvp.o
 .comment       0x0000000000000051       0x52 samplerate.o
 .comment       0x0000000000000051       0x52 newvotrax.o
 .comment       0x0000000000000051       0x52 sp0256bend.o
 .comment       0x0000000000000051       0x52 ./english2phoneme/parse.o
 .comment       0x0000000000000051       0x52 ./english2phoneme/saynum.o
 .comment       0x0000000000000051       0x52 ./english2phoneme/newenglish.o
 .comment       0x0000000000000051       0x52 ./english2phoneme/phoneme.o
 .comment       0x0000000000000051       0x52 ./english2phoneme/spellwor.o
 .comment       0x0000000000000051       0x52 rsynth_2005/holmes.o
 .comment       0x0000000000000051       0x52 rsynth_2005/elements.o
 .comment       0x0000000000000051       0x52 rsynth_2005/opsynth.o
 .comment       0x0000000000000051       0x52 ./rsynth-2.0-port/holmes.o
 .comment       0x0000000000000051       0x52 ./rsynth-2.0-port/elements.o
 .comment       0x0000000000000051       0x52 ./rsynth-2.0-port/nsynth.o
 .comment       0x0000000000000051       0x52 ./rsynth-2.0-port/def_pars.o
 .comment       0x0000000000000051       0x4e /usr/lib/gcc/arm-none-eabi/8.3.1/../../../arm-none-eabi/lib/thumb/v7e-m+fp/hard/libm.a(lib_a-sf_cos.o)
                                         0x4f (size before relaxing)
 .comment       0x000000000000009f       0x4f /usr/lib/gcc/arm-none-eabi/8.3.1/../../../arm-none-eabi/lib/thumb/v7e-m+fp/hard/libm.a(lib_a-sf_fabs.o)
 .comment       0x000000000000009f       0x4f /usr/lib/gcc/arm-none-eabi/8.3.1/../../../arm-none-eabi/lib/thumb/v7e-m+fp/hard/libm.a(lib_a-sf_sin.o)
 .comment       0x000000000000009f       0x4f /usr/lib/gcc/arm-none-eabi/8.3.1/../../../arm-none-eabi/lib/thumb/v7e-m+fp/hard/libm.a(lib_a-sf_tan.o)
 .comment       0x000000000000009f       0x4f /usr/lib/gcc/arm-none-eabi/8.3.1/../../../arm-none-eabi/lib/thumb/v7e-m+fp/hard/libm.a(lib_a-wf_exp.o)
 .comment       0x000000000000009f       0x4f /usr/lib/gcc/arm-none-eabi/8.3.1/../../../arm-none-eabi/lib/thumb/v7e-m+fp/hard/libm.a(lib_a-wf_pow.o)
 .comment       0x000000000000009f       0x4f /usr/lib/gcc/arm-none-eabi/8.3.1/../../../arm-none-eabi/lib/thumb/v7e-m+fp/hard/libm.a(lib_a-wf_sqrt.o)
 .comment       0x000000000000009f       0x4f /usr/lib/gcc/arm-none-eabi/8.3.1/../../../arm-none-eabi/lib/thumb/v7e-m+fp/hard/libm.a(lib_a-ef_exp.o)
 .comment       0x000000000000009f       0x4f /usr/lib/gcc/arm-none-eabi/8.3.1/../../../arm-none-eabi/lib/thumb/v7e-m+fp/hard/libm.a(lib_a-ef_pow.o)
 .comment       0x000000000000009f       0x4f /usr/lib/gcc/arm-none-eabi/8.3.1/../../../arm-none-eabi/lib/thumb/v7e-m+fp/hard/libm.a(lib_a-ef_rem_pio2.o)
 .comment       0x000000000000009f       0x4f /usr/lib/gcc/arm-none-eabi/8.3.1/../../../arm-none-eabi/lib/thumb/v7e-m+fp/hard/libm.a(lib_a-ef_sqrt.o)
 .comment       0x000000000000009f       0x4f /usr/lib/gcc/arm-none-eabi/8.3.1/../../../arm-none-eabi/lib/thumb/v7e-m+fp/hard/libm.a(lib_a-kf_cos.o)
 .comment       0x000000000000009f       0x4f /usr/lib/gcc/arm-none-eabi/8.3.1/../../../arm-none-eabi/lib/thumb/v7e-m+fp/hard/libm.a(lib_a-kf_rem_pio2.o)
 .comment       0x000000000000009f       0x4f /usr/lib/gcc/arm-none-eabi/8.3.1/../../../arm-none-eabi/lib/thumb/v7e-m+fp/hard/libm.a(lib_a-kf_sin.o)
 .comment       0x000000000000009f       0x4f /usr/lib/gcc/arm-none-eabi/8.3.1/../../../arm-none-eabi/lib/thumb/v7e-m+fp/hard/libm.a(lib_a-kf_tan.o)
 .comment       0x000000000000009f       0x4f /usr/lib/gcc/arm-none-eabi/8.3.1/../../../arm-none-eabi/lib/thumb/v7e-m+fp/hard/libm.a(lib_a-s_lib_ver.o)
 .comment       0x000000000000009f       0x4f /usr/lib/gcc/arm-none-eabi/8.3.1/../../../arm-none-eabi/lib/thumb/v7e-m+fp/hard/libm.a(lib_a-sf_finite.o)
 .comment       0x000000000000009f       0x4f /usr/lib/gcc/arm-none-eabi/8.3.1/../../../arm-none-eabi/lib/thumb/v7e-m+fp/hard/libm.a(lib_a-sf_floor.o)
 .comment       0x000000000000009f       0x4f /usr/lib/gcc/arm-none-eabi/8.3.1/../../../arm-none-eabi/lib/thumb/v7e-m+fp/hard/libm.a(lib_a-sf_nan.o)
 .comment       0x000000000000009f       0x4f /usr/lib/gcc/arm-none-eabi/8.3.1/../../../arm-none-eabi/lib/thumb/v7e-m+fp/hard/libm.a(lib_a-sf_rint.o)
 .comment       0x000000000000009f       0x4f /usr/lib/gcc/arm-none-eabi/8.3.1/../../../arm-none-eabi/lib/thumb/v7e-m+fp/hard/libm.a(lib_a-sf_scalbn.o)
 .comment       0x000000000000009f       0x4f /usr/lib/gcc/arm-none-eabi/8.3.1/../../../arm-none-eabi/lib/thumb/v7e-m+fp/hard/libc.a(lib_a-atexit.o)
 .comment       0x000000000000009f       0x4f /usr/lib/gcc/arm-none-eabi/8.3.1/../../../arm-none-eabi/lib/thumb/v7e-m+fp/hard/libc.a(lib_a-ctype_.o)
 .comment       0x000000000000009f       0x4f /usr/lib/gcc/arm-none-eabi/8.3.1/../../../arm-none-eabi/lib/thumb/v7e-m+fp/hard/libc.a(lib_a-errno.o)
 .comment       0x000000000000009f       0x4f /usr/lib/gcc/arm-none-eabi/8.3.1/../../../arm-none-eabi/lib/thumb/v7e-m+fp/hard/libc.a(lib_a-fini.o)
 .comment       0x000000000000009f       0x4f /usr/lib/gcc/arm-none-eabi/8.3.1/../../../arm-none-eabi/lib/thumb/v7e-m+fp/hard/libc.a(lib_a-impure.o)
 .comment       0x000000000000009f       0x4f /usr/lib/gcc/arm-none-eabi/8.3.1/../../../arm-none-eabi/lib/thumb/v7e-m+fp/hard/libc.a(lib_a-memset.o)
 .comment       0x000000000000009f       0x4f /usr/lib/gcc/arm-none-eabi/8.3.1/../../../arm-none-eabi/lib/thumb/v7e-m+fp/hard/libc.a(lib_a-rand.o)
 .comment       0x000000000000009f       0x4f /usr/lib/gcc/arm-none-eabi/8.3.1/../../../arm-none-eabi/lib/thumb/v7e-m+fp/hard/libc.a(lib_a-strcat.o)
 .comment       0x000000000000009f       0x4f /usr/lib/gcc/arm-none-eabi/8.3.1/../../../arm-none-eabi/lib/thumb/v7e-m+fp/hard/libc.a(lib_a-strcpy.o)
 .comment       0x000000000000009f       0x4f /usr/lib/gcc/arm-none-eabi/8.3.1/../../../arm-none-eabi/lib/thumb/v7e-m+fp/hard/libc.a(lib_a-__atexit.o)
 .comment       0x000000000000009f       0x4f /usr/lib/gcc/arm-none-eabi/8.3.1/../../../arm-none-eabi/lib/thumb/v7e-m+fp/hard/libc.a(lib_a-__call_atexit.o)
 .comment       0x000000000000009f       0x52 /usr/lib/gcc/arm-none-eabi/8.3.1/thumb/v7e-m+fp/hard/crtend.o
