Archive member included because of file (symbol)

/root/CMSIS/CMSIS/Lib/GCC/libarm_cortexM4lf_math.a(arm_biquad_cascade_df1_init_f32.o)
                              audio.o (arm_biquad_cascade_df1_init_f32)
/root/CMSIS/CMSIS/Lib/GCC/libarm_cortexM4lf_math.a(arm_biquad_cascade_df1_f32.o)
                              effect.o (arm_biquad_cascade_df1_f32)
/opt/ARM/arm-linaro-eabi-4.6/lib/gcc/arm-none-eabi/4.7.3/../../../../arm-none-eabi/lib/thumb/cortex-m4/float-abi-hard/fpuv4-sp-d16/libm.a(lib_a-s_cos.o)
                              ./rsynth-2.0-port/nsynth.o (cos)
/opt/ARM/arm-linaro-eabi-4.6/lib/gcc/arm-none-eabi/4.7.3/../../../../arm-none-eabi/lib/thumb/cortex-m4/float-abi-hard/fpuv4-sp-d16/libm.a(lib_a-sf_cos.o)
                              mdavocoder.o (cosf)
/opt/ARM/arm-linaro-eabi-4.6/lib/gcc/arm-none-eabi/4.7.3/../../../../arm-none-eabi/lib/thumb/cortex-m4/float-abi-hard/fpuv4-sp-d16/libm.a(lib_a-s_floor.o)
                              audio.o (floor)
/opt/ARM/arm-linaro-eabi-4.6/lib/gcc/arm-none-eabi/4.7.3/../../../../arm-none-eabi/lib/thumb/cortex-m4/float-abi-hard/fpuv4-sp-d16/libm.a(lib_a-sf_sin.o)
                              vosim.o (sinf)
/opt/ARM/arm-linaro-eabi-4.6/lib/gcc/arm-none-eabi/4.7.3/../../../../arm-none-eabi/lib/thumb/cortex-m4/float-abi-hard/fpuv4-sp-d16/libm.a(lib_a-sf_tan.o)
                              audio.o (tanf)
/opt/ARM/arm-linaro-eabi-4.6/lib/gcc/arm-none-eabi/4.7.3/../../../../arm-none-eabi/lib/thumb/cortex-m4/float-abi-hard/fpuv4-sp-d16/libm.a(lib_a-s_sin.o)
                              ./rsynth-2.0-port/nsynth.o (sin)
/opt/ARM/arm-linaro-eabi-4.6/lib/gcc/arm-none-eabi/4.7.3/../../../../arm-none-eabi/lib/thumb/cortex-m4/float-abi-hard/fpuv4-sp-d16/libm.a(lib_a-w_exp.o)
                              ./rsynth-2.0-port/nsynth.o (exp)
/opt/ARM/arm-linaro-eabi-4.6/lib/gcc/arm-none-eabi/4.7.3/../../../../arm-none-eabi/lib/thumb/cortex-m4/float-abi-hard/fpuv4-sp-d16/libm.a(lib_a-wf_acos.o)
                              mdavocoder.o (acosf)
/opt/ARM/arm-linaro-eabi-4.6/lib/gcc/arm-none-eabi/4.7.3/../../../../arm-none-eabi/lib/thumb/cortex-m4/float-abi-hard/fpuv4-sp-d16/libm.a(lib_a-wf_exp.o)
                              vocode.o (expf)
/opt/ARM/arm-linaro-eabi-4.6/lib/gcc/arm-none-eabi/4.7.3/../../../../arm-none-eabi/lib/thumb/cortex-m4/float-abi-hard/fpuv4-sp-d16/libm.a(lib_a-wf_pow.o)
                              audio.o (powf)
/opt/ARM/arm-linaro-eabi-4.6/lib/gcc/arm-none-eabi/4.7.3/../../../../arm-none-eabi/lib/thumb/cortex-m4/float-abi-hard/fpuv4-sp-d16/libm.a(lib_a-wf_sqrt.o)
                              vocoder/vocode.o (sqrtf)
/opt/ARM/arm-linaro-eabi-4.6/lib/gcc/arm-none-eabi/4.7.3/../../../../arm-none-eabi/lib/thumb/cortex-m4/float-abi-hard/fpuv4-sp-d16/libm.a(lib_a-w_log10.o)
                              mdavoc.o (log10)
/opt/ARM/arm-linaro-eabi-4.6/lib/gcc/arm-none-eabi/4.7.3/../../../../arm-none-eabi/lib/thumb/cortex-m4/float-abi-hard/fpuv4-sp-d16/libm.a(lib_a-e_exp.o)
                              /opt/ARM/arm-linaro-eabi-4.6/lib/gcc/arm-none-eabi/4.7.3/../../../../arm-none-eabi/lib/thumb/cortex-m4/float-abi-hard/fpuv4-sp-d16/libm.a(lib_a-w_exp.o) (__ieee754_exp)
/opt/ARM/arm-linaro-eabi-4.6/lib/gcc/arm-none-eabi/4.7.3/../../../../arm-none-eabi/lib/thumb/cortex-m4/float-abi-hard/fpuv4-sp-d16/libm.a(lib_a-ef_acos.o)
                              /opt/ARM/arm-linaro-eabi-4.6/lib/gcc/arm-none-eabi/4.7.3/../../../../arm-none-eabi/lib/thumb/cortex-m4/float-abi-hard/fpuv4-sp-d16/libm.a(lib_a-wf_acos.o) (__ieee754_acosf)
/opt/ARM/arm-linaro-eabi-4.6/lib/gcc/arm-none-eabi/4.7.3/../../../../arm-none-eabi/lib/thumb/cortex-m4/float-abi-hard/fpuv4-sp-d16/libm.a(lib_a-ef_exp.o)
                              /opt/ARM/arm-linaro-eabi-4.6/lib/gcc/arm-none-eabi/4.7.3/../../../../arm-none-eabi/lib/thumb/cortex-m4/float-abi-hard/fpuv4-sp-d16/libm.a(lib_a-wf_exp.o) (__ieee754_expf)
/opt/ARM/arm-linaro-eabi-4.6/lib/gcc/arm-none-eabi/4.7.3/../../../../arm-none-eabi/lib/thumb/cortex-m4/float-abi-hard/fpuv4-sp-d16/libm.a(lib_a-ef_pow.o)
                              /opt/ARM/arm-linaro-eabi-4.6/lib/gcc/arm-none-eabi/4.7.3/../../../../arm-none-eabi/lib/thumb/cortex-m4/float-abi-hard/fpuv4-sp-d16/libm.a(lib_a-wf_pow.o) (__ieee754_powf)
/opt/ARM/arm-linaro-eabi-4.6/lib/gcc/arm-none-eabi/4.7.3/../../../../arm-none-eabi/lib/thumb/cortex-m4/float-abi-hard/fpuv4-sp-d16/libm.a(lib_a-ef_rem_pio2.o)
                              /opt/ARM/arm-linaro-eabi-4.6/lib/gcc/arm-none-eabi/4.7.3/../../../../arm-none-eabi/lib/thumb/cortex-m4/float-abi-hard/fpuv4-sp-d16/libm.a(lib_a-sf_cos.o) (__ieee754_rem_pio2f)
/opt/ARM/arm-linaro-eabi-4.6/lib/gcc/arm-none-eabi/4.7.3/../../../../arm-none-eabi/lib/thumb/cortex-m4/float-abi-hard/fpuv4-sp-d16/libm.a(lib_a-ef_sqrt.o)
                              /opt/ARM/arm-linaro-eabi-4.6/lib/gcc/arm-none-eabi/4.7.3/../../../../arm-none-eabi/lib/thumb/cortex-m4/float-abi-hard/fpuv4-sp-d16/libm.a(lib_a-wf_sqrt.o) (__ieee754_sqrtf)
/opt/ARM/arm-linaro-eabi-4.6/lib/gcc/arm-none-eabi/4.7.3/../../../../arm-none-eabi/lib/thumb/cortex-m4/float-abi-hard/fpuv4-sp-d16/libm.a(lib_a-e_log10.o)
                              /opt/ARM/arm-linaro-eabi-4.6/lib/gcc/arm-none-eabi/4.7.3/../../../../arm-none-eabi/lib/thumb/cortex-m4/float-abi-hard/fpuv4-sp-d16/libm.a(lib_a-w_log10.o) (__ieee754_log10)
/opt/ARM/arm-linaro-eabi-4.6/lib/gcc/arm-none-eabi/4.7.3/../../../../arm-none-eabi/lib/thumb/cortex-m4/float-abi-hard/fpuv4-sp-d16/libm.a(lib_a-e_log.o)
                              /opt/ARM/arm-linaro-eabi-4.6/lib/gcc/arm-none-eabi/4.7.3/../../../../arm-none-eabi/lib/thumb/cortex-m4/float-abi-hard/fpuv4-sp-d16/libm.a(lib_a-e_log10.o) (__ieee754_log)
/opt/ARM/arm-linaro-eabi-4.6/lib/gcc/arm-none-eabi/4.7.3/../../../../arm-none-eabi/lib/thumb/cortex-m4/float-abi-hard/fpuv4-sp-d16/libm.a(lib_a-e_rem_pio2.o)
                              /opt/ARM/arm-linaro-eabi-4.6/lib/gcc/arm-none-eabi/4.7.3/../../../../arm-none-eabi/lib/thumb/cortex-m4/float-abi-hard/fpuv4-sp-d16/libm.a(lib_a-s_cos.o) (__ieee754_rem_pio2)
/opt/ARM/arm-linaro-eabi-4.6/lib/gcc/arm-none-eabi/4.7.3/../../../../arm-none-eabi/lib/thumb/cortex-m4/float-abi-hard/fpuv4-sp-d16/libm.a(lib_a-k_cos.o)
                              /opt/ARM/arm-linaro-eabi-4.6/lib/gcc/arm-none-eabi/4.7.3/../../../../arm-none-eabi/lib/thumb/cortex-m4/float-abi-hard/fpuv4-sp-d16/libm.a(lib_a-s_cos.o) (__kernel_cos)
/opt/ARM/arm-linaro-eabi-4.6/lib/gcc/arm-none-eabi/4.7.3/../../../../arm-none-eabi/lib/thumb/cortex-m4/float-abi-hard/fpuv4-sp-d16/libm.a(lib_a-kf_cos.o)
                              /opt/ARM/arm-linaro-eabi-4.6/lib/gcc/arm-none-eabi/4.7.3/../../../../arm-none-eabi/lib/thumb/cortex-m4/float-abi-hard/fpuv4-sp-d16/libm.a(lib_a-sf_cos.o) (__kernel_cosf)
/opt/ARM/arm-linaro-eabi-4.6/lib/gcc/arm-none-eabi/4.7.3/../../../../arm-none-eabi/lib/thumb/cortex-m4/float-abi-hard/fpuv4-sp-d16/libm.a(lib_a-kf_rem_pio2.o)
                              /opt/ARM/arm-linaro-eabi-4.6/lib/gcc/arm-none-eabi/4.7.3/../../../../arm-none-eabi/lib/thumb/cortex-m4/float-abi-hard/fpuv4-sp-d16/libm.a(lib_a-ef_rem_pio2.o) (__kernel_rem_pio2f)
/opt/ARM/arm-linaro-eabi-4.6/lib/gcc/arm-none-eabi/4.7.3/../../../../arm-none-eabi/lib/thumb/cortex-m4/float-abi-hard/fpuv4-sp-d16/libm.a(lib_a-kf_sin.o)
                              /opt/ARM/arm-linaro-eabi-4.6/lib/gcc/arm-none-eabi/4.7.3/../../../../arm-none-eabi/lib/thumb/cortex-m4/float-abi-hard/fpuv4-sp-d16/libm.a(lib_a-sf_cos.o) (__kernel_sinf)
/opt/ARM/arm-linaro-eabi-4.6/lib/gcc/arm-none-eabi/4.7.3/../../../../arm-none-eabi/lib/thumb/cortex-m4/float-abi-hard/fpuv4-sp-d16/libm.a(lib_a-kf_tan.o)
                              /opt/ARM/arm-linaro-eabi-4.6/lib/gcc/arm-none-eabi/4.7.3/../../../../arm-none-eabi/lib/thumb/cortex-m4/float-abi-hard/fpuv4-sp-d16/libm.a(lib_a-sf_tan.o) (__kernel_tanf)
/opt/ARM/arm-linaro-eabi-4.6/lib/gcc/arm-none-eabi/4.7.3/../../../../arm-none-eabi/lib/thumb/cortex-m4/float-abi-hard/fpuv4-sp-d16/libm.a(lib_a-k_rem_pio2.o)
                              /opt/ARM/arm-linaro-eabi-4.6/lib/gcc/arm-none-eabi/4.7.3/../../../../arm-none-eabi/lib/thumb/cortex-m4/float-abi-hard/fpuv4-sp-d16/libm.a(lib_a-e_rem_pio2.o) (__kernel_rem_pio2)
/opt/ARM/arm-linaro-eabi-4.6/lib/gcc/arm-none-eabi/4.7.3/../../../../arm-none-eabi/lib/thumb/cortex-m4/float-abi-hard/fpuv4-sp-d16/libm.a(lib_a-k_sin.o)
                              /opt/ARM/arm-linaro-eabi-4.6/lib/gcc/arm-none-eabi/4.7.3/../../../../arm-none-eabi/lib/thumb/cortex-m4/float-abi-hard/fpuv4-sp-d16/libm.a(lib_a-s_cos.o) (__kernel_sin)
/opt/ARM/arm-linaro-eabi-4.6/lib/gcc/arm-none-eabi/4.7.3/../../../../arm-none-eabi/lib/thumb/cortex-m4/float-abi-hard/fpuv4-sp-d16/libm.a(lib_a-s_fabs.o)
                              /opt/ARM/arm-linaro-eabi-4.6/lib/gcc/arm-none-eabi/4.7.3/../../../../arm-none-eabi/lib/thumb/cortex-m4/float-abi-hard/fpuv4-sp-d16/libm.a(lib_a-e_rem_pio2.o) (fabs)
/opt/ARM/arm-linaro-eabi-4.6/lib/gcc/arm-none-eabi/4.7.3/../../../../arm-none-eabi/lib/thumb/cortex-m4/float-abi-hard/fpuv4-sp-d16/libm.a(lib_a-sf_fabs.o)
                              /opt/ARM/arm-linaro-eabi-4.6/lib/gcc/arm-none-eabi/4.7.3/../../../../arm-none-eabi/lib/thumb/cortex-m4/float-abi-hard/fpuv4-sp-d16/libm.a(lib_a-wf_acos.o) (fabsf)
/opt/ARM/arm-linaro-eabi-4.6/lib/gcc/arm-none-eabi/4.7.3/../../../../arm-none-eabi/lib/thumb/cortex-m4/float-abi-hard/fpuv4-sp-d16/libm.a(lib_a-sf_finite.o)
                              /opt/ARM/arm-linaro-eabi-4.6/lib/gcc/arm-none-eabi/4.7.3/../../../../arm-none-eabi/lib/thumb/cortex-m4/float-abi-hard/fpuv4-sp-d16/libm.a(lib_a-wf_exp.o) (finitef)
/opt/ARM/arm-linaro-eabi-4.6/lib/gcc/arm-none-eabi/4.7.3/../../../../arm-none-eabi/lib/thumb/cortex-m4/float-abi-hard/fpuv4-sp-d16/libm.a(lib_a-sf_floor.o)
                              /opt/ARM/arm-linaro-eabi-4.6/lib/gcc/arm-none-eabi/4.7.3/../../../../arm-none-eabi/lib/thumb/cortex-m4/float-abi-hard/fpuv4-sp-d16/libm.a(lib_a-kf_rem_pio2.o) (floorf)
/opt/ARM/arm-linaro-eabi-4.6/lib/gcc/arm-none-eabi/4.7.3/../../../../arm-none-eabi/lib/thumb/cortex-m4/float-abi-hard/fpuv4-sp-d16/libm.a(lib_a-sf_fpclassify.o)
                              /opt/ARM/arm-linaro-eabi-4.6/lib/gcc/arm-none-eabi/4.7.3/../../../../arm-none-eabi/lib/thumb/cortex-m4/float-abi-hard/fpuv4-sp-d16/libm.a(lib_a-wf_acos.o) (__fpclassifyf)
/opt/ARM/arm-linaro-eabi-4.6/lib/gcc/arm-none-eabi/4.7.3/../../../../arm-none-eabi/lib/thumb/cortex-m4/float-abi-hard/fpuv4-sp-d16/libm.a(lib_a-s_finite.o)
                              /opt/ARM/arm-linaro-eabi-4.6/lib/gcc/arm-none-eabi/4.7.3/../../../../arm-none-eabi/lib/thumb/cortex-m4/float-abi-hard/fpuv4-sp-d16/libm.a(lib_a-w_exp.o) (finite)
/opt/ARM/arm-linaro-eabi-4.6/lib/gcc/arm-none-eabi/4.7.3/../../../../arm-none-eabi/lib/thumb/cortex-m4/float-abi-hard/fpuv4-sp-d16/libm.a(lib_a-sf_nan.o)
                              /opt/ARM/arm-linaro-eabi-4.6/lib/gcc/arm-none-eabi/4.7.3/../../../../arm-none-eabi/lib/thumb/cortex-m4/float-abi-hard/fpuv4-sp-d16/libm.a(lib_a-ef_pow.o) (nanf)
/opt/ARM/arm-linaro-eabi-4.6/lib/gcc/arm-none-eabi/4.7.3/../../../../arm-none-eabi/lib/thumb/cortex-m4/float-abi-hard/fpuv4-sp-d16/libm.a(lib_a-s_fpclassify.o)
                              /opt/ARM/arm-linaro-eabi-4.6/lib/gcc/arm-none-eabi/4.7.3/../../../../arm-none-eabi/lib/thumb/cortex-m4/float-abi-hard/fpuv4-sp-d16/libm.a(lib_a-w_log10.o) (__fpclassifyd)
/opt/ARM/arm-linaro-eabi-4.6/lib/gcc/arm-none-eabi/4.7.3/../../../../arm-none-eabi/lib/thumb/cortex-m4/float-abi-hard/fpuv4-sp-d16/libm.a(lib_a-sf_scalbn.o)
                              /opt/ARM/arm-linaro-eabi-4.6/lib/gcc/arm-none-eabi/4.7.3/../../../../arm-none-eabi/lib/thumb/cortex-m4/float-abi-hard/fpuv4-sp-d16/libm.a(lib_a-ef_pow.o) (scalbnf)
/opt/ARM/arm-linaro-eabi-4.6/lib/gcc/arm-none-eabi/4.7.3/../../../../arm-none-eabi/lib/thumb/cortex-m4/float-abi-hard/fpuv4-sp-d16/libm.a(lib_a-s_lib_ver.o)
                              /opt/ARM/arm-linaro-eabi-4.6/lib/gcc/arm-none-eabi/4.7.3/../../../../arm-none-eabi/lib/thumb/cortex-m4/float-abi-hard/fpuv4-sp-d16/libm.a(lib_a-w_exp.o) (__fdlib_version)
/opt/ARM/arm-linaro-eabi-4.6/lib/gcc/arm-none-eabi/4.7.3/../../../../arm-none-eabi/lib/thumb/cortex-m4/float-abi-hard/fpuv4-sp-d16/libm.a(lib_a-s_matherr.o)
                              /opt/ARM/arm-linaro-eabi-4.6/lib/gcc/arm-none-eabi/4.7.3/../../../../arm-none-eabi/lib/thumb/cortex-m4/float-abi-hard/fpuv4-sp-d16/libm.a(lib_a-w_exp.o) (matherr)
/opt/ARM/arm-linaro-eabi-4.6/lib/gcc/arm-none-eabi/4.7.3/../../../../arm-none-eabi/lib/thumb/cortex-m4/float-abi-hard/fpuv4-sp-d16/libm.a(lib_a-s_nan.o)
                              /opt/ARM/arm-linaro-eabi-4.6/lib/gcc/arm-none-eabi/4.7.3/../../../../arm-none-eabi/lib/thumb/cortex-m4/float-abi-hard/fpuv4-sp-d16/libm.a(lib_a-wf_acos.o) (nan)
/opt/ARM/arm-linaro-eabi-4.6/lib/gcc/arm-none-eabi/4.7.3/../../../../arm-none-eabi/lib/thumb/cortex-m4/float-abi-hard/fpuv4-sp-d16/libm.a(lib_a-s_rint.o)
                              /opt/ARM/arm-linaro-eabi-4.6/lib/gcc/arm-none-eabi/4.7.3/../../../../arm-none-eabi/lib/thumb/cortex-m4/float-abi-hard/fpuv4-sp-d16/libm.a(lib_a-wf_pow.o) (rint)
/opt/ARM/arm-linaro-eabi-4.6/lib/gcc/arm-none-eabi/4.7.3/../../../../arm-none-eabi/lib/thumb/cortex-m4/float-abi-hard/fpuv4-sp-d16/libm.a(lib_a-s_scalbn.o)
                              /opt/ARM/arm-linaro-eabi-4.6/lib/gcc/arm-none-eabi/4.7.3/../../../../arm-none-eabi/lib/thumb/cortex-m4/float-abi-hard/fpuv4-sp-d16/libm.a(lib_a-k_rem_pio2.o) (scalbn)
/opt/ARM/arm-linaro-eabi-4.6/lib/gcc/arm-none-eabi/4.7.3/../../../../arm-none-eabi/lib/thumb/cortex-m4/float-abi-hard/fpuv4-sp-d16/libm.a(lib_a-s_copysign.o)
                              /opt/ARM/arm-linaro-eabi-4.6/lib/gcc/arm-none-eabi/4.7.3/../../../../arm-none-eabi/lib/thumb/cortex-m4/float-abi-hard/fpuv4-sp-d16/libm.a(lib_a-s_scalbn.o) (copysign)
/opt/ARM/arm-linaro-eabi-4.6/lib/gcc/arm-none-eabi/4.7.3/../../../../arm-none-eabi/lib/thumb/cortex-m4/float-abi-hard/fpuv4-sp-d16/libm.a(lib_a-sf_copysign.o)
                              /opt/ARM/arm-linaro-eabi-4.6/lib/gcc/arm-none-eabi/4.7.3/../../../../arm-none-eabi/lib/thumb/cortex-m4/float-abi-hard/fpuv4-sp-d16/libm.a(lib_a-sf_scalbn.o) (copysignf)
/opt/ARM/arm-linaro-eabi-4.6/lib/gcc/arm-none-eabi/4.7.3/../../../../arm-none-eabi/lib/thumb/cortex-m4/float-abi-hard/fpuv4-sp-d16/libc.a(lib_a-atexit.o)
                              /opt/ARM/arm-linaro-eabi-4.6/lib/gcc/arm-none-eabi/4.7.3/../../../../arm-none-eabi/lib/thumb/cortex-m4/float-abi-hard/fpuv4-sp-d16/crt0.o (atexit)
/opt/ARM/arm-linaro-eabi-4.6/lib/gcc/arm-none-eabi/4.7.3/../../../../arm-none-eabi/lib/thumb/cortex-m4/float-abi-hard/fpuv4-sp-d16/libc.a(lib_a-errno.o)
                              syscalls.o (__errno)
/opt/ARM/arm-linaro-eabi-4.6/lib/gcc/arm-none-eabi/4.7.3/../../../../arm-none-eabi/lib/thumb/cortex-m4/float-abi-hard/fpuv4-sp-d16/libc.a(lib_a-exit.o)
                              /opt/ARM/arm-linaro-eabi-4.6/lib/gcc/arm-none-eabi/4.7.3/../../../../arm-none-eabi/lib/thumb/cortex-m4/float-abi-hard/fpuv4-sp-d16/crt0.o (exit)
/opt/ARM/arm-linaro-eabi-4.6/lib/gcc/arm-none-eabi/4.7.3/../../../../arm-none-eabi/lib/thumb/cortex-m4/float-abi-hard/fpuv4-sp-d16/libc.a(lib_a-fini.o)
                              /opt/ARM/arm-linaro-eabi-4.6/lib/gcc/arm-none-eabi/4.7.3/../../../../arm-none-eabi/lib/thumb/cortex-m4/float-abi-hard/fpuv4-sp-d16/crt0.o (__libc_fini_array)
/opt/ARM/arm-linaro-eabi-4.6/lib/gcc/arm-none-eabi/4.7.3/../../../../arm-none-eabi/lib/thumb/cortex-m4/float-abi-hard/fpuv4-sp-d16/libc.a(lib_a-fprintf.o)
                              ./rsynth-2.0-port/phtoelm.o (fprintf)
/opt/ARM/arm-linaro-eabi-4.6/lib/gcc/arm-none-eabi/4.7.3/../../../../arm-none-eabi/lib/thumb/cortex-m4/float-abi-hard/fpuv4-sp-d16/libc.a(lib_a-fwrite.o)
                              ./rsynth-2.0-port/phtoelm.o (fwrite)
/opt/ARM/arm-linaro-eabi-4.6/lib/gcc/arm-none-eabi/4.7.3/../../../../arm-none-eabi/lib/thumb/cortex-m4/float-abi-hard/fpuv4-sp-d16/libc.a(lib_a-impure.o)
                              /opt/ARM/arm-linaro-eabi-4.6/lib/gcc/arm-none-eabi/4.7.3/../../../../arm-none-eabi/lib/thumb/cortex-m4/float-abi-hard/fpuv4-sp-d16/libc.a(lib_a-exit.o) (_global_impure_ptr)
/opt/ARM/arm-linaro-eabi-4.6/lib/gcc/arm-none-eabi/4.7.3/../../../../arm-none-eabi/lib/thumb/cortex-m4/float-abi-hard/fpuv4-sp-d16/libc.a(lib_a-init.o)
                              /opt/ARM/arm-linaro-eabi-4.6/lib/gcc/arm-none-eabi/4.7.3/../../../../arm-none-eabi/lib/thumb/cortex-m4/float-abi-hard/fpuv4-sp-d16/crt0.o (__libc_init_array)
/opt/ARM/arm-linaro-eabi-4.6/lib/gcc/arm-none-eabi/4.7.3/../../../../arm-none-eabi/lib/thumb/cortex-m4/float-abi-hard/fpuv4-sp-d16/libc.a(lib_a-malloc.o)
                              audio.o (malloc)
/opt/ARM/arm-linaro-eabi-4.6/lib/gcc/arm-none-eabi/4.7.3/../../../../arm-none-eabi/lib/thumb/cortex-m4/float-abi-hard/fpuv4-sp-d16/libc.a(lib_a-mallocr.o)
                              /opt/ARM/arm-linaro-eabi-4.6/lib/gcc/arm-none-eabi/4.7.3/../../../../arm-none-eabi/lib/thumb/cortex-m4/float-abi-hard/fpuv4-sp-d16/libc.a(lib_a-malloc.o) (_malloc_r)
/opt/ARM/arm-linaro-eabi-4.6/lib/gcc/arm-none-eabi/4.7.3/../../../../arm-none-eabi/lib/thumb/cortex-m4/float-abi-hard/fpuv4-sp-d16/libc.a(lib_a-memcpy-stub.o)
                              effect.o (memcpy)
/opt/ARM/arm-linaro-eabi-4.6/lib/gcc/arm-none-eabi/4.7.3/../../../../arm-none-eabi/lib/thumb/cortex-m4/float-abi-hard/fpuv4-sp-d16/libc.a(lib_a-memset.o)
                              /opt/ARM/arm-linaro-eabi-4.6/lib/gcc/arm-none-eabi/4.7.3/../../../../arm-none-eabi/lib/thumb/cortex-m4/float-abi-hard/fpuv4-sp-d16/crt0.o (memset)
/opt/ARM/arm-linaro-eabi-4.6/lib/gcc/arm-none-eabi/4.7.3/../../../../arm-none-eabi/lib/thumb/cortex-m4/float-abi-hard/fpuv4-sp-d16/libc.a(lib_a-mlock.o)
                              /opt/ARM/arm-linaro-eabi-4.6/lib/gcc/arm-none-eabi/4.7.3/../../../../arm-none-eabi/lib/thumb/cortex-m4/float-abi-hard/fpuv4-sp-d16/libc.a(lib_a-mallocr.o) (__malloc_lock)
/opt/ARM/arm-linaro-eabi-4.6/lib/gcc/arm-none-eabi/4.7.3/../../../../arm-none-eabi/lib/thumb/cortex-m4/float-abi-hard/fpuv4-sp-d16/libc.a(lib_a-printf.o)
                              ./rsynth-2.0-port/nsynth.o (printf)
/opt/ARM/arm-linaro-eabi-4.6/lib/gcc/arm-none-eabi/4.7.3/../../../../arm-none-eabi/lib/thumb/cortex-m4/float-abi-hard/fpuv4-sp-d16/libc.a(lib_a-putchar.o)
                              ./rsynth-2.0-port/nsynth.o (putchar)
/opt/ARM/arm-linaro-eabi-4.6/lib/gcc/arm-none-eabi/4.7.3/../../../../arm-none-eabi/lib/thumb/cortex-m4/float-abi-hard/fpuv4-sp-d16/libc.a(lib_a-putc.o)
                              /opt/ARM/arm-linaro-eabi-4.6/lib/gcc/arm-none-eabi/4.7.3/../../../../arm-none-eabi/lib/thumb/cortex-m4/float-abi-hard/fpuv4-sp-d16/libc.a(lib_a-putchar.o) (_putc_r)
/opt/ARM/arm-linaro-eabi-4.6/lib/gcc/arm-none-eabi/4.7.3/../../../../arm-none-eabi/lib/thumb/cortex-m4/float-abi-hard/fpuv4-sp-d16/libc.a(lib_a-puts.o)
                              ./rsynth-2.0-port/nsynth.o (puts)
/opt/ARM/arm-linaro-eabi-4.6/lib/gcc/arm-none-eabi/4.7.3/../../../../arm-none-eabi/lib/thumb/cortex-m4/float-abi-hard/fpuv4-sp-d16/libc.a(lib_a-rand.o)
                              audio.o (rand)
/opt/ARM/arm-linaro-eabi-4.6/lib/gcc/arm-none-eabi/4.7.3/../../../../arm-none-eabi/lib/thumb/cortex-m4/float-abi-hard/fpuv4-sp-d16/libc.a(lib_a-sbrkr.o)
                              /opt/ARM/arm-linaro-eabi-4.6/lib/gcc/arm-none-eabi/4.7.3/../../../../arm-none-eabi/lib/thumb/cortex-m4/float-abi-hard/fpuv4-sp-d16/libc.a(lib_a-mallocr.o) (_sbrk_r)
/opt/ARM/arm-linaro-eabi-4.6/lib/gcc/arm-none-eabi/4.7.3/../../../../arm-none-eabi/lib/thumb/cortex-m4/float-abi-hard/fpuv4-sp-d16/libc.a(lib_a-strcmp.o)
                              ./rsynth-2.0-port/phtoelm.o (strcmp)
/opt/ARM/arm-linaro-eabi-4.6/lib/gcc/arm-none-eabi/4.7.3/../../../../arm-none-eabi/lib/thumb/cortex-m4/float-abi-hard/fpuv4-sp-d16/libc.a(lib_a-strlen.o)
                              ./rsynth-2.0-port/nsynth.o (strlen)
/opt/ARM/arm-linaro-eabi-4.6/lib/gcc/arm-none-eabi/4.7.3/../../../../arm-none-eabi/lib/thumb/cortex-m4/float-abi-hard/fpuv4-sp-d16/libc.a(lib_a-vfprintf.o)
                              /opt/ARM/arm-linaro-eabi-4.6/lib/gcc/arm-none-eabi/4.7.3/../../../../arm-none-eabi/lib/thumb/cortex-m4/float-abi-hard/fpuv4-sp-d16/libc.a(lib_a-fprintf.o) (_vfprintf_r)
/opt/ARM/arm-linaro-eabi-4.6/lib/gcc/arm-none-eabi/4.7.3/../../../../arm-none-eabi/lib/thumb/cortex-m4/float-abi-hard/fpuv4-sp-d16/libc.a(lib_a-wbuf.o)
                              /opt/ARM/arm-linaro-eabi-4.6/lib/gcc/arm-none-eabi/4.7.3/../../../../arm-none-eabi/lib/thumb/cortex-m4/float-abi-hard/fpuv4-sp-d16/libc.a(lib_a-putc.o) (__swbuf_r)
/opt/ARM/arm-linaro-eabi-4.6/lib/gcc/arm-none-eabi/4.7.3/../../../../arm-none-eabi/lib/thumb/cortex-m4/float-abi-hard/fpuv4-sp-d16/libc.a(lib_a-wsetup.o)
                              /opt/ARM/arm-linaro-eabi-4.6/lib/gcc/arm-none-eabi/4.7.3/../../../../arm-none-eabi/lib/thumb/cortex-m4/float-abi-hard/fpuv4-sp-d16/libc.a(lib_a-vfprintf.o) (__swsetup_r)
/opt/ARM/arm-linaro-eabi-4.6/lib/gcc/arm-none-eabi/4.7.3/../../../../arm-none-eabi/lib/thumb/cortex-m4/float-abi-hard/fpuv4-sp-d16/libc.a(lib_a-__atexit.o)
                              /opt/ARM/arm-linaro-eabi-4.6/lib/gcc/arm-none-eabi/4.7.3/../../../../arm-none-eabi/lib/thumb/cortex-m4/float-abi-hard/fpuv4-sp-d16/libc.a(lib_a-atexit.o) (__register_exitproc)
/opt/ARM/arm-linaro-eabi-4.6/lib/gcc/arm-none-eabi/4.7.3/../../../../arm-none-eabi/lib/thumb/cortex-m4/float-abi-hard/fpuv4-sp-d16/libc.a(lib_a-__call_atexit.o)
                              /opt/ARM/arm-linaro-eabi-4.6/lib/gcc/arm-none-eabi/4.7.3/../../../../arm-none-eabi/lib/thumb/cortex-m4/float-abi-hard/fpuv4-sp-d16/libc.a(lib_a-exit.o) (__call_exitprocs)
/opt/ARM/arm-linaro-eabi-4.6/lib/gcc/arm-none-eabi/4.7.3/../../../../arm-none-eabi/lib/thumb/cortex-m4/float-abi-hard/fpuv4-sp-d16/libc.a(lib_a-dtoa.o)
                              /opt/ARM/arm-linaro-eabi-4.6/lib/gcc/arm-none-eabi/4.7.3/../../../../arm-none-eabi/lib/thumb/cortex-m4/float-abi-hard/fpuv4-sp-d16/libc.a(lib_a-vfprintf.o) (_dtoa_r)
/opt/ARM/arm-linaro-eabi-4.6/lib/gcc/arm-none-eabi/4.7.3/../../../../arm-none-eabi/lib/thumb/cortex-m4/float-abi-hard/fpuv4-sp-d16/libc.a(lib_a-fflush.o)
                              /opt/ARM/arm-linaro-eabi-4.6/lib/gcc/arm-none-eabi/4.7.3/../../../../arm-none-eabi/lib/thumb/cortex-m4/float-abi-hard/fpuv4-sp-d16/libc.a(lib_a-vfprintf.o) (_fflush_r)
/opt/ARM/arm-linaro-eabi-4.6/lib/gcc/arm-none-eabi/4.7.3/../../../../arm-none-eabi/lib/thumb/cortex-m4/float-abi-hard/fpuv4-sp-d16/libc.a(lib_a-findfp.o)
                              /opt/ARM/arm-linaro-eabi-4.6/lib/gcc/arm-none-eabi/4.7.3/../../../../arm-none-eabi/lib/thumb/cortex-m4/float-abi-hard/fpuv4-sp-d16/libc.a(lib_a-fwrite.o) (__sinit)
/opt/ARM/arm-linaro-eabi-4.6/lib/gcc/arm-none-eabi/4.7.3/../../../../arm-none-eabi/lib/thumb/cortex-m4/float-abi-hard/fpuv4-sp-d16/libc.a(lib_a-freer.o)
                              /opt/ARM/arm-linaro-eabi-4.6/lib/gcc/arm-none-eabi/4.7.3/../../../../arm-none-eabi/lib/thumb/cortex-m4/float-abi-hard/fpuv4-sp-d16/libc.a(lib_a-malloc.o) (_free_r)
/opt/ARM/arm-linaro-eabi-4.6/lib/gcc/arm-none-eabi/4.7.3/../../../../arm-none-eabi/lib/thumb/cortex-m4/float-abi-hard/fpuv4-sp-d16/libc.a(lib_a-fvwrite.o)
                              /opt/ARM/arm-linaro-eabi-4.6/lib/gcc/arm-none-eabi/4.7.3/../../../../arm-none-eabi/lib/thumb/cortex-m4/float-abi-hard/fpuv4-sp-d16/libc.a(lib_a-fwrite.o) (__sfvwrite_r)
/opt/ARM/arm-linaro-eabi-4.6/lib/gcc/arm-none-eabi/4.7.3/../../../../arm-none-eabi/lib/thumb/cortex-m4/float-abi-hard/fpuv4-sp-d16/libc.a(lib_a-fwalk.o)
                              /opt/ARM/arm-linaro-eabi-4.6/lib/gcc/arm-none-eabi/4.7.3/../../../../arm-none-eabi/lib/thumb/cortex-m4/float-abi-hard/fpuv4-sp-d16/libc.a(lib_a-findfp.o) (_fwalk)
/opt/ARM/arm-linaro-eabi-4.6/lib/gcc/arm-none-eabi/4.7.3/../../../../arm-none-eabi/lib/thumb/cortex-m4/float-abi-hard/fpuv4-sp-d16/libc.a(lib_a-locale.o)
                              /opt/ARM/arm-linaro-eabi-4.6/lib/gcc/arm-none-eabi/4.7.3/../../../../arm-none-eabi/lib/thumb/cortex-m4/float-abi-hard/fpuv4-sp-d16/libc.a(lib_a-vfprintf.o) (_localeconv_r)
/opt/ARM/arm-linaro-eabi-4.6/lib/gcc/arm-none-eabi/4.7.3/../../../../arm-none-eabi/lib/thumb/cortex-m4/float-abi-hard/fpuv4-sp-d16/libc.a(lib_a-makebuf.o)
                              /opt/ARM/arm-linaro-eabi-4.6/lib/gcc/arm-none-eabi/4.7.3/../../../../arm-none-eabi/lib/thumb/cortex-m4/float-abi-hard/fpuv4-sp-d16/libc.a(lib_a-wsetup.o) (__smakebuf_r)
/opt/ARM/arm-linaro-eabi-4.6/lib/gcc/arm-none-eabi/4.7.3/../../../../arm-none-eabi/lib/thumb/cortex-m4/float-abi-hard/fpuv4-sp-d16/libc.a(lib_a-memchr-stub.o)
                              /opt/ARM/arm-linaro-eabi-4.6/lib/gcc/arm-none-eabi/4.7.3/../../../../arm-none-eabi/lib/thumb/cortex-m4/float-abi-hard/fpuv4-sp-d16/libc.a(lib_a-vfprintf.o) (memchr)
/opt/ARM/arm-linaro-eabi-4.6/lib/gcc/arm-none-eabi/4.7.3/../../../../arm-none-eabi/lib/thumb/cortex-m4/float-abi-hard/fpuv4-sp-d16/libc.a(lib_a-memmove.o)
                              /opt/ARM/arm-linaro-eabi-4.6/lib/gcc/arm-none-eabi/4.7.3/../../../../arm-none-eabi/lib/thumb/cortex-m4/float-abi-hard/fpuv4-sp-d16/libc.a(lib_a-fvwrite.o) (memmove)
/opt/ARM/arm-linaro-eabi-4.6/lib/gcc/arm-none-eabi/4.7.3/../../../../arm-none-eabi/lib/thumb/cortex-m4/float-abi-hard/fpuv4-sp-d16/libc.a(lib_a-mprec.o)
                              /opt/ARM/arm-linaro-eabi-4.6/lib/gcc/arm-none-eabi/4.7.3/../../../../arm-none-eabi/lib/thumb/cortex-m4/float-abi-hard/fpuv4-sp-d16/libc.a(lib_a-dtoa.o) (_Balloc)
/opt/ARM/arm-linaro-eabi-4.6/lib/gcc/arm-none-eabi/4.7.3/../../../../arm-none-eabi/lib/thumb/cortex-m4/float-abi-hard/fpuv4-sp-d16/libc.a(lib_a-reallocr.o)
                              /opt/ARM/arm-linaro-eabi-4.6/lib/gcc/arm-none-eabi/4.7.3/../../../../arm-none-eabi/lib/thumb/cortex-m4/float-abi-hard/fpuv4-sp-d16/libc.a(lib_a-fvwrite.o) (_realloc_r)
/opt/ARM/arm-linaro-eabi-4.6/lib/gcc/arm-none-eabi/4.7.3/../../../../arm-none-eabi/lib/thumb/cortex-m4/float-abi-hard/fpuv4-sp-d16/libc.a(lib_a-reent.o)
                              /opt/ARM/arm-linaro-eabi-4.6/lib/gcc/arm-none-eabi/4.7.3/../../../../arm-none-eabi/lib/thumb/cortex-m4/float-abi-hard/fpuv4-sp-d16/libc.a(lib_a-sbrkr.o) (errno)
/opt/ARM/arm-linaro-eabi-4.6/lib/gcc/arm-none-eabi/4.7.3/../../../../arm-none-eabi/lib/thumb/cortex-m4/float-abi-hard/fpuv4-sp-d16/libc.a(lib_a-stdio.o)
                              /opt/ARM/arm-linaro-eabi-4.6/lib/gcc/arm-none-eabi/4.7.3/../../../../arm-none-eabi/lib/thumb/cortex-m4/float-abi-hard/fpuv4-sp-d16/libc.a(lib_a-findfp.o) (__sread)
/opt/ARM/arm-linaro-eabi-4.6/lib/gcc/arm-none-eabi/4.7.3/../../../../arm-none-eabi/lib/thumb/cortex-m4/float-abi-hard/fpuv4-sp-d16/libc.a(lib_a-vfiprintf.o)
                              /opt/ARM/arm-linaro-eabi-4.6/lib/gcc/arm-none-eabi/4.7.3/../../../../arm-none-eabi/lib/thumb/cortex-m4/float-abi-hard/fpuv4-sp-d16/libc.a(lib_a-vfprintf.o) (__sprint_r)
/opt/ARM/arm-linaro-eabi-4.6/lib/gcc/arm-none-eabi/4.7.3/../../../../arm-none-eabi/lib/thumb/cortex-m4/float-abi-hard/fpuv4-sp-d16/libc.a(lib_a-writer.o)
                              /opt/ARM/arm-linaro-eabi-4.6/lib/gcc/arm-none-eabi/4.7.3/../../../../arm-none-eabi/lib/thumb/cortex-m4/float-abi-hard/fpuv4-sp-d16/libc.a(lib_a-stdio.o) (_write_r)
/opt/ARM/arm-linaro-eabi-4.6/lib/gcc/arm-none-eabi/4.7.3/../../../../arm-none-eabi/lib/thumb/cortex-m4/float-abi-hard/fpuv4-sp-d16/libc.a(lib_a-callocr.o)
                              /opt/ARM/arm-linaro-eabi-4.6/lib/gcc/arm-none-eabi/4.7.3/../../../../arm-none-eabi/lib/thumb/cortex-m4/float-abi-hard/fpuv4-sp-d16/libc.a(lib_a-mprec.o) (_calloc_r)
/opt/ARM/arm-linaro-eabi-4.6/lib/gcc/arm-none-eabi/4.7.3/../../../../arm-none-eabi/lib/thumb/cortex-m4/float-abi-hard/fpuv4-sp-d16/libc.a(lib_a-closer.o)
                              /opt/ARM/arm-linaro-eabi-4.6/lib/gcc/arm-none-eabi/4.7.3/../../../../arm-none-eabi/lib/thumb/cortex-m4/float-abi-hard/fpuv4-sp-d16/libc.a(lib_a-stdio.o) (_close_r)
/opt/ARM/arm-linaro-eabi-4.6/lib/gcc/arm-none-eabi/4.7.3/../../../../arm-none-eabi/lib/thumb/cortex-m4/float-abi-hard/fpuv4-sp-d16/libc.a(lib_a-fclose.o)
                              /opt/ARM/arm-linaro-eabi-4.6/lib/gcc/arm-none-eabi/4.7.3/../../../../arm-none-eabi/lib/thumb/cortex-m4/float-abi-hard/fpuv4-sp-d16/libc.a(lib_a-findfp.o) (fclose)
/opt/ARM/arm-linaro-eabi-4.6/lib/gcc/arm-none-eabi/4.7.3/../../../../arm-none-eabi/lib/thumb/cortex-m4/float-abi-hard/fpuv4-sp-d16/libc.a(lib_a-fputwc.o)
                              /opt/ARM/arm-linaro-eabi-4.6/lib/gcc/arm-none-eabi/4.7.3/../../../../arm-none-eabi/lib/thumb/cortex-m4/float-abi-hard/fpuv4-sp-d16/libc.a(lib_a-vfiprintf.o) (_fputwc_r)
/opt/ARM/arm-linaro-eabi-4.6/lib/gcc/arm-none-eabi/4.7.3/../../../../arm-none-eabi/lib/thumb/cortex-m4/float-abi-hard/fpuv4-sp-d16/libc.a(lib_a-fstatr.o)
                              /opt/ARM/arm-linaro-eabi-4.6/lib/gcc/arm-none-eabi/4.7.3/../../../../arm-none-eabi/lib/thumb/cortex-m4/float-abi-hard/fpuv4-sp-d16/libc.a(lib_a-makebuf.o) (_fstat_r)
/opt/ARM/arm-linaro-eabi-4.6/lib/gcc/arm-none-eabi/4.7.3/../../../../arm-none-eabi/lib/thumb/cortex-m4/float-abi-hard/fpuv4-sp-d16/libc.a(lib_a-isattyr.o)
                              /opt/ARM/arm-linaro-eabi-4.6/lib/gcc/arm-none-eabi/4.7.3/../../../../arm-none-eabi/lib/thumb/cortex-m4/float-abi-hard/fpuv4-sp-d16/libc.a(lib_a-makebuf.o) (_isatty_r)
/opt/ARM/arm-linaro-eabi-4.6/lib/gcc/arm-none-eabi/4.7.3/../../../../arm-none-eabi/lib/thumb/cortex-m4/float-abi-hard/fpuv4-sp-d16/libc.a(lib_a-lseekr.o)
                              /opt/ARM/arm-linaro-eabi-4.6/lib/gcc/arm-none-eabi/4.7.3/../../../../arm-none-eabi/lib/thumb/cortex-m4/float-abi-hard/fpuv4-sp-d16/libc.a(lib_a-stdio.o) (_lseek_r)
/opt/ARM/arm-linaro-eabi-4.6/lib/gcc/arm-none-eabi/4.7.3/../../../../arm-none-eabi/lib/thumb/cortex-m4/float-abi-hard/fpuv4-sp-d16/libc.a(lib_a-readr.o)
                              /opt/ARM/arm-linaro-eabi-4.6/lib/gcc/arm-none-eabi/4.7.3/../../../../arm-none-eabi/lib/thumb/cortex-m4/float-abi-hard/fpuv4-sp-d16/libc.a(lib_a-stdio.o) (_read_r)
/opt/ARM/arm-linaro-eabi-4.6/lib/gcc/arm-none-eabi/4.7.3/../../../../arm-none-eabi/lib/thumb/cortex-m4/float-abi-hard/fpuv4-sp-d16/libc.a(lib_a-wcrtomb.o)
                              /opt/ARM/arm-linaro-eabi-4.6/lib/gcc/arm-none-eabi/4.7.3/../../../../arm-none-eabi/lib/thumb/cortex-m4/float-abi-hard/fpuv4-sp-d16/libc.a(lib_a-fputwc.o) (_wcrtomb_r)
/opt/ARM/arm-linaro-eabi-4.6/lib/gcc/arm-none-eabi/4.7.3/../../../../arm-none-eabi/lib/thumb/cortex-m4/float-abi-hard/fpuv4-sp-d16/libc.a(lib_a-wctomb_r.o)
                              /opt/ARM/arm-linaro-eabi-4.6/lib/gcc/arm-none-eabi/4.7.3/../../../../arm-none-eabi/lib/thumb/cortex-m4/float-abi-hard/fpuv4-sp-d16/libc.a(lib_a-wcrtomb.o) (__wctomb)
/opt/ARM/arm-linaro-eabi-4.6/lib/gcc/arm-none-eabi/4.7.3/thumb/cortex-m4/float-abi-hard/fpuv4-sp-d16/libgcc.a(_arm_addsubdf3.o)
                              mdavoc.o (__aeabi_dsub)
/opt/ARM/arm-linaro-eabi-4.6/lib/gcc/arm-none-eabi/4.7.3/thumb/cortex-m4/float-abi-hard/fpuv4-sp-d16/libgcc.a(_arm_muldivdf3.o)
                              ./rsynth-2.0-port/nsynth.o (__aeabi_dmul)
/opt/ARM/arm-linaro-eabi-4.6/lib/gcc/arm-none-eabi/4.7.3/thumb/cortex-m4/float-abi-hard/fpuv4-sp-d16/libgcc.a(_arm_cmpdf2.o)
                              /opt/ARM/arm-linaro-eabi-4.6/lib/gcc/arm-none-eabi/4.7.3/../../../../arm-none-eabi/lib/thumb/cortex-m4/float-abi-hard/fpuv4-sp-d16/libm.a(lib_a-wf_pow.o) (__aeabi_dcmpeq)
/opt/ARM/arm-linaro-eabi-4.6/lib/gcc/arm-none-eabi/4.7.3/thumb/cortex-m4/float-abi-hard/fpuv4-sp-d16/libgcc.a(_arm_fixdfsi.o)
                              /opt/ARM/arm-linaro-eabi-4.6/lib/gcc/arm-none-eabi/4.7.3/../../../../arm-none-eabi/lib/thumb/cortex-m4/float-abi-hard/fpuv4-sp-d16/libm.a(lib_a-e_exp.o) (__aeabi_d2iz)
/opt/ARM/arm-linaro-eabi-4.6/lib/gcc/arm-none-eabi/4.7.3/thumb/cortex-m4/float-abi-hard/fpuv4-sp-d16/libgcc.a(_arm_truncdfsf2.o)
                              audio.o (__aeabi_d2f)

Allocating common symbols
Common symbol       size              file

errno               0x4               /opt/ARM/arm-linaro-eabi-4.6/lib/gcc/arm-none-eabi/4.7.3/../../../../arm-none-eabi/lib/thumb/cortex-m4/float-abi-hard/fpuv4-sp-d16/libc.a(lib_a-reent.o)

Discarded input sections

 .text          0x00000000        0x0 /opt/ARM/arm-linaro-eabi-4.6/lib/gcc/arm-none-eabi/4.7.3/thumb/cortex-m4/float-abi-hard/fpuv4-sp-d16/crti.o
 .data          0x00000000        0x0 /opt/ARM/arm-linaro-eabi-4.6/lib/gcc/arm-none-eabi/4.7.3/thumb/cortex-m4/float-abi-hard/fpuv4-sp-d16/crti.o
 .bss           0x00000000        0x0 /opt/ARM/arm-linaro-eabi-4.6/lib/gcc/arm-none-eabi/4.7.3/thumb/cortex-m4/float-abi-hard/fpuv4-sp-d16/crti.o
 .data          0x00000000        0x4 /opt/ARM/arm-linaro-eabi-4.6/lib/gcc/arm-none-eabi/4.7.3/thumb/cortex-m4/float-abi-hard/fpuv4-sp-d16/crtbegin.o
 .text          0x00000000       0x68 /opt/ARM/arm-linaro-eabi-4.6/lib/gcc/arm-none-eabi/4.7.3/../../../../arm-none-eabi/lib/thumb/cortex-m4/float-abi-hard/fpuv4-sp-d16/crt0.o
 .data          0x00000000        0x0 /opt/ARM/arm-linaro-eabi-4.6/lib/gcc/arm-none-eabi/4.7.3/../../../../arm-none-eabi/lib/thumb/cortex-m4/float-abi-hard/fpuv4-sp-d16/crt0.o
 .bss           0x00000000        0x0 /opt/ARM/arm-linaro-eabi-4.6/lib/gcc/arm-none-eabi/4.7.3/../../../../arm-none-eabi/lib/thumb/cortex-m4/float-abi-hard/fpuv4-sp-d16/crt0.o
 .ARM.extab     0x00000000        0x0 /opt/ARM/arm-linaro-eabi-4.6/lib/gcc/arm-none-eabi/4.7.3/../../../../arm-none-eabi/lib/thumb/cortex-m4/float-abi-hard/fpuv4-sp-d16/crt0.o
 .ARM.exidx     0x00000000        0x8 /opt/ARM/arm-linaro-eabi-4.6/lib/gcc/arm-none-eabi/4.7.3/../../../../arm-none-eabi/lib/thumb/cortex-m4/float-abi-hard/fpuv4-sp-d16/crt0.o
 .ARM.attributes
                0x00000000       0x25 /opt/ARM/arm-linaro-eabi-4.6/lib/gcc/arm-none-eabi/4.7.3/../../../../arm-none-eabi/lib/thumb/cortex-m4/float-abi-hard/fpuv4-sp-d16/crt0.o
 .debug_line    0x00000000       0x99 /opt/ARM/arm-linaro-eabi-4.6/lib/gcc/arm-none-eabi/4.7.3/../../../../arm-none-eabi/lib/thumb/cortex-m4/float-abi-hard/fpuv4-sp-d16/crt0.o
 .debug_info    0x00000000       0xd3 /opt/ARM/arm-linaro-eabi-4.6/lib/gcc/arm-none-eabi/4.7.3/../../../../arm-none-eabi/lib/thumb/cortex-m4/float-abi-hard/fpuv4-sp-d16/crt0.o
 .debug_abbrev  0x00000000       0x14 /opt/ARM/arm-linaro-eabi-4.6/lib/gcc/arm-none-eabi/4.7.3/../../../../arm-none-eabi/lib/thumb/cortex-m4/float-abi-hard/fpuv4-sp-d16/crt0.o
 .debug_aranges
                0x00000000       0x20 /opt/ARM/arm-linaro-eabi-4.6/lib/gcc/arm-none-eabi/4.7.3/../../../../arm-none-eabi/lib/thumb/cortex-m4/float-abi-hard/fpuv4-sp-d16/crt0.o
 .text          0x00000000       0x14 startup_stm32f4xx.o
 .data          0x00000000        0x0 startup_stm32f4xx.o
 .bss           0x00000000        0x0 startup_stm32f4xx.o
 .bss           0x00000000        0x0 system_stm32f4xx.o
 .bss           0x00000000        0x1 codec.o
 .rodata        0x00000000       0x14 codec.o
 .data          0x00000000        0x0 i2s.o
 .text          0x00000000      0xe2c stm32f4xx_tim.o
 .data          0x00000000        0x0 stm32f4xx_tim.o
 .bss           0x00000000        0x0 stm32f4xx_tim.o
 .debug_info    0x00000000     0x26d2 stm32f4xx_tim.o
 .debug_abbrev  0x00000000      0x2b6 stm32f4xx_tim.o
 .debug_loc     0x00000000     0x23bb stm32f4xx_tim.o
 .debug_aranges
                0x00000000       0x20 stm32f4xx_tim.o
 .debug_ranges  0x00000000       0xf0 stm32f4xx_tim.o
 .debug_line    0x00000000      0x67c stm32f4xx_tim.o
 .debug_str     0x00000000      0xd65 stm32f4xx_tim.o
 .comment       0x00000000       0x3b stm32f4xx_tim.o
 .ARM.attributes
                0x00000000       0x39 stm32f4xx_tim.o
 .debug_frame   0x00000000      0x650 stm32f4xx_tim.o
 .data          0x00000000        0x0 adc.o
 .bss           0x00000000        0x0 adc.o
 .text          0x00000000      0x120 stm32f4xx_pwr.o
 .data          0x00000000        0x0 stm32f4xx_pwr.o
 .bss           0x00000000        0x0 stm32f4xx_pwr.o
 .debug_info    0x00000000      0x585 stm32f4xx_pwr.o
 .debug_abbrev  0x00000000      0x1fa stm32f4xx_pwr.o
 .debug_loc     0x00000000      0x151 stm32f4xx_pwr.o
 .debug_aranges
                0x00000000       0x20 stm32f4xx_pwr.o
 .debug_line    0x00000000      0x161 stm32f4xx_pwr.o
 .debug_str     0x00000000      0x30f stm32f4xx_pwr.o
 .comment       0x00000000       0x3b stm32f4xx_pwr.o
 .ARM.attributes
                0x00000000       0x39 stm32f4xx_pwr.o
 .debug_frame   0x00000000       0xe0 stm32f4xx_pwr.o
 .data          0x00000000        0x0 stm32f4xx_gpio.o
 .bss           0x00000000        0x0 stm32f4xx_gpio.o
 .data          0x00000000        0x0 stm32f4xx_i2c.o
 .bss           0x00000000        0x0 stm32f4xx_i2c.o
 .bss           0x00000000        0x0 stm32f4xx_rcc.o
 .data          0x00000000        0x0 stm32f4xx_spi.o
 .bss           0x00000000        0x0 stm32f4xx_spi.o
 .data          0x00000000        0x0 stm32f4xx_dma.o
 .bss           0x00000000        0x0 stm32f4xx_dma.o
 .data          0x00000000        0x0 stm32f4xx_adc.o
 .bss           0x00000000        0x0 stm32f4xx_adc.o
 .text          0x00000000       0xe4 misc.o
 .data          0x00000000        0x0 misc.o
 .bss           0x00000000        0x0 misc.o
 .debug_info    0x00000000      0x594 misc.o
 .debug_abbrev  0x00000000      0x152 misc.o
 .debug_loc     0x00000000      0x1a1 misc.o
 .debug_aranges
                0x00000000       0x20 misc.o
 .debug_line    0x00000000      0x103 misc.o
 .debug_str     0x00000000      0x340 misc.o
 .comment       0x00000000       0x3b misc.o
 .ARM.attributes
                0x00000000       0x39 misc.o
 .debug_frame   0x00000000       0x6c misc.o
 .data          0x00000000        0x0 syscalls.o
 .rodata        0x00000000        0x4 vosim.o
 .data          0x00000000        0x0 mdavoc.o
 .bss           0x00000000        0x0 mdavoc.o
 .data          0x00000000        0x0 mdavocoder.o
 .bss           0x00000000        0x0 mdavocoder.o
 .data          0x00000000        0x0 effect.o
 .data          0x00000000        0x0 vocode.o
 .bss           0x00000000        0x0 vocode.o
 .data          0x00000000        0x0 klatt_phoneme.o
 .bss           0x00000000        0x0 klatt_phoneme.o
 .bss           0x00000000        0x4 vocoder/vocode.o
 .data          0x00000000        0x0 vocoder/fftn.o
 .text          0x00000000       0x54 vocoder/fftaux.o
 .data          0x00000000        0x0 vocoder/fftaux.o
 .bss           0x00000000        0x0 vocoder/fftaux.o
 .debug_info    0x00000000      0x1c6 vocoder/fftaux.o
 .debug_abbrev  0x00000000       0xc5 vocoder/fftaux.o
 .debug_loc     0x00000000      0x161 vocoder/fftaux.o
 .debug_aranges
                0x00000000       0x20 vocoder/fftaux.o
 .debug_line    0x00000000       0x84 vocoder/fftaux.o
 .debug_str     0x00000000      0x10e vocoder/fftaux.o
 .comment       0x00000000       0x3b vocoder/fftaux.o
 .ARM.attributes
                0x00000000       0x39 vocoder/fftaux.o
 .debug_frame   0x00000000       0x58 vocoder/fftaux.o
 .data          0x00000000        0x0 scformant.o
 .bss           0x00000000        0x0 scformant.o
 .bss           0x00000000        0x0 ./rsynth-2.0-port/holmes.o
 .text          0x00000000        0x0 ./rsynth-2.0-port/elements.o
 .data          0x00000000       0x50 ./rsynth-2.0-port/elements.o
 .bss           0x00000000        0x0 ./rsynth-2.0-port/elements.o
 .data          0x00000000        0x0 ./rsynth-2.0-port/say.o
 .data          0x00000000        0x0 ./rsynth-2.0-port/darray.o
 .bss           0x00000000        0x0 ./rsynth-2.0-port/darray.o
 .text          0x00000000      0x6e0 ./rsynth-2.0-port/phtoelm.o
 .data          0x00000000        0x0 ./rsynth-2.0-port/phtoelm.o
 .bss           0x00000000        0x4 ./rsynth-2.0-port/phtoelm.o
 .rodata.str1.4
                0x00000000      0x208 ./rsynth-2.0-port/phtoelm.o
 .debug_info    0x00000000     0x1c51 ./rsynth-2.0-port/phtoelm.o
 .debug_abbrev  0x00000000      0x398 ./rsynth-2.0-port/phtoelm.o
 .debug_loc     0x00000000      0x479 ./rsynth-2.0-port/phtoelm.o
 .debug_aranges
                0x00000000       0x20 ./rsynth-2.0-port/phtoelm.o
 .debug_ranges  0x00000000      0x1b0 ./rsynth-2.0-port/phtoelm.o
 .debug_line    0x00000000      0x350 ./rsynth-2.0-port/phtoelm.o
 .debug_str     0x00000000      0x65f ./rsynth-2.0-port/phtoelm.o
 .comment       0x00000000       0x3b ./rsynth-2.0-port/phtoelm.o
 .ARM.attributes
                0x00000000       0x39 ./rsynth-2.0-port/phtoelm.o
 .debug_frame   0x00000000       0x84 ./rsynth-2.0-port/phtoelm.o
 .text          0x00000000       0xd8 ./rsynth-2.0-port/trie.o
 .data          0x00000000        0x0 ./rsynth-2.0-port/trie.o
 .bss           0x00000000        0x0 ./rsynth-2.0-port/trie.o
 .debug_info    0x00000000      0x212 ./rsynth-2.0-port/trie.o
 .debug_abbrev  0x00000000      0x136 ./rsynth-2.0-port/trie.o
 .debug_loc     0x00000000      0x2e0 ./rsynth-2.0-port/trie.o
 .debug_aranges
                0x00000000       0x20 ./rsynth-2.0-port/trie.o
 .debug_ranges  0x00000000       0x20 ./rsynth-2.0-port/trie.o
 .debug_line    0x00000000      0x186 ./rsynth-2.0-port/trie.o
 .debug_str     0x00000000      0x14f ./rsynth-2.0-port/trie.o
 .comment       0x00000000       0x3b ./rsynth-2.0-port/trie.o
 .ARM.attributes
                0x00000000       0x39 ./rsynth-2.0-port/trie.o
 .debug_frame   0x00000000       0x4c ./rsynth-2.0-port/trie.o
 .text          0x00000000        0x0 /root/CMSIS/CMSIS/Lib/GCC/libarm_cortexM4lf_math.a(arm_biquad_cascade_df1_init_f32.o)
 .data          0x00000000        0x0 /root/CMSIS/CMSIS/Lib/GCC/libarm_cortexM4lf_math.a(arm_biquad_cascade_df1_init_f32.o)
 .bss           0x00000000        0x0 /root/CMSIS/CMSIS/Lib/GCC/libarm_cortexM4lf_math.a(arm_biquad_cascade_df1_init_f32.o)
 .text          0x00000000        0x0 /root/CMSIS/CMSIS/Lib/GCC/libarm_cortexM4lf_math.a(arm_biquad_cascade_df1_f32.o)
 .data          0x00000000        0x0 /root/CMSIS/CMSIS/Lib/GCC/libarm_cortexM4lf_math.a(arm_biquad_cascade_df1_f32.o)
 .bss           0x00000000        0x0 /root/CMSIS/CMSIS/Lib/GCC/libarm_cortexM4lf_math.a(arm_biquad_cascade_df1_f32.o)
 .data          0x00000000        0x0 /opt/ARM/arm-linaro-eabi-4.6/lib/gcc/arm-none-eabi/4.7.3/../../../../arm-none-eabi/lib/thumb/cortex-m4/float-abi-hard/fpuv4-sp-d16/libm.a(lib_a-s_cos.o)
 .bss           0x00000000        0x0 /opt/ARM/arm-linaro-eabi-4.6/lib/gcc/arm-none-eabi/4.7.3/../../../../arm-none-eabi/lib/thumb/cortex-m4/float-abi-hard/fpuv4-sp-d16/libm.a(lib_a-s_cos.o)
 .data          0x00000000        0x0 /opt/ARM/arm-linaro-eabi-4.6/lib/gcc/arm-none-eabi/4.7.3/../../../../arm-none-eabi/lib/thumb/cortex-m4/float-abi-hard/fpuv4-sp-d16/libm.a(lib_a-sf_cos.o)
 .bss           0x00000000        0x0 /opt/ARM/arm-linaro-eabi-4.6/lib/gcc/arm-none-eabi/4.7.3/../../../../arm-none-eabi/lib/thumb/cortex-m4/float-abi-hard/fpuv4-sp-d16/libm.a(lib_a-sf_cos.o)
 .data          0x00000000        0x0 /opt/ARM/arm-linaro-eabi-4.6/lib/gcc/arm-none-eabi/4.7.3/../../../../arm-none-eabi/lib/thumb/cortex-m4/float-abi-hard/fpuv4-sp-d16/libm.a(lib_a-s_floor.o)
 .bss           0x00000000        0x0 /opt/ARM/arm-linaro-eabi-4.6/lib/gcc/arm-none-eabi/4.7.3/../../../../arm-none-eabi/lib/thumb/cortex-m4/float-abi-hard/fpuv4-sp-d16/libm.a(lib_a-s_floor.o)
 .data          0x00000000        0x0 /opt/ARM/arm-linaro-eabi-4.6/lib/gcc/arm-none-eabi/4.7.3/../../../../arm-none-eabi/lib/thumb/cortex-m4/float-abi-hard/fpuv4-sp-d16/libm.a(lib_a-sf_sin.o)
 .bss           0x00000000        0x0 /opt/ARM/arm-linaro-eabi-4.6/lib/gcc/arm-none-eabi/4.7.3/../../../../arm-none-eabi/lib/thumb/cortex-m4/float-abi-hard/fpuv4-sp-d16/libm.a(lib_a-sf_sin.o)
 .data          0x00000000        0x0 /opt/ARM/arm-linaro-eabi-4.6/lib/gcc/arm-none-eabi/4.7.3/../../../../arm-none-eabi/lib/thumb/cortex-m4/float-abi-hard/fpuv4-sp-d16/libm.a(lib_a-sf_tan.o)
 .bss           0x00000000        0x0 /opt/ARM/arm-linaro-eabi-4.6/lib/gcc/arm-none-eabi/4.7.3/../../../../arm-none-eabi/lib/thumb/cortex-m4/float-abi-hard/fpuv4-sp-d16/libm.a(lib_a-sf_tan.o)
 .data          0x00000000        0x0 /opt/ARM/arm-linaro-eabi-4.6/lib/gcc/arm-none-eabi/4.7.3/../../../../arm-none-eabi/lib/thumb/cortex-m4/float-abi-hard/fpuv4-sp-d16/libm.a(lib_a-s_sin.o)
 .bss           0x00000000        0x0 /opt/ARM/arm-linaro-eabi-4.6/lib/gcc/arm-none-eabi/4.7.3/../../../../arm-none-eabi/lib/thumb/cortex-m4/float-abi-hard/fpuv4-sp-d16/libm.a(lib_a-s_sin.o)
 .data          0x00000000        0x0 /opt/ARM/arm-linaro-eabi-4.6/lib/gcc/arm-none-eabi/4.7.3/../../../../arm-none-eabi/lib/thumb/cortex-m4/float-abi-hard/fpuv4-sp-d16/libm.a(lib_a-w_exp.o)
 .bss           0x00000000        0x0 /opt/ARM/arm-linaro-eabi-4.6/lib/gcc/arm-none-eabi/4.7.3/../../../../arm-none-eabi/lib/thumb/cortex-m4/float-abi-hard/fpuv4-sp-d16/libm.a(lib_a-w_exp.o)
 .data          0x00000000        0x0 /opt/ARM/arm-linaro-eabi-4.6/lib/gcc/arm-none-eabi/4.7.3/../../../../arm-none-eabi/lib/thumb/cortex-m4/float-abi-hard/fpuv4-sp-d16/libm.a(lib_a-wf_acos.o)
 .bss           0x00000000        0x0 /opt/ARM/arm-linaro-eabi-4.6/lib/gcc/arm-none-eabi/4.7.3/../../../../arm-none-eabi/lib/thumb/cortex-m4/float-abi-hard/fpuv4-sp-d16/libm.a(lib_a-wf_acos.o)
 .data          0x00000000        0x0 /opt/ARM/arm-linaro-eabi-4.6/lib/gcc/arm-none-eabi/4.7.3/../../../../arm-none-eabi/lib/thumb/cortex-m4/float-abi-hard/fpuv4-sp-d16/libm.a(lib_a-wf_exp.o)
 .bss           0x00000000        0x0 /opt/ARM/arm-linaro-eabi-4.6/lib/gcc/arm-none-eabi/4.7.3/../../../../arm-none-eabi/lib/thumb/cortex-m4/float-abi-hard/fpuv4-sp-d16/libm.a(lib_a-wf_exp.o)
 .data          0x00000000        0x0 /opt/ARM/arm-linaro-eabi-4.6/lib/gcc/arm-none-eabi/4.7.3/../../../../arm-none-eabi/lib/thumb/cortex-m4/float-abi-hard/fpuv4-sp-d16/libm.a(lib_a-wf_pow.o)
 .bss           0x00000000        0x0 /opt/ARM/arm-linaro-eabi-4.6/lib/gcc/arm-none-eabi/4.7.3/../../../../arm-none-eabi/lib/thumb/cortex-m4/float-abi-hard/fpuv4-sp-d16/libm.a(lib_a-wf_pow.o)
 .data          0x00000000        0x0 /opt/ARM/arm-linaro-eabi-4.6/lib/gcc/arm-none-eabi/4.7.3/../../../../arm-none-eabi/lib/thumb/cortex-m4/float-abi-hard/fpuv4-sp-d16/libm.a(lib_a-wf_sqrt.o)
 .bss           0x00000000        0x0 /opt/ARM/arm-linaro-eabi-4.6/lib/gcc/arm-none-eabi/4.7.3/../../../../arm-none-eabi/lib/thumb/cortex-m4/float-abi-hard/fpuv4-sp-d16/libm.a(lib_a-wf_sqrt.o)
 .data          0x00000000        0x0 /opt/ARM/arm-linaro-eabi-4.6/lib/gcc/arm-none-eabi/4.7.3/../../../../arm-none-eabi/lib/thumb/cortex-m4/float-abi-hard/fpuv4-sp-d16/libm.a(lib_a-w_log10.o)
 .bss           0x00000000        0x0 /opt/ARM/arm-linaro-eabi-4.6/lib/gcc/arm-none-eabi/4.7.3/../../../../arm-none-eabi/lib/thumb/cortex-m4/float-abi-hard/fpuv4-sp-d16/libm.a(lib_a-w_log10.o)
 .data          0x00000000        0x0 /opt/ARM/arm-linaro-eabi-4.6/lib/gcc/arm-none-eabi/4.7.3/../../../../arm-none-eabi/lib/thumb/cortex-m4/float-abi-hard/fpuv4-sp-d16/libm.a(lib_a-e_exp.o)
 .bss           0x00000000        0x0 /opt/ARM/arm-linaro-eabi-4.6/lib/gcc/arm-none-eabi/4.7.3/../../../../arm-none-eabi/lib/thumb/cortex-m4/float-abi-hard/fpuv4-sp-d16/libm.a(lib_a-e_exp.o)
 .data          0x00000000        0x0 /opt/ARM/arm-linaro-eabi-4.6/lib/gcc/arm-none-eabi/4.7.3/../../../../arm-none-eabi/lib/thumb/cortex-m4/float-abi-hard/fpuv4-sp-d16/libm.a(lib_a-ef_acos.o)
 .bss           0x00000000        0x0 /opt/ARM/arm-linaro-eabi-4.6/lib/gcc/arm-none-eabi/4.7.3/../../../../arm-none-eabi/lib/thumb/cortex-m4/float-abi-hard/fpuv4-sp-d16/libm.a(lib_a-ef_acos.o)
 .data          0x00000000        0x0 /opt/ARM/arm-linaro-eabi-4.6/lib/gcc/arm-none-eabi/4.7.3/../../../../arm-none-eabi/lib/thumb/cortex-m4/float-abi-hard/fpuv4-sp-d16/libm.a(lib_a-ef_exp.o)
 .bss           0x00000000        0x0 /opt/ARM/arm-linaro-eabi-4.6/lib/gcc/arm-none-eabi/4.7.3/../../../../arm-none-eabi/lib/thumb/cortex-m4/float-abi-hard/fpuv4-sp-d16/libm.a(lib_a-ef_exp.o)
 .data          0x00000000        0x0 /opt/ARM/arm-linaro-eabi-4.6/lib/gcc/arm-none-eabi/4.7.3/../../../../arm-none-eabi/lib/thumb/cortex-m4/float-abi-hard/fpuv4-sp-d16/libm.a(lib_a-ef_pow.o)
 .bss           0x00000000        0x0 /opt/ARM/arm-linaro-eabi-4.6/lib/gcc/arm-none-eabi/4.7.3/../../../../arm-none-eabi/lib/thumb/cortex-m4/float-abi-hard/fpuv4-sp-d16/libm.a(lib_a-ef_pow.o)
 .data          0x00000000        0x0 /opt/ARM/arm-linaro-eabi-4.6/lib/gcc/arm-none-eabi/4.7.3/../../../../arm-none-eabi/lib/thumb/cortex-m4/float-abi-hard/fpuv4-sp-d16/libm.a(lib_a-ef_rem_pio2.o)
 .bss           0x00000000        0x0 /opt/ARM/arm-linaro-eabi-4.6/lib/gcc/arm-none-eabi/4.7.3/../../../../arm-none-eabi/lib/thumb/cortex-m4/float-abi-hard/fpuv4-sp-d16/libm.a(lib_a-ef_rem_pio2.o)
 .data          0x00000000        0x0 /opt/ARM/arm-linaro-eabi-4.6/lib/gcc/arm-none-eabi/4.7.3/../../../../arm-none-eabi/lib/thumb/cortex-m4/float-abi-hard/fpuv4-sp-d16/libm.a(lib_a-ef_sqrt.o)
 .bss           0x00000000        0x0 /opt/ARM/arm-linaro-eabi-4.6/lib/gcc/arm-none-eabi/4.7.3/../../../../arm-none-eabi/lib/thumb/cortex-m4/float-abi-hard/fpuv4-sp-d16/libm.a(lib_a-ef_sqrt.o)
 .data          0x00000000        0x0 /opt/ARM/arm-linaro-eabi-4.6/lib/gcc/arm-none-eabi/4.7.3/../../../../arm-none-eabi/lib/thumb/cortex-m4/float-abi-hard/fpuv4-sp-d16/libm.a(lib_a-e_log10.o)
 .bss           0x00000000        0x0 /opt/ARM/arm-linaro-eabi-4.6/lib/gcc/arm-none-eabi/4.7.3/../../../../arm-none-eabi/lib/thumb/cortex-m4/float-abi-hard/fpuv4-sp-d16/libm.a(lib_a-e_log10.o)
 .data          0x00000000        0x0 /opt/ARM/arm-linaro-eabi-4.6/lib/gcc/arm-none-eabi/4.7.3/../../../../arm-none-eabi/lib/thumb/cortex-m4/float-abi-hard/fpuv4-sp-d16/libm.a(lib_a-e_log.o)
 .bss           0x00000000        0x0 /opt/ARM/arm-linaro-eabi-4.6/lib/gcc/arm-none-eabi/4.7.3/../../../../arm-none-eabi/lib/thumb/cortex-m4/float-abi-hard/fpuv4-sp-d16/libm.a(lib_a-e_log.o)
 .data          0x00000000        0x0 /opt/ARM/arm-linaro-eabi-4.6/lib/gcc/arm-none-eabi/4.7.3/../../../../arm-none-eabi/lib/thumb/cortex-m4/float-abi-hard/fpuv4-sp-d16/libm.a(lib_a-e_rem_pio2.o)
 .bss           0x00000000        0x0 /opt/ARM/arm-linaro-eabi-4.6/lib/gcc/arm-none-eabi/4.7.3/../../../../arm-none-eabi/lib/thumb/cortex-m4/float-abi-hard/fpuv4-sp-d16/libm.a(lib_a-e_rem_pio2.o)
 .data          0x00000000        0x0 /opt/ARM/arm-linaro-eabi-4.6/lib/gcc/arm-none-eabi/4.7.3/../../../../arm-none-eabi/lib/thumb/cortex-m4/float-abi-hard/fpuv4-sp-d16/libm.a(lib_a-k_cos.o)
 .bss           0x00000000        0x0 /opt/ARM/arm-linaro-eabi-4.6/lib/gcc/arm-none-eabi/4.7.3/../../../../arm-none-eabi/lib/thumb/cortex-m4/float-abi-hard/fpuv4-sp-d16/libm.a(lib_a-k_cos.o)
 .data          0x00000000        0x0 /opt/ARM/arm-linaro-eabi-4.6/lib/gcc/arm-none-eabi/4.7.3/../../../../arm-none-eabi/lib/thumb/cortex-m4/float-abi-hard/fpuv4-sp-d16/libm.a(lib_a-kf_cos.o)
 .bss           0x00000000        0x0 /opt/ARM/arm-linaro-eabi-4.6/lib/gcc/arm-none-eabi/4.7.3/../../../../arm-none-eabi/lib/thumb/cortex-m4/float-abi-hard/fpuv4-sp-d16/libm.a(lib_a-kf_cos.o)
 .data          0x00000000        0x0 /opt/ARM/arm-linaro-eabi-4.6/lib/gcc/arm-none-eabi/4.7.3/../../../../arm-none-eabi/lib/thumb/cortex-m4/float-abi-hard/fpuv4-sp-d16/libm.a(lib_a-kf_rem_pio2.o)
 .bss           0x00000000        0x0 /opt/ARM/arm-linaro-eabi-4.6/lib/gcc/arm-none-eabi/4.7.3/../../../../arm-none-eabi/lib/thumb/cortex-m4/float-abi-hard/fpuv4-sp-d16/libm.a(lib_a-kf_rem_pio2.o)
 .data          0x00000000        0x0 /opt/ARM/arm-linaro-eabi-4.6/lib/gcc/arm-none-eabi/4.7.3/../../../../arm-none-eabi/lib/thumb/cortex-m4/float-abi-hard/fpuv4-sp-d16/libm.a(lib_a-kf_sin.o)
 .bss           0x00000000        0x0 /opt/ARM/arm-linaro-eabi-4.6/lib/gcc/arm-none-eabi/4.7.3/../../../../arm-none-eabi/lib/thumb/cortex-m4/float-abi-hard/fpuv4-sp-d16/libm.a(lib_a-kf_sin.o)
 .data          0x00000000        0x0 /opt/ARM/arm-linaro-eabi-4.6/lib/gcc/arm-none-eabi/4.7.3/../../../../arm-none-eabi/lib/thumb/cortex-m4/float-abi-hard/fpuv4-sp-d16/libm.a(lib_a-kf_tan.o)
 .bss           0x00000000        0x0 /opt/ARM/arm-linaro-eabi-4.6/lib/gcc/arm-none-eabi/4.7.3/../../../../arm-none-eabi/lib/thumb/cortex-m4/float-abi-hard/fpuv4-sp-d16/libm.a(lib_a-kf_tan.o)
 .data          0x00000000        0x0 /opt/ARM/arm-linaro-eabi-4.6/lib/gcc/arm-none-eabi/4.7.3/../../../../arm-none-eabi/lib/thumb/cortex-m4/float-abi-hard/fpuv4-sp-d16/libm.a(lib_a-k_rem_pio2.o)
 .bss           0x00000000        0x0 /opt/ARM/arm-linaro-eabi-4.6/lib/gcc/arm-none-eabi/4.7.3/../../../../arm-none-eabi/lib/thumb/cortex-m4/float-abi-hard/fpuv4-sp-d16/libm.a(lib_a-k_rem_pio2.o)
 .data          0x00000000        0x0 /opt/ARM/arm-linaro-eabi-4.6/lib/gcc/arm-none-eabi/4.7.3/../../../../arm-none-eabi/lib/thumb/cortex-m4/float-abi-hard/fpuv4-sp-d16/libm.a(lib_a-k_sin.o)
 .bss           0x00000000        0x0 /opt/ARM/arm-linaro-eabi-4.6/lib/gcc/arm-none-eabi/4.7.3/../../../../arm-none-eabi/lib/thumb/cortex-m4/float-abi-hard/fpuv4-sp-d16/libm.a(lib_a-k_sin.o)
 .data          0x00000000        0x0 /opt/ARM/arm-linaro-eabi-4.6/lib/gcc/arm-none-eabi/4.7.3/../../../../arm-none-eabi/lib/thumb/cortex-m4/float-abi-hard/fpuv4-sp-d16/libm.a(lib_a-s_fabs.o)
 .bss           0x00000000        0x0 /opt/ARM/arm-linaro-eabi-4.6/lib/gcc/arm-none-eabi/4.7.3/../../../../arm-none-eabi/lib/thumb/cortex-m4/float-abi-hard/fpuv4-sp-d16/libm.a(lib_a-s_fabs.o)
 .data          0x00000000        0x0 /opt/ARM/arm-linaro-eabi-4.6/lib/gcc/arm-none-eabi/4.7.3/../../../../arm-none-eabi/lib/thumb/cortex-m4/float-abi-hard/fpuv4-sp-d16/libm.a(lib_a-sf_fabs.o)
 .bss           0x00000000        0x0 /opt/ARM/arm-linaro-eabi-4.6/lib/gcc/arm-none-eabi/4.7.3/../../../../arm-none-eabi/lib/thumb/cortex-m4/float-abi-hard/fpuv4-sp-d16/libm.a(lib_a-sf_fabs.o)
 .data          0x00000000        0x0 /opt/ARM/arm-linaro-eabi-4.6/lib/gcc/arm-none-eabi/4.7.3/../../../../arm-none-eabi/lib/thumb/cortex-m4/float-abi-hard/fpuv4-sp-d16/libm.a(lib_a-sf_finite.o)
 .bss           0x00000000        0x0 /opt/ARM/arm-linaro-eabi-4.6/lib/gcc/arm-none-eabi/4.7.3/../../../../arm-none-eabi/lib/thumb/cortex-m4/float-abi-hard/fpuv4-sp-d16/libm.a(lib_a-sf_finite.o)
 .data          0x00000000        0x0 /opt/ARM/arm-linaro-eabi-4.6/lib/gcc/arm-none-eabi/4.7.3/../../../../arm-none-eabi/lib/thumb/cortex-m4/float-abi-hard/fpuv4-sp-d16/libm.a(lib_a-sf_floor.o)
 .bss           0x00000000        0x0 /opt/ARM/arm-linaro-eabi-4.6/lib/gcc/arm-none-eabi/4.7.3/../../../../arm-none-eabi/lib/thumb/cortex-m4/float-abi-hard/fpuv4-sp-d16/libm.a(lib_a-sf_floor.o)
 .data          0x00000000        0x0 /opt/ARM/arm-linaro-eabi-4.6/lib/gcc/arm-none-eabi/4.7.3/../../../../arm-none-eabi/lib/thumb/cortex-m4/float-abi-hard/fpuv4-sp-d16/libm.a(lib_a-sf_fpclassify.o)
 .bss           0x00000000        0x0 /opt/ARM/arm-linaro-eabi-4.6/lib/gcc/arm-none-eabi/4.7.3/../../../../arm-none-eabi/lib/thumb/cortex-m4/float-abi-hard/fpuv4-sp-d16/libm.a(lib_a-sf_fpclassify.o)
 .data          0x00000000        0x0 /opt/ARM/arm-linaro-eabi-4.6/lib/gcc/arm-none-eabi/4.7.3/../../../../arm-none-eabi/lib/thumb/cortex-m4/float-abi-hard/fpuv4-sp-d16/libm.a(lib_a-s_finite.o)
 .bss           0x00000000        0x0 /opt/ARM/arm-linaro-eabi-4.6/lib/gcc/arm-none-eabi/4.7.3/../../../../arm-none-eabi/lib/thumb/cortex-m4/float-abi-hard/fpuv4-sp-d16/libm.a(lib_a-s_finite.o)
 .data          0x00000000        0x0 /opt/ARM/arm-linaro-eabi-4.6/lib/gcc/arm-none-eabi/4.7.3/../../../../arm-none-eabi/lib/thumb/cortex-m4/float-abi-hard/fpuv4-sp-d16/libm.a(lib_a-sf_nan.o)
 .bss           0x00000000        0x0 /opt/ARM/arm-linaro-eabi-4.6/lib/gcc/arm-none-eabi/4.7.3/../../../../arm-none-eabi/lib/thumb/cortex-m4/float-abi-hard/fpuv4-sp-d16/libm.a(lib_a-sf_nan.o)
 .data          0x00000000        0x0 /opt/ARM/arm-linaro-eabi-4.6/lib/gcc/arm-none-eabi/4.7.3/../../../../arm-none-eabi/lib/thumb/cortex-m4/float-abi-hard/fpuv4-sp-d16/libm.a(lib_a-s_fpclassify.o)
 .bss           0x00000000        0x0 /opt/ARM/arm-linaro-eabi-4.6/lib/gcc/arm-none-eabi/4.7.3/../../../../arm-none-eabi/lib/thumb/cortex-m4/float-abi-hard/fpuv4-sp-d16/libm.a(lib_a-s_fpclassify.o)
 .data          0x00000000        0x0 /opt/ARM/arm-linaro-eabi-4.6/lib/gcc/arm-none-eabi/4.7.3/../../../../arm-none-eabi/lib/thumb/cortex-m4/float-abi-hard/fpuv4-sp-d16/libm.a(lib_a-sf_scalbn.o)
 .bss           0x00000000        0x0 /opt/ARM/arm-linaro-eabi-4.6/lib/gcc/arm-none-eabi/4.7.3/../../../../arm-none-eabi/lib/thumb/cortex-m4/float-abi-hard/fpuv4-sp-d16/libm.a(lib_a-sf_scalbn.o)
 .text          0x00000000        0x0 /opt/ARM/arm-linaro-eabi-4.6/lib/gcc/arm-none-eabi/4.7.3/../../../../arm-none-eabi/lib/thumb/cortex-m4/float-abi-hard/fpuv4-sp-d16/libm.a(lib_a-s_lib_ver.o)
 .bss           0x00000000        0x0 /opt/ARM/arm-linaro-eabi-4.6/lib/gcc/arm-none-eabi/4.7.3/../../../../arm-none-eabi/lib/thumb/cortex-m4/float-abi-hard/fpuv4-sp-d16/libm.a(lib_a-s_lib_ver.o)
 .data          0x00000000        0x0 /opt/ARM/arm-linaro-eabi-4.6/lib/gcc/arm-none-eabi/4.7.3/../../../../arm-none-eabi/lib/thumb/cortex-m4/float-abi-hard/fpuv4-sp-d16/libm.a(lib_a-s_matherr.o)
 .bss           0x00000000        0x0 /opt/ARM/arm-linaro-eabi-4.6/lib/gcc/arm-none-eabi/4.7.3/../../../../arm-none-eabi/lib/thumb/cortex-m4/float-abi-hard/fpuv4-sp-d16/libm.a(lib_a-s_matherr.o)
 .data          0x00000000        0x0 /opt/ARM/arm-linaro-eabi-4.6/lib/gcc/arm-none-eabi/4.7.3/../../../../arm-none-eabi/lib/thumb/cortex-m4/float-abi-hard/fpuv4-sp-d16/libm.a(lib_a-s_nan.o)
 .bss           0x00000000        0x0 /opt/ARM/arm-linaro-eabi-4.6/lib/gcc/arm-none-eabi/4.7.3/../../../../arm-none-eabi/lib/thumb/cortex-m4/float-abi-hard/fpuv4-sp-d16/libm.a(lib_a-s_nan.o)
 .data          0x00000000        0x0 /opt/ARM/arm-linaro-eabi-4.6/lib/gcc/arm-none-eabi/4.7.3/../../../../arm-none-eabi/lib/thumb/cortex-m4/float-abi-hard/fpuv4-sp-d16/libm.a(lib_a-s_rint.o)
 .bss           0x00000000        0x0 /opt/ARM/arm-linaro-eabi-4.6/lib/gcc/arm-none-eabi/4.7.3/../../../../arm-none-eabi/lib/thumb/cortex-m4/float-abi-hard/fpuv4-sp-d16/libm.a(lib_a-s_rint.o)
 .data          0x00000000        0x0 /opt/ARM/arm-linaro-eabi-4.6/lib/gcc/arm-none-eabi/4.7.3/../../../../arm-none-eabi/lib/thumb/cortex-m4/float-abi-hard/fpuv4-sp-d16/libm.a(lib_a-s_scalbn.o)
 .bss           0x00000000        0x0 /opt/ARM/arm-linaro-eabi-4.6/lib/gcc/arm-none-eabi/4.7.3/../../../../arm-none-eabi/lib/thumb/cortex-m4/float-abi-hard/fpuv4-sp-d16/libm.a(lib_a-s_scalbn.o)
 .data          0x00000000        0x0 /opt/ARM/arm-linaro-eabi-4.6/lib/gcc/arm-none-eabi/4.7.3/../../../../arm-none-eabi/lib/thumb/cortex-m4/float-abi-hard/fpuv4-sp-d16/libm.a(lib_a-s_copysign.o)
 .bss           0x00000000        0x0 /opt/ARM/arm-linaro-eabi-4.6/lib/gcc/arm-none-eabi/4.7.3/../../../../arm-none-eabi/lib/thumb/cortex-m4/float-abi-hard/fpuv4-sp-d16/libm.a(lib_a-s_copysign.o)
 .data          0x00000000        0x0 /opt/ARM/arm-linaro-eabi-4.6/lib/gcc/arm-none-eabi/4.7.3/../../../../arm-none-eabi/lib/thumb/cortex-m4/float-abi-hard/fpuv4-sp-d16/libm.a(lib_a-sf_copysign.o)
 .bss           0x00000000        0x0 /opt/ARM/arm-linaro-eabi-4.6/lib/gcc/arm-none-eabi/4.7.3/../../../../arm-none-eabi/lib/thumb/cortex-m4/float-abi-hard/fpuv4-sp-d16/libm.a(lib_a-sf_copysign.o)
 .text          0x00000000        0xc /opt/ARM/arm-linaro-eabi-4.6/lib/gcc/arm-none-eabi/4.7.3/../../../../arm-none-eabi/lib/thumb/cortex-m4/float-abi-hard/fpuv4-sp-d16/libc.a(lib_a-atexit.o)
 .data          0x00000000        0x0 /opt/ARM/arm-linaro-eabi-4.6/lib/gcc/arm-none-eabi/4.7.3/../../../../arm-none-eabi/lib/thumb/cortex-m4/float-abi-hard/fpuv4-sp-d16/libc.a(lib_a-atexit.o)
 .bss           0x00000000        0x0 /opt/ARM/arm-linaro-eabi-4.6/lib/gcc/arm-none-eabi/4.7.3/../../../../arm-none-eabi/lib/thumb/cortex-m4/float-abi-hard/fpuv4-sp-d16/libc.a(lib_a-atexit.o)
 .debug_info    0x00000000      0x113 /opt/ARM/arm-linaro-eabi-4.6/lib/gcc/arm-none-eabi/4.7.3/../../../../arm-none-eabi/lib/thumb/cortex-m4/float-abi-hard/fpuv4-sp-d16/libc.a(lib_a-atexit.o)
 .debug_abbrev  0x00000000       0xb8 /opt/ARM/arm-linaro-eabi-4.6/lib/gcc/arm-none-eabi/4.7.3/../../../../arm-none-eabi/lib/thumb/cortex-m4/float-abi-hard/fpuv4-sp-d16/libc.a(lib_a-atexit.o)
 .debug_loc     0x00000000       0x2c /opt/ARM/arm-linaro-eabi-4.6/lib/gcc/arm-none-eabi/4.7.3/../../../../arm-none-eabi/lib/thumb/cortex-m4/float-abi-hard/fpuv4-sp-d16/libc.a(lib_a-atexit.o)
 .debug_aranges
                0x00000000       0x20 /opt/ARM/arm-linaro-eabi-4.6/lib/gcc/arm-none-eabi/4.7.3/../../../../arm-none-eabi/lib/thumb/cortex-m4/float-abi-hard/fpuv4-sp-d16/libc.a(lib_a-atexit.o)
 .debug_line    0x00000000       0xdf /opt/ARM/arm-linaro-eabi-4.6/lib/gcc/arm-none-eabi/4.7.3/../../../../arm-none-eabi/lib/thumb/cortex-m4/float-abi-hard/fpuv4-sp-d16/libc.a(lib_a-atexit.o)
 .debug_str     0x00000000      0x1bb /opt/ARM/arm-linaro-eabi-4.6/lib/gcc/arm-none-eabi/4.7.3/../../../../arm-none-eabi/lib/thumb/cortex-m4/float-abi-hard/fpuv4-sp-d16/libc.a(lib_a-atexit.o)
 .comment       0x00000000       0x3b /opt/ARM/arm-linaro-eabi-4.6/lib/gcc/arm-none-eabi/4.7.3/../../../../arm-none-eabi/lib/thumb/cortex-m4/float-abi-hard/fpuv4-sp-d16/libc.a(lib_a-atexit.o)
 .ARM.attributes
                0x00000000       0x39 /opt/ARM/arm-linaro-eabi-4.6/lib/gcc/arm-none-eabi/4.7.3/../../../../arm-none-eabi/lib/thumb/cortex-m4/float-abi-hard/fpuv4-sp-d16/libc.a(lib_a-atexit.o)
 .debug_frame   0x00000000       0x20 /opt/ARM/arm-linaro-eabi-4.6/lib/gcc/arm-none-eabi/4.7.3/../../../../arm-none-eabi/lib/thumb/cortex-m4/float-abi-hard/fpuv4-sp-d16/libc.a(lib_a-atexit.o)
 .data          0x00000000        0x0 /opt/ARM/arm-linaro-eabi-4.6/lib/gcc/arm-none-eabi/4.7.3/../../../../arm-none-eabi/lib/thumb/cortex-m4/float-abi-hard/fpuv4-sp-d16/libc.a(lib_a-errno.o)
 .bss           0x00000000        0x0 /opt/ARM/arm-linaro-eabi-4.6/lib/gcc/arm-none-eabi/4.7.3/../../../../arm-none-eabi/lib/thumb/cortex-m4/float-abi-hard/fpuv4-sp-d16/libc.a(lib_a-errno.o)
 .text          0x00000000       0x20 /opt/ARM/arm-linaro-eabi-4.6/lib/gcc/arm-none-eabi/4.7.3/../../../../arm-none-eabi/lib/thumb/cortex-m4/float-abi-hard/fpuv4-sp-d16/libc.a(lib_a-exit.o)
 .data          0x00000000        0x0 /opt/ARM/arm-linaro-eabi-4.6/lib/gcc/arm-none-eabi/4.7.3/../../../../arm-none-eabi/lib/thumb/cortex-m4/float-abi-hard/fpuv4-sp-d16/libc.a(lib_a-exit.o)
 .bss           0x00000000        0x0 /opt/ARM/arm-linaro-eabi-4.6/lib/gcc/arm-none-eabi/4.7.3/../../../../arm-none-eabi/lib/thumb/cortex-m4/float-abi-hard/fpuv4-sp-d16/libc.a(lib_a-exit.o)
 .debug_info    0x00000000      0x9cb /opt/ARM/arm-linaro-eabi-4.6/lib/gcc/arm-none-eabi/4.7.3/../../../../arm-none-eabi/lib/thumb/cortex-m4/float-abi-hard/fpuv4-sp-d16/libc.a(lib_a-exit.o)
 .debug_abbrev  0x00000000      0x1c8 /opt/ARM/arm-linaro-eabi-4.6/lib/gcc/arm-none-eabi/4.7.3/../../../../arm-none-eabi/lib/thumb/cortex-m4/float-abi-hard/fpuv4-sp-d16/libc.a(lib_a-exit.o)
 .debug_loc     0x00000000       0x3e /opt/ARM/arm-linaro-eabi-4.6/lib/gcc/arm-none-eabi/4.7.3/../../../../arm-none-eabi/lib/thumb/cortex-m4/float-abi-hard/fpuv4-sp-d16/libc.a(lib_a-exit.o)
 .debug_aranges
                0x00000000       0x20 /opt/ARM/arm-linaro-eabi-4.6/lib/gcc/arm-none-eabi/4.7.3/../../../../arm-none-eabi/lib/thumb/cortex-m4/float-abi-hard/fpuv4-sp-d16/libc.a(lib_a-exit.o)
 .debug_line    0x00000000      0x191 /opt/ARM/arm-linaro-eabi-4.6/lib/gcc/arm-none-eabi/4.7.3/../../../../arm-none-eabi/lib/thumb/cortex-m4/float-abi-hard/fpuv4-sp-d16/libc.a(lib_a-exit.o)
 .debug_str     0x00000000      0x558 /opt/ARM/arm-linaro-eabi-4.6/lib/gcc/arm-none-eabi/4.7.3/../../../../arm-none-eabi/lib/thumb/cortex-m4/float-abi-hard/fpuv4-sp-d16/libc.a(lib_a-exit.o)
 .comment       0x00000000       0x3b /opt/ARM/arm-linaro-eabi-4.6/lib/gcc/arm-none-eabi/4.7.3/../../../../arm-none-eabi/lib/thumb/cortex-m4/float-abi-hard/fpuv4-sp-d16/libc.a(lib_a-exit.o)
 .ARM.attributes
                0x00000000       0x39 /opt/ARM/arm-linaro-eabi-4.6/lib/gcc/arm-none-eabi/4.7.3/../../../../arm-none-eabi/lib/thumb/cortex-m4/float-abi-hard/fpuv4-sp-d16/libc.a(lib_a-exit.o)
 .debug_frame   0x00000000       0x28 /opt/ARM/arm-linaro-eabi-4.6/lib/gcc/arm-none-eabi/4.7.3/../../../../arm-none-eabi/lib/thumb/cortex-m4/float-abi-hard/fpuv4-sp-d16/libc.a(lib_a-exit.o)
 .text          0x00000000       0x2c /opt/ARM/arm-linaro-eabi-4.6/lib/gcc/arm-none-eabi/4.7.3/../../../../arm-none-eabi/lib/thumb/cortex-m4/float-abi-hard/fpuv4-sp-d16/libc.a(lib_a-fini.o)
 .data          0x00000000        0x0 /opt/ARM/arm-linaro-eabi-4.6/lib/gcc/arm-none-eabi/4.7.3/../../../../arm-none-eabi/lib/thumb/cortex-m4/float-abi-hard/fpuv4-sp-d16/libc.a(lib_a-fini.o)
 .bss           0x00000000        0x0 /opt/ARM/arm-linaro-eabi-4.6/lib/gcc/arm-none-eabi/4.7.3/../../../../arm-none-eabi/lib/thumb/cortex-m4/float-abi-hard/fpuv4-sp-d16/libc.a(lib_a-fini.o)
 .debug_info    0x00000000       0xfd /opt/ARM/arm-linaro-eabi-4.6/lib/gcc/arm-none-eabi/4.7.3/../../../../arm-none-eabi/lib/thumb/cortex-m4/float-abi-hard/fpuv4-sp-d16/libc.a(lib_a-fini.o)
 .debug_abbrev  0x00000000       0xbd /opt/ARM/arm-linaro-eabi-4.6/lib/gcc/arm-none-eabi/4.7.3/../../../../arm-none-eabi/lib/thumb/cortex-m4/float-abi-hard/fpuv4-sp-d16/libc.a(lib_a-fini.o)
 .debug_loc     0x00000000       0x7c /opt/ARM/arm-linaro-eabi-4.6/lib/gcc/arm-none-eabi/4.7.3/../../../../arm-none-eabi/lib/thumb/cortex-m4/float-abi-hard/fpuv4-sp-d16/libc.a(lib_a-fini.o)
 .debug_aranges
                0x00000000       0x20 /opt/ARM/arm-linaro-eabi-4.6/lib/gcc/arm-none-eabi/4.7.3/../../../../arm-none-eabi/lib/thumb/cortex-m4/float-abi-hard/fpuv4-sp-d16/libc.a(lib_a-fini.o)
 .debug_line    0x00000000       0xc6 /opt/ARM/arm-linaro-eabi-4.6/lib/gcc/arm-none-eabi/4.7.3/../../../../arm-none-eabi/lib/thumb/cortex-m4/float-abi-hard/fpuv4-sp-d16/libc.a(lib_a-fini.o)
 .debug_str     0x00000000      0x1b3 /opt/ARM/arm-linaro-eabi-4.6/lib/gcc/arm-none-eabi/4.7.3/../../../../arm-none-eabi/lib/thumb/cortex-m4/float-abi-hard/fpuv4-sp-d16/libc.a(lib_a-fini.o)
 .comment       0x00000000       0x3b /opt/ARM/arm-linaro-eabi-4.6/lib/gcc/arm-none-eabi/4.7.3/../../../../arm-none-eabi/lib/thumb/cortex-m4/float-abi-hard/fpuv4-sp-d16/libc.a(lib_a-fini.o)
 .ARM.attributes
                0x00000000       0x39 /opt/ARM/arm-linaro-eabi-4.6/lib/gcc/arm-none-eabi/4.7.3/../../../../arm-none-eabi/lib/thumb/cortex-m4/float-abi-hard/fpuv4-sp-d16/libc.a(lib_a-fini.o)
 .debug_frame   0x00000000       0x2c /opt/ARM/arm-linaro-eabi-4.6/lib/gcc/arm-none-eabi/4.7.3/../../../../arm-none-eabi/lib/thumb/cortex-m4/float-abi-hard/fpuv4-sp-d16/libc.a(lib_a-fini.o)
 .text          0x00000000       0x4c /opt/ARM/arm-linaro-eabi-4.6/lib/gcc/arm-none-eabi/4.7.3/../../../../arm-none-eabi/lib/thumb/cortex-m4/float-abi-hard/fpuv4-sp-d16/libc.a(lib_a-fprintf.o)
 .data          0x00000000        0x0 /opt/ARM/arm-linaro-eabi-4.6/lib/gcc/arm-none-eabi/4.7.3/../../../../arm-none-eabi/lib/thumb/cortex-m4/float-abi-hard/fpuv4-sp-d16/libc.a(lib_a-fprintf.o)
 .bss           0x00000000        0x0 /opt/ARM/arm-linaro-eabi-4.6/lib/gcc/arm-none-eabi/4.7.3/../../../../arm-none-eabi/lib/thumb/cortex-m4/float-abi-hard/fpuv4-sp-d16/libc.a(lib_a-fprintf.o)
 .debug_info    0x00000000      0xaae /opt/ARM/arm-linaro-eabi-4.6/lib/gcc/arm-none-eabi/4.7.3/../../../../arm-none-eabi/lib/thumb/cortex-m4/float-abi-hard/fpuv4-sp-d16/libc.a(lib_a-fprintf.o)
 .debug_abbrev  0x00000000      0x1f8 /opt/ARM/arm-linaro-eabi-4.6/lib/gcc/arm-none-eabi/4.7.3/../../../../arm-none-eabi/lib/thumb/cortex-m4/float-abi-hard/fpuv4-sp-d16/libc.a(lib_a-fprintf.o)
 .debug_loc     0x00000000       0xde /opt/ARM/arm-linaro-eabi-4.6/lib/gcc/arm-none-eabi/4.7.3/../../../../arm-none-eabi/lib/thumb/cortex-m4/float-abi-hard/fpuv4-sp-d16/libc.a(lib_a-fprintf.o)
 .debug_aranges
                0x00000000       0x20 /opt/ARM/arm-linaro-eabi-4.6/lib/gcc/arm-none-eabi/4.7.3/../../../../arm-none-eabi/lib/thumb/cortex-m4/float-abi-hard/fpuv4-sp-d16/libc.a(lib_a-fprintf.o)
 .debug_line    0x00000000      0x19d /opt/ARM/arm-linaro-eabi-4.6/lib/gcc/arm-none-eabi/4.7.3/../../../../arm-none-eabi/lib/thumb/cortex-m4/float-abi-hard/fpuv4-sp-d16/libc.a(lib_a-fprintf.o)
 .debug_str     0x00000000      0x57b /opt/ARM/arm-linaro-eabi-4.6/lib/gcc/arm-none-eabi/4.7.3/../../../../arm-none-eabi/lib/thumb/cortex-m4/float-abi-hard/fpuv4-sp-d16/libc.a(lib_a-fprintf.o)
 .comment       0x00000000       0x3b /opt/ARM/arm-linaro-eabi-4.6/lib/gcc/arm-none-eabi/4.7.3/../../../../arm-none-eabi/lib/thumb/cortex-m4/float-abi-hard/fpuv4-sp-d16/libc.a(lib_a-fprintf.o)
 .ARM.attributes
                0x00000000       0x39 /opt/ARM/arm-linaro-eabi-4.6/lib/gcc/arm-none-eabi/4.7.3/../../../../arm-none-eabi/lib/thumb/cortex-m4/float-abi-hard/fpuv4-sp-d16/libc.a(lib_a-fprintf.o)
 .debug_frame   0x00000000       0x5c /opt/ARM/arm-linaro-eabi-4.6/lib/gcc/arm-none-eabi/4.7.3/../../../../arm-none-eabi/lib/thumb/cortex-m4/float-abi-hard/fpuv4-sp-d16/libc.a(lib_a-fprintf.o)
 .text          0x00000000       0x84 /opt/ARM/arm-linaro-eabi-4.6/lib/gcc/arm-none-eabi/4.7.3/../../../../arm-none-eabi/lib/thumb/cortex-m4/float-abi-hard/fpuv4-sp-d16/libc.a(lib_a-fwrite.o)
 .data          0x00000000        0x0 /opt/ARM/arm-linaro-eabi-4.6/lib/gcc/arm-none-eabi/4.7.3/../../../../arm-none-eabi/lib/thumb/cortex-m4/float-abi-hard/fpuv4-sp-d16/libc.a(lib_a-fwrite.o)
 .bss           0x00000000        0x0 /opt/ARM/arm-linaro-eabi-4.6/lib/gcc/arm-none-eabi/4.7.3/../../../../arm-none-eabi/lib/thumb/cortex-m4/float-abi-hard/fpuv4-sp-d16/libc.a(lib_a-fwrite.o)
 .debug_info    0x00000000      0xb43 /opt/ARM/arm-linaro-eabi-4.6/lib/gcc/arm-none-eabi/4.7.3/../../../../arm-none-eabi/lib/thumb/cortex-m4/float-abi-hard/fpuv4-sp-d16/libc.a(lib_a-fwrite.o)
 .debug_abbrev  0x00000000      0x225 /opt/ARM/arm-linaro-eabi-4.6/lib/gcc/arm-none-eabi/4.7.3/../../../../arm-none-eabi/lib/thumb/cortex-m4/float-abi-hard/fpuv4-sp-d16/libc.a(lib_a-fwrite.o)
 .debug_loc     0x00000000      0x1b0 /opt/ARM/arm-linaro-eabi-4.6/lib/gcc/arm-none-eabi/4.7.3/../../../../arm-none-eabi/lib/thumb/cortex-m4/float-abi-hard/fpuv4-sp-d16/libc.a(lib_a-fwrite.o)
 .debug_aranges
                0x00000000       0x20 /opt/ARM/arm-linaro-eabi-4.6/lib/gcc/arm-none-eabi/4.7.3/../../../../arm-none-eabi/lib/thumb/cortex-m4/float-abi-hard/fpuv4-sp-d16/libc.a(lib_a-fwrite.o)
 .debug_line    0x00000000      0x1b8 /opt/ARM/arm-linaro-eabi-4.6/lib/gcc/arm-none-eabi/4.7.3/../../../../arm-none-eabi/lib/thumb/cortex-m4/float-abi-hard/fpuv4-sp-d16/libc.a(lib_a-fwrite.o)
 .debug_str     0x00000000      0x5a9 /opt/ARM/arm-linaro-eabi-4.6/lib/gcc/arm-none-eabi/4.7.3/../../../../arm-none-eabi/lib/thumb/cortex-m4/float-abi-hard/fpuv4-sp-d16/libc.a(lib_a-fwrite.o)
 .comment       0x00000000       0x3b /opt/ARM/arm-linaro-eabi-4.6/lib/gcc/arm-none-eabi/4.7.3/../../../../arm-none-eabi/lib/thumb/cortex-m4/float-abi-hard/fpuv4-sp-d16/libc.a(lib_a-fwrite.o)
 .ARM.attributes
                0x00000000       0x39 /opt/ARM/arm-linaro-eabi-4.6/lib/gcc/arm-none-eabi/4.7.3/../../../../arm-none-eabi/lib/thumb/cortex-m4/float-abi-hard/fpuv4-sp-d16/libc.a(lib_a-fwrite.o)
 .debug_frame   0x00000000       0x50 /opt/ARM/arm-linaro-eabi-4.6/lib/gcc/arm-none-eabi/4.7.3/../../../../arm-none-eabi/lib/thumb/cortex-m4/float-abi-hard/fpuv4-sp-d16/libc.a(lib_a-fwrite.o)
 .text          0x00000000        0x0 /opt/ARM/arm-linaro-eabi-4.6/lib/gcc/arm-none-eabi/4.7.3/../../../../arm-none-eabi/lib/thumb/cortex-m4/float-abi-hard/fpuv4-sp-d16/libc.a(lib_a-impure.o)
 .bss           0x00000000        0x0 /opt/ARM/arm-linaro-eabi-4.6/lib/gcc/arm-none-eabi/4.7.3/../../../../arm-none-eabi/lib/thumb/cortex-m4/float-abi-hard/fpuv4-sp-d16/libc.a(lib_a-impure.o)
 .text          0x00000000       0x54 /opt/ARM/arm-linaro-eabi-4.6/lib/gcc/arm-none-eabi/4.7.3/../../../../arm-none-eabi/lib/thumb/cortex-m4/float-abi-hard/fpuv4-sp-d16/libc.a(lib_a-init.o)
 .data          0x00000000        0x0 /opt/ARM/arm-linaro-eabi-4.6/lib/gcc/arm-none-eabi/4.7.3/../../../../arm-none-eabi/lib/thumb/cortex-m4/float-abi-hard/fpuv4-sp-d16/libc.a(lib_a-init.o)
 .bss           0x00000000        0x0 /opt/ARM/arm-linaro-eabi-4.6/lib/gcc/arm-none-eabi/4.7.3/../../../../arm-none-eabi/lib/thumb/cortex-m4/float-abi-hard/fpuv4-sp-d16/libc.a(lib_a-init.o)
 .debug_info    0x00000000      0x116 /opt/ARM/arm-linaro-eabi-4.6/lib/gcc/arm-none-eabi/4.7.3/../../../../arm-none-eabi/lib/thumb/cortex-m4/float-abi-hard/fpuv4-sp-d16/libc.a(lib_a-init.o)
 .debug_abbrev  0x00000000       0xba /opt/ARM/arm-linaro-eabi-4.6/lib/gcc/arm-none-eabi/4.7.3/../../../../arm-none-eabi/lib/thumb/cortex-m4/float-abi-hard/fpuv4-sp-d16/libc.a(lib_a-init.o)
 .debug_loc     0x00000000       0x9e /opt/ARM/arm-linaro-eabi-4.6/lib/gcc/arm-none-eabi/4.7.3/../../../../arm-none-eabi/lib/thumb/cortex-m4/float-abi-hard/fpuv4-sp-d16/libc.a(lib_a-init.o)
 .debug_aranges
                0x00000000       0x20 /opt/ARM/arm-linaro-eabi-4.6/lib/gcc/arm-none-eabi/4.7.3/../../../../arm-none-eabi/lib/thumb/cortex-m4/float-abi-hard/fpuv4-sp-d16/libc.a(lib_a-init.o)
 .debug_line    0x00000000       0xdb /opt/ARM/arm-linaro-eabi-4.6/lib/gcc/arm-none-eabi/4.7.3/../../../../arm-none-eabi/lib/thumb/cortex-m4/float-abi-hard/fpuv4-sp-d16/libc.a(lib_a-init.o)
 .debug_str     0x00000000      0x1dd /opt/ARM/arm-linaro-eabi-4.6/lib/gcc/arm-none-eabi/4.7.3/../../../../arm-none-eabi/lib/thumb/cortex-m4/float-abi-hard/fpuv4-sp-d16/libc.a(lib_a-init.o)
 .comment       0x00000000       0x3b /opt/ARM/arm-linaro-eabi-4.6/lib/gcc/arm-none-eabi/4.7.3/../../../../arm-none-eabi/lib/thumb/cortex-m4/float-abi-hard/fpuv4-sp-d16/libc.a(lib_a-init.o)
 .ARM.attributes
                0x00000000       0x39 /opt/ARM/arm-linaro-eabi-4.6/lib/gcc/arm-none-eabi/4.7.3/../../../../arm-none-eabi/lib/thumb/cortex-m4/float-abi-hard/fpuv4-sp-d16/libc.a(lib_a-init.o)
 .debug_frame   0x00000000       0x2c /opt/ARM/arm-linaro-eabi-4.6/lib/gcc/arm-none-eabi/4.7.3/../../../../arm-none-eabi/lib/thumb/cortex-m4/float-abi-hard/fpuv4-sp-d16/libc.a(lib_a-init.o)
 .data          0x00000000        0x0 /opt/ARM/arm-linaro-eabi-4.6/lib/gcc/arm-none-eabi/4.7.3/../../../../arm-none-eabi/lib/thumb/cortex-m4/float-abi-hard/fpuv4-sp-d16/libc.a(lib_a-malloc.o)
 .bss           0x00000000        0x0 /opt/ARM/arm-linaro-eabi-4.6/lib/gcc/arm-none-eabi/4.7.3/../../../../arm-none-eabi/lib/thumb/cortex-m4/float-abi-hard/fpuv4-sp-d16/libc.a(lib_a-malloc.o)
 .data          0x00000000        0x0 /opt/ARM/arm-linaro-eabi-4.6/lib/gcc/arm-none-eabi/4.7.3/../../../../arm-none-eabi/lib/thumb/cortex-m4/float-abi-hard/fpuv4-sp-d16/libc.a(lib_a-memcpy-stub.o)
 .bss           0x00000000        0x0 /opt/ARM/arm-linaro-eabi-4.6/lib/gcc/arm-none-eabi/4.7.3/../../../../arm-none-eabi/lib/thumb/cortex-m4/float-abi-hard/fpuv4-sp-d16/libc.a(lib_a-memcpy-stub.o)
 .data          0x00000000        0x0 /opt/ARM/arm-linaro-eabi-4.6/lib/gcc/arm-none-eabi/4.7.3/../../../../arm-none-eabi/lib/thumb/cortex-m4/float-abi-hard/fpuv4-sp-d16/libc.a(lib_a-memset.o)
 .bss           0x00000000        0x0 /opt/ARM/arm-linaro-eabi-4.6/lib/gcc/arm-none-eabi/4.7.3/../../../../arm-none-eabi/lib/thumb/cortex-m4/float-abi-hard/fpuv4-sp-d16/libc.a(lib_a-memset.o)
 .data          0x00000000        0x0 /opt/ARM/arm-linaro-eabi-4.6/lib/gcc/arm-none-eabi/4.7.3/../../../../arm-none-eabi/lib/thumb/cortex-m4/float-abi-hard/fpuv4-sp-d16/libc.a(lib_a-mlock.o)
 .bss           0x00000000        0x0 /opt/ARM/arm-linaro-eabi-4.6/lib/gcc/arm-none-eabi/4.7.3/../../../../arm-none-eabi/lib/thumb/cortex-m4/float-abi-hard/fpuv4-sp-d16/libc.a(lib_a-mlock.o)
 .data          0x00000000        0x0 /opt/ARM/arm-linaro-eabi-4.6/lib/gcc/arm-none-eabi/4.7.3/../../../../arm-none-eabi/lib/thumb/cortex-m4/float-abi-hard/fpuv4-sp-d16/libc.a(lib_a-printf.o)
 .bss           0x00000000        0x0 /opt/ARM/arm-linaro-eabi-4.6/lib/gcc/arm-none-eabi/4.7.3/../../../../arm-none-eabi/lib/thumb/cortex-m4/float-abi-hard/fpuv4-sp-d16/libc.a(lib_a-printf.o)
 .data          0x00000000        0x0 /opt/ARM/arm-linaro-eabi-4.6/lib/gcc/arm-none-eabi/4.7.3/../../../../arm-none-eabi/lib/thumb/cortex-m4/float-abi-hard/fpuv4-sp-d16/libc.a(lib_a-putchar.o)
 .bss           0x00000000        0x0 /opt/ARM/arm-linaro-eabi-4.6/lib/gcc/arm-none-eabi/4.7.3/../../../../arm-none-eabi/lib/thumb/cortex-m4/float-abi-hard/fpuv4-sp-d16/libc.a(lib_a-putchar.o)
 .data          0x00000000        0x0 /opt/ARM/arm-linaro-eabi-4.6/lib/gcc/arm-none-eabi/4.7.3/../../../../arm-none-eabi/lib/thumb/cortex-m4/float-abi-hard/fpuv4-sp-d16/libc.a(lib_a-putc.o)
 .bss           0x00000000        0x0 /opt/ARM/arm-linaro-eabi-4.6/lib/gcc/arm-none-eabi/4.7.3/../../../../arm-none-eabi/lib/thumb/cortex-m4/float-abi-hard/fpuv4-sp-d16/libc.a(lib_a-putc.o)
 .data          0x00000000        0x0 /opt/ARM/arm-linaro-eabi-4.6/lib/gcc/arm-none-eabi/4.7.3/../../../../arm-none-eabi/lib/thumb/cortex-m4/float-abi-hard/fpuv4-sp-d16/libc.a(lib_a-puts.o)
 .bss           0x00000000        0x0 /opt/ARM/arm-linaro-eabi-4.6/lib/gcc/arm-none-eabi/4.7.3/../../../../arm-none-eabi/lib/thumb/cortex-m4/float-abi-hard/fpuv4-sp-d16/libc.a(lib_a-puts.o)
 .data          0x00000000        0x0 /opt/ARM/arm-linaro-eabi-4.6/lib/gcc/arm-none-eabi/4.7.3/../../../../arm-none-eabi/lib/thumb/cortex-m4/float-abi-hard/fpuv4-sp-d16/libc.a(lib_a-rand.o)
 .bss           0x00000000        0x0 /opt/ARM/arm-linaro-eabi-4.6/lib/gcc/arm-none-eabi/4.7.3/../../../../arm-none-eabi/lib/thumb/cortex-m4/float-abi-hard/fpuv4-sp-d16/libc.a(lib_a-rand.o)
 .data          0x00000000        0x0 /opt/ARM/arm-linaro-eabi-4.6/lib/gcc/arm-none-eabi/4.7.3/../../../../arm-none-eabi/lib/thumb/cortex-m4/float-abi-hard/fpuv4-sp-d16/libc.a(lib_a-sbrkr.o)
 .bss           0x00000000        0x0 /opt/ARM/arm-linaro-eabi-4.6/lib/gcc/arm-none-eabi/4.7.3/../../../../arm-none-eabi/lib/thumb/cortex-m4/float-abi-hard/fpuv4-sp-d16/libc.a(lib_a-sbrkr.o)
 .data          0x00000000        0x0 /opt/ARM/arm-linaro-eabi-4.6/lib/gcc/arm-none-eabi/4.7.3/../../../../arm-none-eabi/lib/thumb/cortex-m4/float-abi-hard/fpuv4-sp-d16/libc.a(lib_a-strcmp.o)
 .bss           0x00000000        0x0 /opt/ARM/arm-linaro-eabi-4.6/lib/gcc/arm-none-eabi/4.7.3/../../../../arm-none-eabi/lib/thumb/cortex-m4/float-abi-hard/fpuv4-sp-d16/libc.a(lib_a-strcmp.o)
 .data          0x00000000        0x0 /opt/ARM/arm-linaro-eabi-4.6/lib/gcc/arm-none-eabi/4.7.3/../../../../arm-none-eabi/lib/thumb/cortex-m4/float-abi-hard/fpuv4-sp-d16/libc.a(lib_a-strlen.o)
 .bss           0x00000000        0x0 /opt/ARM/arm-linaro-eabi-4.6/lib/gcc/arm-none-eabi/4.7.3/../../../../arm-none-eabi/lib/thumb/cortex-m4/float-abi-hard/fpuv4-sp-d16/libc.a(lib_a-strlen.o)
 .data          0x00000000        0x0 /opt/ARM/arm-linaro-eabi-4.6/lib/gcc/arm-none-eabi/4.7.3/../../../../arm-none-eabi/lib/thumb/cortex-m4/float-abi-hard/fpuv4-sp-d16/libc.a(lib_a-vfprintf.o)
 .bss           0x00000000        0x0 /opt/ARM/arm-linaro-eabi-4.6/lib/gcc/arm-none-eabi/4.7.3/../../../../arm-none-eabi/lib/thumb/cortex-m4/float-abi-hard/fpuv4-sp-d16/libc.a(lib_a-vfprintf.o)
 .data          0x00000000        0x0 /opt/ARM/arm-linaro-eabi-4.6/lib/gcc/arm-none-eabi/4.7.3/../../../../arm-none-eabi/lib/thumb/cortex-m4/float-abi-hard/fpuv4-sp-d16/libc.a(lib_a-wbuf.o)
 .bss           0x00000000        0x0 /opt/ARM/arm-linaro-eabi-4.6/lib/gcc/arm-none-eabi/4.7.3/../../../../arm-none-eabi/lib/thumb/cortex-m4/float-abi-hard/fpuv4-sp-d16/libc.a(lib_a-wbuf.o)
 .data          0x00000000        0x0 /opt/ARM/arm-linaro-eabi-4.6/lib/gcc/arm-none-eabi/4.7.3/../../../../arm-none-eabi/lib/thumb/cortex-m4/float-abi-hard/fpuv4-sp-d16/libc.a(lib_a-wsetup.o)
 .bss           0x00000000        0x0 /opt/ARM/arm-linaro-eabi-4.6/lib/gcc/arm-none-eabi/4.7.3/../../../../arm-none-eabi/lib/thumb/cortex-m4/float-abi-hard/fpuv4-sp-d16/libc.a(lib_a-wsetup.o)
 .text          0x00000000       0xb0 /opt/ARM/arm-linaro-eabi-4.6/lib/gcc/arm-none-eabi/4.7.3/../../../../arm-none-eabi/lib/thumb/cortex-m4/float-abi-hard/fpuv4-sp-d16/libc.a(lib_a-__atexit.o)
 .data          0x00000000        0x0 /opt/ARM/arm-linaro-eabi-4.6/lib/gcc/arm-none-eabi/4.7.3/../../../../arm-none-eabi/lib/thumb/cortex-m4/float-abi-hard/fpuv4-sp-d16/libc.a(lib_a-__atexit.o)
 .bss           0x00000000        0x0 /opt/ARM/arm-linaro-eabi-4.6/lib/gcc/arm-none-eabi/4.7.3/../../../../arm-none-eabi/lib/thumb/cortex-m4/float-abi-hard/fpuv4-sp-d16/libc.a(lib_a-__atexit.o)
 .debug_info    0x00000000      0xa24 /opt/ARM/arm-linaro-eabi-4.6/lib/gcc/arm-none-eabi/4.7.3/../../../../arm-none-eabi/lib/thumb/cortex-m4/float-abi-hard/fpuv4-sp-d16/libc.a(lib_a-__atexit.o)
 .debug_abbrev  0x00000000      0x200 /opt/ARM/arm-linaro-eabi-4.6/lib/gcc/arm-none-eabi/4.7.3/../../../../arm-none-eabi/lib/thumb/cortex-m4/float-abi-hard/fpuv4-sp-d16/libc.a(lib_a-__atexit.o)
 .debug_loc     0x00000000      0x163 /opt/ARM/arm-linaro-eabi-4.6/lib/gcc/arm-none-eabi/4.7.3/../../../../arm-none-eabi/lib/thumb/cortex-m4/float-abi-hard/fpuv4-sp-d16/libc.a(lib_a-__atexit.o)
 .debug_aranges
                0x00000000       0x20 /opt/ARM/arm-linaro-eabi-4.6/lib/gcc/arm-none-eabi/4.7.3/../../../../arm-none-eabi/lib/thumb/cortex-m4/float-abi-hard/fpuv4-sp-d16/libc.a(lib_a-__atexit.o)
 .debug_line    0x00000000      0x1b2 /opt/ARM/arm-linaro-eabi-4.6/lib/gcc/arm-none-eabi/4.7.3/../../../../arm-none-eabi/lib/thumb/cortex-m4/float-abi-hard/fpuv4-sp-d16/libc.a(lib_a-__atexit.o)
 .debug_str     0x00000000      0x5a5 /opt/ARM/arm-linaro-eabi-4.6/lib/gcc/arm-none-eabi/4.7.3/../../../../arm-none-eabi/lib/thumb/cortex-m4/float-abi-hard/fpuv4-sp-d16/libc.a(lib_a-__atexit.o)
 .comment       0x00000000       0x3b /opt/ARM/arm-linaro-eabi-4.6/lib/gcc/arm-none-eabi/4.7.3/../../../../arm-none-eabi/lib/thumb/cortex-m4/float-abi-hard/fpuv4-sp-d16/libc.a(lib_a-__atexit.o)
 .ARM.attributes
                0x00000000       0x39 /opt/ARM/arm-linaro-eabi-4.6/lib/gcc/arm-none-eabi/4.7.3/../../../../arm-none-eabi/lib/thumb/cortex-m4/float-abi-hard/fpuv4-sp-d16/libc.a(lib_a-__atexit.o)
 .debug_frame   0x00000000       0x34 /opt/ARM/arm-linaro-eabi-4.6/lib/gcc/arm-none-eabi/4.7.3/../../../../arm-none-eabi/lib/thumb/cortex-m4/float-abi-hard/fpuv4-sp-d16/libc.a(lib_a-__atexit.o)
 .text          0x00000000       0xdc /opt/ARM/arm-linaro-eabi-4.6/lib/gcc/arm-none-eabi/4.7.3/../../../../arm-none-eabi/lib/thumb/cortex-m4/float-abi-hard/fpuv4-sp-d16/libc.a(lib_a-__call_atexit.o)
 .data          0x00000000        0x0 /opt/ARM/arm-linaro-eabi-4.6/lib/gcc/arm-none-eabi/4.7.3/../../../../arm-none-eabi/lib/thumb/cortex-m4/float-abi-hard/fpuv4-sp-d16/libc.a(lib_a-__call_atexit.o)
 .bss           0x00000000        0x0 /opt/ARM/arm-linaro-eabi-4.6/lib/gcc/arm-none-eabi/4.7.3/../../../../arm-none-eabi/lib/thumb/cortex-m4/float-abi-hard/fpuv4-sp-d16/libc.a(lib_a-__call_atexit.o)
 .debug_info    0x00000000      0xa32 /opt/ARM/arm-linaro-eabi-4.6/lib/gcc/arm-none-eabi/4.7.3/../../../../arm-none-eabi/lib/thumb/cortex-m4/float-abi-hard/fpuv4-sp-d16/libc.a(lib_a-__call_atexit.o)
 .debug_abbrev  0x00000000      0x1f2 /opt/ARM/arm-linaro-eabi-4.6/lib/gcc/arm-none-eabi/4.7.3/../../../../arm-none-eabi/lib/thumb/cortex-m4/float-abi-hard/fpuv4-sp-d16/libc.a(lib_a-__call_atexit.o)
 .debug_loc     0x00000000      0x182 /opt/ARM/arm-linaro-eabi-4.6/lib/gcc/arm-none-eabi/4.7.3/../../../../arm-none-eabi/lib/thumb/cortex-m4/float-abi-hard/fpuv4-sp-d16/libc.a(lib_a-__call_atexit.o)
 .debug_aranges
                0x00000000       0x20 /opt/ARM/arm-linaro-eabi-4.6/lib/gcc/arm-none-eabi/4.7.3/../../../../arm-none-eabi/lib/thumb/cortex-m4/float-abi-hard/fpuv4-sp-d16/libc.a(lib_a-__call_atexit.o)
 .debug_ranges  0x00000000       0x28 /opt/ARM/arm-linaro-eabi-4.6/lib/gcc/arm-none-eabi/4.7.3/../../../../arm-none-eabi/lib/thumb/cortex-m4/float-abi-hard/fpuv4-sp-d16/libc.a(lib_a-__call_atexit.o)
 .debug_line    0x00000000      0x1d2 /opt/ARM/arm-linaro-eabi-4.6/lib/gcc/arm-none-eabi/4.7.3/../../../../arm-none-eabi/lib/thumb/cortex-m4/float-abi-hard/fpuv4-sp-d16/libc.a(lib_a-__call_atexit.o)
 .debug_str     0x00000000      0x56e /opt/ARM/arm-linaro-eabi-4.6/lib/gcc/arm-none-eabi/4.7.3/../../../../arm-none-eabi/lib/thumb/cortex-m4/float-abi-hard/fpuv4-sp-d16/libc.a(lib_a-__call_atexit.o)
 .comment       0x00000000       0x3b /opt/ARM/arm-linaro-eabi-4.6/lib/gcc/arm-none-eabi/4.7.3/../../../../arm-none-eabi/lib/thumb/cortex-m4/float-abi-hard/fpuv4-sp-d16/libc.a(lib_a-__call_atexit.o)
 .ARM.attributes
                0x00000000       0x39 /opt/ARM/arm-linaro-eabi-4.6/lib/gcc/arm-none-eabi/4.7.3/../../../../arm-none-eabi/lib/thumb/cortex-m4/float-abi-hard/fpuv4-sp-d16/libc.a(lib_a-__call_atexit.o)
 .debug_frame   0x00000000       0x38 /opt/ARM/arm-linaro-eabi-4.6/lib/gcc/arm-none-eabi/4.7.3/../../../../arm-none-eabi/lib/thumb/cortex-m4/float-abi-hard/fpuv4-sp-d16/libc.a(lib_a-__call_atexit.o)
 .data          0x00000000        0x0 /opt/ARM/arm-linaro-eabi-4.6/lib/gcc/arm-none-eabi/4.7.3/../../../../arm-none-eabi/lib/thumb/cortex-m4/float-abi-hard/fpuv4-sp-d16/libc.a(lib_a-dtoa.o)
 .bss           0x00000000        0x0 /opt/ARM/arm-linaro-eabi-4.6/lib/gcc/arm-none-eabi/4.7.3/../../../../arm-none-eabi/lib/thumb/cortex-m4/float-abi-hard/fpuv4-sp-d16/libc.a(lib_a-dtoa.o)
 .data          0x00000000        0x0 /opt/ARM/arm-linaro-eabi-4.6/lib/gcc/arm-none-eabi/4.7.3/../../../../arm-none-eabi/lib/thumb/cortex-m4/float-abi-hard/fpuv4-sp-d16/libc.a(lib_a-fflush.o)
 .bss           0x00000000        0x0 /opt/ARM/arm-linaro-eabi-4.6/lib/gcc/arm-none-eabi/4.7.3/../../../../arm-none-eabi/lib/thumb/cortex-m4/float-abi-hard/fpuv4-sp-d16/libc.a(lib_a-fflush.o)
 .data          0x00000000        0x0 /opt/ARM/arm-linaro-eabi-4.6/lib/gcc/arm-none-eabi/4.7.3/../../../../arm-none-eabi/lib/thumb/cortex-m4/float-abi-hard/fpuv4-sp-d16/libc.a(lib_a-findfp.o)
 .bss           0x00000000        0x0 /opt/ARM/arm-linaro-eabi-4.6/lib/gcc/arm-none-eabi/4.7.3/../../../../arm-none-eabi/lib/thumb/cortex-m4/float-abi-hard/fpuv4-sp-d16/libc.a(lib_a-findfp.o)
 .data          0x00000000        0x0 /opt/ARM/arm-linaro-eabi-4.6/lib/gcc/arm-none-eabi/4.7.3/../../../../arm-none-eabi/lib/thumb/cortex-m4/float-abi-hard/fpuv4-sp-d16/libc.a(lib_a-freer.o)
 .bss           0x00000000        0x0 /opt/ARM/arm-linaro-eabi-4.6/lib/gcc/arm-none-eabi/4.7.3/../../../../arm-none-eabi/lib/thumb/cortex-m4/float-abi-hard/fpuv4-sp-d16/libc.a(lib_a-freer.o)
 .data          0x00000000        0x0 /opt/ARM/arm-linaro-eabi-4.6/lib/gcc/arm-none-eabi/4.7.3/../../../../arm-none-eabi/lib/thumb/cortex-m4/float-abi-hard/fpuv4-sp-d16/libc.a(lib_a-fvwrite.o)
 .bss           0x00000000        0x0 /opt/ARM/arm-linaro-eabi-4.6/lib/gcc/arm-none-eabi/4.7.3/../../../../arm-none-eabi/lib/thumb/cortex-m4/float-abi-hard/fpuv4-sp-d16/libc.a(lib_a-fvwrite.o)
 .data          0x00000000        0x0 /opt/ARM/arm-linaro-eabi-4.6/lib/gcc/arm-none-eabi/4.7.3/../../../../arm-none-eabi/lib/thumb/cortex-m4/float-abi-hard/fpuv4-sp-d16/libc.a(lib_a-fwalk.o)
 .bss           0x00000000        0x0 /opt/ARM/arm-linaro-eabi-4.6/lib/gcc/arm-none-eabi/4.7.3/../../../../arm-none-eabi/lib/thumb/cortex-m4/float-abi-hard/fpuv4-sp-d16/libc.a(lib_a-fwalk.o)
 .bss           0x00000000        0xc /opt/ARM/arm-linaro-eabi-4.6/lib/gcc/arm-none-eabi/4.7.3/../../../../arm-none-eabi/lib/thumb/cortex-m4/float-abi-hard/fpuv4-sp-d16/libc.a(lib_a-locale.o)
 .data          0x00000000        0x0 /opt/ARM/arm-linaro-eabi-4.6/lib/gcc/arm-none-eabi/4.7.3/../../../../arm-none-eabi/lib/thumb/cortex-m4/float-abi-hard/fpuv4-sp-d16/libc.a(lib_a-makebuf.o)
 .bss           0x00000000        0x0 /opt/ARM/arm-linaro-eabi-4.6/lib/gcc/arm-none-eabi/4.7.3/../../../../arm-none-eabi/lib/thumb/cortex-m4/float-abi-hard/fpuv4-sp-d16/libc.a(lib_a-makebuf.o)
 .data          0x00000000        0x0 /opt/ARM/arm-linaro-eabi-4.6/lib/gcc/arm-none-eabi/4.7.3/../../../../arm-none-eabi/lib/thumb/cortex-m4/float-abi-hard/fpuv4-sp-d16/libc.a(lib_a-memchr-stub.o)
 .bss           0x00000000        0x0 /opt/ARM/arm-linaro-eabi-4.6/lib/gcc/arm-none-eabi/4.7.3/../../../../arm-none-eabi/lib/thumb/cortex-m4/float-abi-hard/fpuv4-sp-d16/libc.a(lib_a-memchr-stub.o)
 .data          0x00000000        0x0 /opt/ARM/arm-linaro-eabi-4.6/lib/gcc/arm-none-eabi/4.7.3/../../../../arm-none-eabi/lib/thumb/cortex-m4/float-abi-hard/fpuv4-sp-d16/libc.a(lib_a-memmove.o)
 .bss           0x00000000        0x0 /opt/ARM/arm-linaro-eabi-4.6/lib/gcc/arm-none-eabi/4.7.3/../../../../arm-none-eabi/lib/thumb/cortex-m4/float-abi-hard/fpuv4-sp-d16/libc.a(lib_a-memmove.o)
 .data          0x00000000        0x0 /opt/ARM/arm-linaro-eabi-4.6/lib/gcc/arm-none-eabi/4.7.3/../../../../arm-none-eabi/lib/thumb/cortex-m4/float-abi-hard/fpuv4-sp-d16/libc.a(lib_a-mprec.o)
 .bss           0x00000000        0x0 /opt/ARM/arm-linaro-eabi-4.6/lib/gcc/arm-none-eabi/4.7.3/../../../../arm-none-eabi/lib/thumb/cortex-m4/float-abi-hard/fpuv4-sp-d16/libc.a(lib_a-mprec.o)
 .data          0x00000000        0x0 /opt/ARM/arm-linaro-eabi-4.6/lib/gcc/arm-none-eabi/4.7.3/../../../../arm-none-eabi/lib/thumb/cortex-m4/float-abi-hard/fpuv4-sp-d16/libc.a(lib_a-reallocr.o)
 .bss           0x00000000        0x0 /opt/ARM/arm-linaro-eabi-4.6/lib/gcc/arm-none-eabi/4.7.3/../../../../arm-none-eabi/lib/thumb/cortex-m4/float-abi-hard/fpuv4-sp-d16/libc.a(lib_a-reallocr.o)
 .text          0x00000000       0xec /opt/ARM/arm-linaro-eabi-4.6/lib/gcc/arm-none-eabi/4.7.3/../../../../arm-none-eabi/lib/thumb/cortex-m4/float-abi-hard/fpuv4-sp-d16/libc.a(lib_a-reent.o)
 .data          0x00000000        0x0 /opt/ARM/arm-linaro-eabi-4.6/lib/gcc/arm-none-eabi/4.7.3/../../../../arm-none-eabi/lib/thumb/cortex-m4/float-abi-hard/fpuv4-sp-d16/libc.a(lib_a-reent.o)
 .bss           0x00000000        0x0 /opt/ARM/arm-linaro-eabi-4.6/lib/gcc/arm-none-eabi/4.7.3/../../../../arm-none-eabi/lib/thumb/cortex-m4/float-abi-hard/fpuv4-sp-d16/libc.a(lib_a-reent.o)
 .data          0x00000000        0x0 /opt/ARM/arm-linaro-eabi-4.6/lib/gcc/arm-none-eabi/4.7.3/../../../../arm-none-eabi/lib/thumb/cortex-m4/float-abi-hard/fpuv4-sp-d16/libc.a(lib_a-stdio.o)
 .bss           0x00000000        0x0 /opt/ARM/arm-linaro-eabi-4.6/lib/gcc/arm-none-eabi/4.7.3/../../../../arm-none-eabi/lib/thumb/cortex-m4/float-abi-hard/fpuv4-sp-d16/libc.a(lib_a-stdio.o)
 .data          0x00000000        0x0 /opt/ARM/arm-linaro-eabi-4.6/lib/gcc/arm-none-eabi/4.7.3/../../../../arm-none-eabi/lib/thumb/cortex-m4/float-abi-hard/fpuv4-sp-d16/libc.a(lib_a-vfiprintf.o)
 .bss           0x00000000        0x0 /opt/ARM/arm-linaro-eabi-4.6/lib/gcc/arm-none-eabi/4.7.3/../../../../arm-none-eabi/lib/thumb/cortex-m4/float-abi-hard/fpuv4-sp-d16/libc.a(lib_a-vfiprintf.o)
 .data          0x00000000        0x0 /opt/ARM/arm-linaro-eabi-4.6/lib/gcc/arm-none-eabi/4.7.3/../../../../arm-none-eabi/lib/thumb/cortex-m4/float-abi-hard/fpuv4-sp-d16/libc.a(lib_a-writer.o)
 .bss           0x00000000        0x0 /opt/ARM/arm-linaro-eabi-4.6/lib/gcc/arm-none-eabi/4.7.3/../../../../arm-none-eabi/lib/thumb/cortex-m4/float-abi-hard/fpuv4-sp-d16/libc.a(lib_a-writer.o)
 .data          0x00000000        0x0 /opt/ARM/arm-linaro-eabi-4.6/lib/gcc/arm-none-eabi/4.7.3/../../../../arm-none-eabi/lib/thumb/cortex-m4/float-abi-hard/fpuv4-sp-d16/libc.a(lib_a-callocr.o)
 .bss           0x00000000        0x0 /opt/ARM/arm-linaro-eabi-4.6/lib/gcc/arm-none-eabi/4.7.3/../../../../arm-none-eabi/lib/thumb/cortex-m4/float-abi-hard/fpuv4-sp-d16/libc.a(lib_a-callocr.o)
 .data          0x00000000        0x0 /opt/ARM/arm-linaro-eabi-4.6/lib/gcc/arm-none-eabi/4.7.3/../../../../arm-none-eabi/lib/thumb/cortex-m4/float-abi-hard/fpuv4-sp-d16/libc.a(lib_a-closer.o)
 .bss           0x00000000        0x0 /opt/ARM/arm-linaro-eabi-4.6/lib/gcc/arm-none-eabi/4.7.3/../../../../arm-none-eabi/lib/thumb/cortex-m4/float-abi-hard/fpuv4-sp-d16/libc.a(lib_a-closer.o)
 .data          0x00000000        0x0 /opt/ARM/arm-linaro-eabi-4.6/lib/gcc/arm-none-eabi/4.7.3/../../../../arm-none-eabi/lib/thumb/cortex-m4/float-abi-hard/fpuv4-sp-d16/libc.a(lib_a-fclose.o)
 .bss           0x00000000        0x0 /opt/ARM/arm-linaro-eabi-4.6/lib/gcc/arm-none-eabi/4.7.3/../../../../arm-none-eabi/lib/thumb/cortex-m4/float-abi-hard/fpuv4-sp-d16/libc.a(lib_a-fclose.o)
 .data          0x00000000        0x0 /opt/ARM/arm-linaro-eabi-4.6/lib/gcc/arm-none-eabi/4.7.3/../../../../arm-none-eabi/lib/thumb/cortex-m4/float-abi-hard/fpuv4-sp-d16/libc.a(lib_a-fputwc.o)
 .bss           0x00000000        0x0 /opt/ARM/arm-linaro-eabi-4.6/lib/gcc/arm-none-eabi/4.7.3/../../../../arm-none-eabi/lib/thumb/cortex-m4/float-abi-hard/fpuv4-sp-d16/libc.a(lib_a-fputwc.o)
 .data          0x00000000        0x0 /opt/ARM/arm-linaro-eabi-4.6/lib/gcc/arm-none-eabi/4.7.3/../../../../arm-none-eabi/lib/thumb/cortex-m4/float-abi-hard/fpuv4-sp-d16/libc.a(lib_a-fstatr.o)
 .bss           0x00000000        0x0 /opt/ARM/arm-linaro-eabi-4.6/lib/gcc/arm-none-eabi/4.7.3/../../../../arm-none-eabi/lib/thumb/cortex-m4/float-abi-hard/fpuv4-sp-d16/libc.a(lib_a-fstatr.o)
 .data          0x00000000        0x0 /opt/ARM/arm-linaro-eabi-4.6/lib/gcc/arm-none-eabi/4.7.3/../../../../arm-none-eabi/lib/thumb/cortex-m4/float-abi-hard/fpuv4-sp-d16/libc.a(lib_a-isattyr.o)
 .bss           0x00000000        0x0 /opt/ARM/arm-linaro-eabi-4.6/lib/gcc/arm-none-eabi/4.7.3/../../../../arm-none-eabi/lib/thumb/cortex-m4/float-abi-hard/fpuv4-sp-d16/libc.a(lib_a-isattyr.o)
 .data          0x00000000        0x0 /opt/ARM/arm-linaro-eabi-4.6/lib/gcc/arm-none-eabi/4.7.3/../../../../arm-none-eabi/lib/thumb/cortex-m4/float-abi-hard/fpuv4-sp-d16/libc.a(lib_a-lseekr.o)
 .bss           0x00000000        0x0 /opt/ARM/arm-linaro-eabi-4.6/lib/gcc/arm-none-eabi/4.7.3/../../../../arm-none-eabi/lib/thumb/cortex-m4/float-abi-hard/fpuv4-sp-d16/libc.a(lib_a-lseekr.o)
 .data          0x00000000        0x0 /opt/ARM/arm-linaro-eabi-4.6/lib/gcc/arm-none-eabi/4.7.3/../../../../arm-none-eabi/lib/thumb/cortex-m4/float-abi-hard/fpuv4-sp-d16/libc.a(lib_a-readr.o)
 .bss           0x00000000        0x0 /opt/ARM/arm-linaro-eabi-4.6/lib/gcc/arm-none-eabi/4.7.3/../../../../arm-none-eabi/lib/thumb/cortex-m4/float-abi-hard/fpuv4-sp-d16/libc.a(lib_a-readr.o)
 .data          0x00000000        0x0 /opt/ARM/arm-linaro-eabi-4.6/lib/gcc/arm-none-eabi/4.7.3/../../../../arm-none-eabi/lib/thumb/cortex-m4/float-abi-hard/fpuv4-sp-d16/libc.a(lib_a-wcrtomb.o)
 .bss           0x00000000        0x0 /opt/ARM/arm-linaro-eabi-4.6/lib/gcc/arm-none-eabi/4.7.3/../../../../arm-none-eabi/lib/thumb/cortex-m4/float-abi-hard/fpuv4-sp-d16/libc.a(lib_a-wcrtomb.o)
 .bss           0x00000000        0x0 /opt/ARM/arm-linaro-eabi-4.6/lib/gcc/arm-none-eabi/4.7.3/../../../../arm-none-eabi/lib/thumb/cortex-m4/float-abi-hard/fpuv4-sp-d16/libc.a(lib_a-wctomb_r.o)
 .data          0x00000000        0x0 /opt/ARM/arm-linaro-eabi-4.6/lib/gcc/arm-none-eabi/4.7.3/thumb/cortex-m4/float-abi-hard/fpuv4-sp-d16/libgcc.a(_arm_addsubdf3.o)
 .bss           0x00000000        0x0 /opt/ARM/arm-linaro-eabi-4.6/lib/gcc/arm-none-eabi/4.7.3/thumb/cortex-m4/float-abi-hard/fpuv4-sp-d16/libgcc.a(_arm_addsubdf3.o)
 .data          0x00000000        0x0 /opt/ARM/arm-linaro-eabi-4.6/lib/gcc/arm-none-eabi/4.7.3/thumb/cortex-m4/float-abi-hard/fpuv4-sp-d16/libgcc.a(_arm_muldivdf3.o)
 .bss           0x00000000        0x0 /opt/ARM/arm-linaro-eabi-4.6/lib/gcc/arm-none-eabi/4.7.3/thumb/cortex-m4/float-abi-hard/fpuv4-sp-d16/libgcc.a(_arm_muldivdf3.o)
 .data          0x00000000        0x0 /opt/ARM/arm-linaro-eabi-4.6/lib/gcc/arm-none-eabi/4.7.3/thumb/cortex-m4/float-abi-hard/fpuv4-sp-d16/libgcc.a(_arm_cmpdf2.o)
 .bss           0x00000000        0x0 /opt/ARM/arm-linaro-eabi-4.6/lib/gcc/arm-none-eabi/4.7.3/thumb/cortex-m4/float-abi-hard/fpuv4-sp-d16/libgcc.a(_arm_cmpdf2.o)
 .data          0x00000000        0x0 /opt/ARM/arm-linaro-eabi-4.6/lib/gcc/arm-none-eabi/4.7.3/thumb/cortex-m4/float-abi-hard/fpuv4-sp-d16/libgcc.a(_arm_fixdfsi.o)
 .bss           0x00000000        0x0 /opt/ARM/arm-linaro-eabi-4.6/lib/gcc/arm-none-eabi/4.7.3/thumb/cortex-m4/float-abi-hard/fpuv4-sp-d16/libgcc.a(_arm_fixdfsi.o)
 .data          0x00000000        0x0 /opt/ARM/arm-linaro-eabi-4.6/lib/gcc/arm-none-eabi/4.7.3/thumb/cortex-m4/float-abi-hard/fpuv4-sp-d16/libgcc.a(_arm_truncdfsf2.o)
 .bss           0x00000000        0x0 /opt/ARM/arm-linaro-eabi-4.6/lib/gcc/arm-none-eabi/4.7.3/thumb/cortex-m4/float-abi-hard/fpuv4-sp-d16/libgcc.a(_arm_truncdfsf2.o)
 .text          0x00000000        0x0 /opt/ARM/arm-linaro-eabi-4.6/lib/gcc/arm-none-eabi/4.7.3/thumb/cortex-m4/float-abi-hard/fpuv4-sp-d16/crtend.o
 .data          0x00000000        0x0 /opt/ARM/arm-linaro-eabi-4.6/lib/gcc/arm-none-eabi/4.7.3/thumb/cortex-m4/float-abi-hard/fpuv4-sp-d16/crtend.o
 .bss           0x00000000        0x0 /opt/ARM/arm-linaro-eabi-4.6/lib/gcc/arm-none-eabi/4.7.3/thumb/cortex-m4/float-abi-hard/fpuv4-sp-d16/crtend.o
 .eh_frame      0x00000000        0x4 /opt/ARM/arm-linaro-eabi-4.6/lib/gcc/arm-none-eabi/4.7.3/thumb/cortex-m4/float-abi-hard/fpuv4-sp-d16/crtend.o
 .jcr           0x00000000        0x4 /opt/ARM/arm-linaro-eabi-4.6/lib/gcc/arm-none-eabi/4.7.3/thumb/cortex-m4/float-abi-hard/fpuv4-sp-d16/crtend.o
 .text          0x00000000        0x0 /opt/ARM/arm-linaro-eabi-4.6/lib/gcc/arm-none-eabi/4.7.3/thumb/cortex-m4/float-abi-hard/fpuv4-sp-d16/crtn.o
 .data          0x00000000        0x0 /opt/ARM/arm-linaro-eabi-4.6/lib/gcc/arm-none-eabi/4.7.3/thumb/cortex-m4/float-abi-hard/fpuv4-sp-d16/crtn.o
 .bss           0x00000000        0x0 /opt/ARM/arm-linaro-eabi-4.6/lib/gcc/arm-none-eabi/4.7.3/thumb/cortex-m4/float-abi-hard/fpuv4-sp-d16/crtn.o

Memory Configuration

Name             Origin             Length             Attributes
FLASH            0x08000000         0x00040000         xr
RAM              0x20000000         0x00020000         xrw
CCM              0x10000000         0x00010000         xrw
*default*        0x00000000         0xffffffff

Linker script and memory map

LOAD /opt/ARM/arm-linaro-eabi-4.6/lib/gcc/arm-none-eabi/4.7.3/thumb/cortex-m4/float-abi-hard/fpuv4-sp-d16/crti.o
LOAD /opt/ARM/arm-linaro-eabi-4.6/lib/gcc/arm-none-eabi/4.7.3/thumb/cortex-m4/float-abi-hard/fpuv4-sp-d16/crtbegin.o
LOAD /opt/ARM/arm-linaro-eabi-4.6/lib/gcc/arm-none-eabi/4.7.3/../../../../arm-none-eabi/lib/thumb/cortex-m4/float-abi-hard/fpuv4-sp-d16/crt0.o
LOAD startup_stm32f4xx.o
LOAD system_stm32f4xx.o
LOAD main.o
LOAD codec.o
LOAD i2s.o
LOAD stm32f4xx_tim.o
LOAD adc.o
LOAD stm32f4xx_pwr.o
LOAD stm32f4xx_gpio.o
LOAD stm32f4xx_i2c.o
LOAD stm32f4xx_rcc.o
LOAD stm32f4xx_spi.o
LOAD stm32f4xx_dma.o
LOAD stm32f4xx_adc.o
LOAD misc.o
LOAD syscalls.o
LOAD audio.o
LOAD vosim.o
LOAD mdavoc.o
LOAD mdavocoder.o
LOAD effect.o
LOAD vocode.o
LOAD klatt_phoneme.o
LOAD sam.o
LOAD render.o
LOAD LPC/lpc.o
LOAD vocoder/vocode.o
LOAD vocoder/fftn.o
LOAD vocoder/fftaux.o
LOAD scformant.o
LOAD ./rsynth-2.0-port/holmes.o
LOAD ./rsynth-2.0-port/elements.o
LOAD ./rsynth-2.0-port/nsynth.o
LOAD ./rsynth-2.0-port/say.o
LOAD ./rsynth-2.0-port/darray.o
LOAD ./rsynth-2.0-port/phtoelm.o
LOAD ./rsynth-2.0-port/def_pars.o
LOAD ./rsynth-2.0-port/trie.o
LOAD /root/CMSIS/CMSIS/Lib/GCC/libarm_cortexM4lf_math.a
LOAD /root/CMSIS/CMSIS/Lib/libdsplib_lm4f.a
LOAD /opt/ARM/arm-linaro-eabi-4.6/lib/gcc/arm-none-eabi/4.7.3/../../../../arm-none-eabi/lib/thumb/cortex-m4/float-abi-hard/fpuv4-sp-d16/libm.a
LOAD /opt/ARM/arm-linaro-eabi-4.6/lib/gcc/arm-none-eabi/4.7.3/../../../../arm-none-eabi/lib/thumb/cortex-m4/float-abi-hard/fpuv4-sp-d16/libc.a
START GROUP
LOAD /opt/ARM/arm-linaro-eabi-4.6/lib/gcc/arm-none-eabi/4.7.3/thumb/cortex-m4/float-abi-hard/fpuv4-sp-d16/libgcc.a
LOAD /opt/ARM/arm-linaro-eabi-4.6/lib/gcc/arm-none-eabi/4.7.3/../../../../arm-none-eabi/lib/thumb/cortex-m4/float-abi-hard/fpuv4-sp-d16/libc.a
END GROUP
LOAD /opt/ARM/arm-linaro-eabi-4.6/lib/gcc/arm-none-eabi/4.7.3/thumb/cortex-m4/float-abi-hard/fpuv4-sp-d16/crtend.o
LOAD /opt/ARM/arm-linaro-eabi-4.6/lib/gcc/arm-none-eabi/4.7.3/thumb/cortex-m4/float-abi-hard/fpuv4-sp-d16/crtn.o
                0x20020000                _estack = 0x20020000
                0x00000400                _Min_Heap_Size = 0x400
                0x00000800                _Min_Stack_Size = 0x800

.isr_vector     0x08000000      0x188
                0x08000000                . = ALIGN (0x4)
 *(.isr_vector)
 .isr_vector    0x08000000      0x188 startup_stm32f4xx.o
                0x08000000                g_pfnVectors
                0x08000188                . = ALIGN (0x4)

.flash          0x08000188     0xddb8
 .flash         0x08000188       0x40 main.o
                0x08000188                phoneme_prob_remap
 .flash         0x080001c8      0x12c audio.o
 .flash         0x080002f4       0x54 sam.o
                0x080002f4                flags
 .flash         0x08000348     0x1600 vocoder/fftn.o
 .flash         0x08001948     0x8000 scformant.o
                0x08001948                ftmSine
 .flash         0x08009948     0x42d8 ./rsynth-2.0-port/elements.o
                0x08009948                Elements
 .flash         0x0800dc20      0x320 ./rsynth-2.0-port/nsynth.o

.text           0x0800df40    0x18af8
                0x0800df40                . = ALIGN (0x4)
 *(.text)
 .text          0x0800df40       0xb0 /opt/ARM/arm-linaro-eabi-4.6/lib/gcc/arm-none-eabi/4.7.3/thumb/cortex-m4/float-abi-hard/fpuv4-sp-d16/crtbegin.o
 .text          0x0800dff0      0x1d8 system_stm32f4xx.o
                0x0800dff0                SystemInit
                0x0800e13c                SystemCoreClockUpdate
 .text          0x0800e1c8       0x20 main.o
                0x0800e1c8                NMI_Handler
                0x0800e1cc                HardFault_Handler
                0x0800e1d0                MemManage_Handler
                0x0800e1d4                BusFault_Handler
                0x0800e1d8                UsageFault_Handler
                0x0800e1dc                SVC_Handler
                0x0800e1e0                DebugMon_Handler
                0x0800e1e4                PendSV_Handler
 .text          0x0800e1e8      0x404 codec.o
                0x0800e1e8                Codec_TIMEOUT_UserCallback
                0x0800e1ec                Codec_WriteRegister
                0x0800e310                Codec_Reset
                0x0800e370                Codec_CtrlInterface_Init
                0x0800e3d8                Codec_AudioInterface_Init
                0x0800e42c                Codec_GPIO_Init
                0x0800e4e0                Codec_Init
 .text          0x0800e5ec      0x218 i2s.o
                0x0800e5ec                I2S_Block_Init
                0x0800e700                I2S_Block_PlayRec
                0x0800e788                DMA1_Stream3_IRQHandler
 .text          0x0800e804      0x2d4 adc.o
                0x0800e804                ADC1_Init
                0x0800e9ac                ADC1_Measure
                0x0800e9fc                ADC1_Initonce
                0x0800ea9c                DMA2_Stream0_IRQHandler
 .text          0x0800ead8      0x290 stm32f4xx_gpio.o
                0x0800ead8                GPIO_DeInit
                0x0800ec00                GPIO_Init
                0x0800ecbc                GPIO_StructInit
                0x0800ecd0                GPIO_PinLockConfig
                0x0800ecf4                GPIO_ReadInputDataBit
                0x0800ed00                GPIO_ReadInputData
                0x0800ed08                GPIO_ReadOutputDataBit
                0x0800ed14                GPIO_ReadOutputData
                0x0800ed1c                GPIO_SetBits
                0x0800ed20                GPIO_ResetBits
                0x0800ed24                GPIO_WriteBit
                0x0800ed30                GPIO_Write
                0x0800ed34                GPIO_ToggleBits
                0x0800ed3c                GPIO_PinAFConfig
 .text          0x0800ed68      0x448 stm32f4xx_i2c.o
                0x0800ed68                I2C_DeInit
                0x0800edd8                I2C_Init
                0x0800eec0                I2C_StructInit
                0x0800eee0                I2C_Cmd
                0x0800eefc                I2C_GenerateSTART
                0x0800ef18                I2C_GenerateSTOP
                0x0800ef34                I2C_Send7bitAddress
                0x0800ef48                I2C_AcknowledgeConfig
                0x0800ef64                I2C_OwnAddress2Config
                0x0800ef78                I2C_DualAddressCmd
                0x0800ef94                I2C_GeneralCallCmd
                0x0800efb0                I2C_SoftwareResetCmd
                0x0800efcc                I2C_StretchClockCmd
                0x0800efe8                I2C_FastModeDutyCycleConfig
                0x0800f004                I2C_NACKPositionConfig
                0x0800f020                I2C_SMBusAlertConfig
                0x0800f03c                I2C_ARPCmd
                0x0800f058                I2C_SendData
                0x0800f05c                I2C_ReceiveData
                0x0800f064                I2C_TransmitPEC
                0x0800f080                I2C_PECPositionConfig
                0x0800f09c                I2C_CalculatePEC
                0x0800f0b8                I2C_GetPEC
                0x0800f0c0                I2C_DMACmd
                0x0800f0dc                I2C_DMALastTransferCmd
                0x0800f0f8                I2C_ReadRegister
                0x0800f110                I2C_ITConfig
                0x0800f124                I2C_CheckEvent
                0x0800f13c                I2C_GetLastEvent
                0x0800f14c                I2C_GetFlagStatus
                0x0800f184                I2C_ClearFlag
                0x0800f18c                I2C_GetITStatus
                0x0800f1a8                I2C_ClearITPendingBit
 .text          0x0800f1b0      0x4f4 stm32f4xx_rcc.o
                0x0800f1b0                RCC_DeInit
                0x0800f1e8                RCC_HSEConfig
                0x0800f1f8                RCC_WaitForHSEStartUp
                0x0800f238                RCC_AdjustHSICalibrationValue
                0x0800f250                RCC_HSICmd
                0x0800f25c                RCC_LSEConfig
                0x0800f27c                RCC_LSICmd
                0x0800f288                RCC_PLLConfig
                0x0800f2ac                RCC_PLLCmd
                0x0800f2b8                RCC_PLLI2SConfig
                0x0800f2cc                RCC_PLLI2SCmd
                0x0800f2d8                RCC_ClockSecuritySystemCmd
                0x0800f2e4                RCC_MCO1Config
                0x0800f2fc                RCC_MCO2Config
                0x0800f314                RCC_SYSCLKConfig
                0x0800f328                RCC_GetSYSCLKSource
                0x0800f338                RCC_HCLKConfig
                0x0800f34c                RCC_PCLK1Config
                0x0800f360                RCC_PCLK2Config
                0x0800f378                RCC_GetClocksFreq
                0x0800f424                RCC_RTCCLKConfig
                0x0800f45c                RCC_RTCCLKCmd
                0x0800f468                RCC_BackupResetCmd
                0x0800f474                RCC_I2SCLKConfig
                0x0800f480                RCC_AHB1PeriphClockCmd
                0x0800f49c                RCC_AHB2PeriphClockCmd
                0x0800f4b8                RCC_AHB3PeriphClockCmd
                0x0800f4d4                RCC_APB1PeriphClockCmd
                0x0800f4f0                RCC_APB2PeriphClockCmd
                0x0800f50c                RCC_AHB1PeriphResetCmd
                0x0800f528                RCC_AHB2PeriphResetCmd
                0x0800f544                RCC_AHB3PeriphResetCmd
                0x0800f560                RCC_APB1PeriphResetCmd
                0x0800f57c                RCC_APB2PeriphResetCmd
                0x0800f598                RCC_AHB1PeriphClockLPModeCmd
                0x0800f5b4                RCC_AHB2PeriphClockLPModeCmd
                0x0800f5d0                RCC_AHB3PeriphClockLPModeCmd
                0x0800f5ec                RCC_APB1PeriphClockLPModeCmd
                0x0800f608                RCC_APB2PeriphClockLPModeCmd
                0x0800f624                RCC_ITConfig
                0x0800f640                RCC_GetFlagStatus
                0x0800f670                RCC_ClearFlag
                0x0800f684                RCC_GetITStatus
                0x0800f698                RCC_ClearITPendingBit
 .text          0x0800f6a4      0x3b4 stm32f4xx_spi.o
                0x0800f6a4                SPI_I2S_DeInit
                0x0800f714                SPI_Init
                0x0800f768                I2S_Init
                0x0800f858                SPI_StructInit
                0x0800f870                I2S_StructInit
                0x0800f880                SPI_Cmd
                0x0800f89c                I2S_Cmd
                0x0800f8b8                SPI_DataSizeConfig
                0x0800f8d0                SPI_BiDirectionalLineConfig
                0x0800f8ec                SPI_NSSInternalSoftwareConfig
                0x0800f90c                SPI_SSOutputCmd
                0x0800f928                SPI_TIModeCmd
                0x0800f944                I2S_FullDuplexConfig
                0x0800f98c                SPI_I2S_ReceiveData
                0x0800f994                SPI_I2S_SendData
                0x0800f998                SPI_CalculateCRC
                0x0800f9b4                SPI_TransmitCRC
                0x0800f9c0                SPI_GetCRC
                0x0800f9cc                SPI_GetCRCPolynomial
                0x0800f9d4                SPI_I2S_DMACmd
                0x0800f9e8                SPI_I2S_ITConfig
                0x0800fa08                SPI_I2S_GetFlagStatus
                0x0800fa14                SPI_I2S_ClearFlag
                0x0800fa1c                SPI_I2S_GetITStatus
                0x0800fa44                SPI_I2S_ClearITPendingBit
 .text          0x0800fa58      0x464 stm32f4xx_dma.o
                0x0800fa58                DMA_DeInit
                0x0800fc4c                DMA_Init
                0x0800fcb8                DMA_StructInit
                0x0800fcdc                DMA_Cmd
                0x0800fcf0                DMA_PeriphIncOffsetSizeConfig
                0x0800fd04                DMA_FlowControllerConfig
                0x0800fd18                DMA_SetCurrDataCounter
                0x0800fd1c                DMA_GetCurrDataCounter
                0x0800fd24                DMA_DoubleBufferModeConfig
                0x0800fd3c                DMA_DoubleBufferModeCmd
                0x0800fd50                DMA_MemoryTargetConfig
                0x0800fd5c                DMA_GetCurrentMemoryTarget
                0x0800fd64                DMA_GetCmdStatus
                0x0800fd6c                DMA_GetFIFOStatus
                0x0800fd74                DMA_GetFlagStatus
                0x0800fdb4                DMA_ClearFlag
                0x0800fdec                DMA_ITConfig
                0x0800fe2c                DMA_GetITStatus
                0x0800fe84                DMA_ClearITPendingBit
 .text          0x0800febc      0x3a8 stm32f4xx_adc.o
                0x0800febc                ADC_DeInit
                0x0800fed8                ADC_Init
                0x0800ff2c                ADC_StructInit
                0x0800ff40                ADC_CommonInit
                0x0800ff6c                ADC_CommonStructInit
                0x0800ff78                ADC_Cmd
                0x0800ff8c                ADC_AnalogWatchdogCmd
                0x0800ff9c                ADC_AnalogWatchdogThresholdsConfig
                0x0800ffa4                ADC_AnalogWatchdogSingleChannelConfig
                0x0800ffb0                ADC_TempSensorVrefintCmd
                0x0800ffcc                ADC_VBATCmd
                0x0800ffe8                ADC_RegularChannelConfig
                0x0801006c                ADC_SoftwareStartConv
                0x08010078                ADC_GetSoftwareStartConvStatus
                0x08010080                ADC_EOCOnEachRegularChannelCmd
                0x08010094                ADC_ContinuousModeCmd
                0x080100a8                ADC_DiscModeChannelCountConfig
                0x080100b8                ADC_DiscModeCmd
                0x080100cc                ADC_GetConversionValue
                0x080100d4                ADC_GetMultiModeConversionValue
                0x080100e0                ADC_DMACmd
                0x080100f4                ADC_DMARequestAfterLastTransferCmd
                0x08010108                ADC_MultiModeDMARequestAfterLastTransferCmd
                0x08010124                ADC_InjectedChannelConfig
                0x08010178                ADC_InjectedSequencerLengthConfig
                0x08010188                ADC_SetInjectedOffset
                0x080101a0                ADC_ExternalTrigInjectedConvConfig
                0x080101ac                ADC_ExternalTrigInjectedConvEdgeConfig
                0x080101b8                ADC_SoftwareStartInjectedConv
                0x080101c4                ADC_GetSoftwareStartInjectedConvCmdStatus
                0x080101cc                ADC_AutoInjectedConvCmd
                0x080101e0                ADC_InjectedDiscModeCmd
                0x080101f4                ADC_GetInjectedConversionValue
                0x08010210                ADC_ITConfig
                0x0801022c                ADC_GetFlagStatus
                0x08010238                ADC_ClearFlag
                0x08010240                ADC_GetITStatus
                0x0801025c                ADC_ClearITPendingBit
 .text          0x08010264       0x5c syscalls.o
                0x08010264                _write
                0x0801026c                _getpid
                0x08010270                _kill
                0x08010274                _close
                0x08010278                _fstat
                0x0801027c                _isatty
                0x08010280                _lseek
                0x08010284                _open
                0x0801028c                _read
                0x08010290                _sbrk
 .text          0x080102c0      0xae4 audio.o
                0x080102c0                Audio_Init
                0x0801064c                audio_split_stereo
                0x0801067c                I2S_RX_CallBack
 .text          0x08010da4      0x3b0 vosim.o
                0x08010da4                mapPhaseInc
                0x08010dc0                demandVOSIM_SC
                0x08010f7c                runVOSIM_SC
 .text          0x08011154      0x318 mdavoc.o
                0x08011154                mdavocal_init
                0x080111d8                mdavocal_process
 .text          0x0801146c      0x7f8 mdavocoder.o
                0x0801146c                mdaVocoder_init
                0x08011934                mdaVocodersuspend
                0x08011984                mdaVocoderprocess
 .text          0x08011c64      0xa3c effect.o
                0x08011c64                BPFSC_init
                0x08011cd4                BPFSC_process
                0x08011d2c                Formlet_init
                0x08011da4                Formlet_process
                0x08011e38                BBandPass_init
                0x08011e80                BBandPass_process
                0x08011ef8                convolve1D
                0x08011f94                bandpassx
                0x08011ff4                bandpassy
                0x08012054                dobandpass
                0x08012088                int_to_floot
                0x080120b4                floot_to_int
                0x08012100                envelopefollower
                0x08012154                doenvelopefollower
                0x08012204                doringcopy
                0x0801227c                accumbuffer
                0x080122a8                doformantfilter
                0x08012490                doformantfilterf
                0x08012624                test_effect
 .text          0x080126a0     0x1d28 vocode.o
                0x080126a0                instantiateVocoder
                0x08012898                vocoder_do_bandpasses
                0x08012f44                runVocoder
 .text          0x080143c8       0x64 klatt_phoneme.o
                0x080143c8                klatt_phoneme
 .text          0x0801442c     0x11ac sam.o
                0x0801442c                SetSpeed
                0x08014438                SetPitch
                0x08014444                SetMouth
                0x08014450                SetThroat
                0x0801445c                EnableSingmode
                0x0801446c                Init
                0x080144cc                PrepareOutput
                0x08014568                InsertBreath
                0x080146c8                CopyStress
                0x08014724                Insert
                0x0801478c                Parser1
                0x080148fc                SetPhonemeLength
                0x08014944                Code41240
                0x08014bcc                Parser2
                0x080150a4                AdjustLengths
                0x080152bc                SAMMain
                0x0801548c                Code47503
 .text          0x080155d8     0x1580 render.o
                0x080155d8                Output
                0x08015604                Read
                0x08015664                Write
                0x080156c0                RenderSample
                0x08015ca0                Render
                0x08016360                AddInflection
                0x080163f0                SetMouthThroat
                0x08016a18                trans
 .text          0x08016b58      0xa58 LPC/lpc.o
                0x08016b58                lpc_getBits
                0x08016bac                lpc_init
                0x08016c34                lpc_say
                0x08016c50                lpc_newsay
                0x08016c74                lpc_busy
                0x08016c84                lpc_update_coeffs
                0x0801726c                lpc_get_sample
                0x08017530                lpc_running
 .text          0x080175b0      0x300 vocoder/vocode.o
                0x080175b0                vocoder
 .text          0x080178b0      0x678 vocoder/fftn.o
                0x080178b0                halffft
                0x080179c4                fft
                0x08017ae4                invfft
                0x08017c04                normalize_fft
                0x08017c38                fft1n
                0x08017d84                vsqrtf
                0x08017da0                fastsqrt1
                0x08017db0                fastsqrt2
                0x08017dd0                fastsqrt3
                0x08017df4                realfftmag
 .text          0x08017f28       0xf8 scformant.o
                0x08017f28                Formant_init
                0x08017f3c                Formant_process
 .text          0x08018020      0xda0 ./rsynth-2.0-port/holmes.o
                0x08018270                holmes
                0x08018814                run_holmes
                0x08018db8                init_holmes
                0x08018dbc                term_holmes
 .text          0x08018dc0     0x23e4 ./rsynth-2.0-port/nsynth.o
                0x08019e70                show_parms
                0x08019ed4                parwave
                0x0801a760                new_parwave
                0x0801b010                parwave_init
 .text          0x0801b1a4       0x84 ./rsynth-2.0-port/say.o
                0x0801b1a4                PhonemeToWaveData
                0x0801b21c                FreePhonemeToWaveData
 .text          0x0801b228      0x128 ./rsynth-2.0-port/darray.o
                0x0801b228                darray_free
                0x0801b240                Darray_find
                0x0801b2e4                darray_delete
 .text          0x0801b350       0x50 ./rsynth-2.0-port/def_pars.o
                0x0801b350                init_synth
 .text          0x0801b3a0       0xb8 /opt/ARM/arm-linaro-eabi-4.6/lib/gcc/arm-none-eabi/4.7.3/../../../../arm-none-eabi/lib/thumb/cortex-m4/float-abi-hard/fpuv4-sp-d16/libm.a(lib_a-s_cos.o)
                0x0801b3a0                cos
 .text          0x0801b458       0x74 /opt/ARM/arm-linaro-eabi-4.6/lib/gcc/arm-none-eabi/4.7.3/../../../../arm-none-eabi/lib/thumb/cortex-m4/float-abi-hard/fpuv4-sp-d16/libm.a(lib_a-sf_cos.o)
                0x0801b458                cosf
 *fill*         0x0801b4cc        0x4 
 .text          0x0801b4d0      0x138 /opt/ARM/arm-linaro-eabi-4.6/lib/gcc/arm-none-eabi/4.7.3/../../../../arm-none-eabi/lib/thumb/cortex-m4/float-abi-hard/fpuv4-sp-d16/libm.a(lib_a-s_floor.o)
                0x0801b4d0                floor
 .text          0x0801b608       0x78 /opt/ARM/arm-linaro-eabi-4.6/lib/gcc/arm-none-eabi/4.7.3/../../../../arm-none-eabi/lib/thumb/cortex-m4/float-abi-hard/fpuv4-sp-d16/libm.a(lib_a-sf_sin.o)
                0x0801b608                sinf
 .text          0x0801b680       0x58 /opt/ARM/arm-linaro-eabi-4.6/lib/gcc/arm-none-eabi/4.7.3/../../../../arm-none-eabi/lib/thumb/cortex-m4/float-abi-hard/fpuv4-sp-d16/libm.a(lib_a-sf_tan.o)
                0x0801b680                tanf
 .text          0x0801b6d8       0xc0 /opt/ARM/arm-linaro-eabi-4.6/lib/gcc/arm-none-eabi/4.7.3/../../../../arm-none-eabi/lib/thumb/cortex-m4/float-abi-hard/fpuv4-sp-d16/libm.a(lib_a-s_sin.o)
                0x0801b6d8                sin
 .text          0x0801b798      0x110 /opt/ARM/arm-linaro-eabi-4.6/lib/gcc/arm-none-eabi/4.7.3/../../../../arm-none-eabi/lib/thumb/cortex-m4/float-abi-hard/fpuv4-sp-d16/libm.a(lib_a-w_exp.o)
                0x0801b798                exp
 .text          0x0801b8a8       0xb8 /opt/ARM/arm-linaro-eabi-4.6/lib/gcc/arm-none-eabi/4.7.3/../../../../arm-none-eabi/lib/thumb/cortex-m4/float-abi-hard/fpuv4-sp-d16/libm.a(lib_a-wf_acos.o)
                0x0801b8a8                acosf
 .text          0x0801b960      0x108 /opt/ARM/arm-linaro-eabi-4.6/lib/gcc/arm-none-eabi/4.7.3/../../../../arm-none-eabi/lib/thumb/cortex-m4/float-abi-hard/fpuv4-sp-d16/libm.a(lib_a-wf_exp.o)
                0x0801b960                expf
 .text          0x0801ba68      0x37c /opt/ARM/arm-linaro-eabi-4.6/lib/gcc/arm-none-eabi/4.7.3/../../../../arm-none-eabi/lib/thumb/cortex-m4/float-abi-hard/fpuv4-sp-d16/libm.a(lib_a-wf_pow.o)
                0x0801ba68                powf
 .text          0x0801bde4       0xb4 /opt/ARM/arm-linaro-eabi-4.6/lib/gcc/arm-none-eabi/4.7.3/../../../../arm-none-eabi/lib/thumb/cortex-m4/float-abi-hard/fpuv4-sp-d16/libm.a(lib_a-wf_sqrt.o)
                0x0801bde4                sqrtf
 .text          0x0801be98       0xfc /opt/ARM/arm-linaro-eabi-4.6/lib/gcc/arm-none-eabi/4.7.3/../../../../arm-none-eabi/lib/thumb/cortex-m4/float-abi-hard/fpuv4-sp-d16/libm.a(lib_a-w_log10.o)
                0x0801be98                log10
 *fill*         0x0801bf94        0x4 
 .text          0x0801bf98      0x328 /opt/ARM/arm-linaro-eabi-4.6/lib/gcc/arm-none-eabi/4.7.3/../../../../arm-none-eabi/lib/thumb/cortex-m4/float-abi-hard/fpuv4-sp-d16/libm.a(lib_a-e_exp.o)
                0x0801bf98                __ieee754_exp
 .text          0x0801c2c0      0x22c /opt/ARM/arm-linaro-eabi-4.6/lib/gcc/arm-none-eabi/4.7.3/../../../../arm-none-eabi/lib/thumb/cortex-m4/float-abi-hard/fpuv4-sp-d16/libm.a(lib_a-ef_acos.o)
                0x0801c2c0                __ieee754_acosf
 .text          0x0801c4ec      0x1b0 /opt/ARM/arm-linaro-eabi-4.6/lib/gcc/arm-none-eabi/4.7.3/../../../../arm-none-eabi/lib/thumb/cortex-m4/float-abi-hard/fpuv4-sp-d16/libm.a(lib_a-ef_exp.o)
                0x0801c4ec                __ieee754_expf
 .text          0x0801c69c      0x5d0 /opt/ARM/arm-linaro-eabi-4.6/lib/gcc/arm-none-eabi/4.7.3/../../../../arm-none-eabi/lib/thumb/cortex-m4/float-abi-hard/fpuv4-sp-d16/libm.a(lib_a-ef_pow.o)
                0x0801c69c                __ieee754_powf
 .text          0x0801cc6c      0x284 /opt/ARM/arm-linaro-eabi-4.6/lib/gcc/arm-none-eabi/4.7.3/../../../../arm-none-eabi/lib/thumb/cortex-m4/float-abi-hard/fpuv4-sp-d16/libm.a(lib_a-ef_rem_pio2.o)
                0x0801cc6c                __ieee754_rem_pio2f
 .text          0x0801cef0       0xa0 /opt/ARM/arm-linaro-eabi-4.6/lib/gcc/arm-none-eabi/4.7.3/../../../../arm-none-eabi/lib/thumb/cortex-m4/float-abi-hard/fpuv4-sp-d16/libm.a(lib_a-ef_sqrt.o)
                0x0801cef0                __ieee754_sqrtf
 .text          0x0801cf90      0x138 /opt/ARM/arm-linaro-eabi-4.6/lib/gcc/arm-none-eabi/4.7.3/../../../../arm-none-eabi/lib/thumb/cortex-m4/float-abi-hard/fpuv4-sp-d16/libm.a(lib_a-e_log10.o)
                0x0801cf90                __ieee754_log10
 .text          0x0801d0c8      0x418 /opt/ARM/arm-linaro-eabi-4.6/lib/gcc/arm-none-eabi/4.7.3/../../../../arm-none-eabi/lib/thumb/cortex-m4/float-abi-hard/fpuv4-sp-d16/libm.a(lib_a-e_log.o)
                0x0801d0c8                __ieee754_log
 .text          0x0801d4e0      0x458 /opt/ARM/arm-linaro-eabi-4.6/lib/gcc/arm-none-eabi/4.7.3/../../../../arm-none-eabi/lib/thumb/cortex-m4/float-abi-hard/fpuv4-sp-d16/libm.a(lib_a-e_rem_pio2.o)
                0x0801d4e0                __ieee754_rem_pio2
 .text          0x0801d938      0x278 /opt/ARM/arm-linaro-eabi-4.6/lib/gcc/arm-none-eabi/4.7.3/../../../../arm-none-eabi/lib/thumb/cortex-m4/float-abi-hard/fpuv4-sp-d16/libm.a(lib_a-k_cos.o)
                0x0801d938                __kernel_cos
 .text          0x0801dbb0      0x108 /opt/ARM/arm-linaro-eabi-4.6/lib/gcc/arm-none-eabi/4.7.3/../../../../arm-none-eabi/lib/thumb/cortex-m4/float-abi-hard/fpuv4-sp-d16/libm.a(lib_a-kf_cos.o)
                0x0801dbb0                __kernel_cosf
 .text          0x0801dcb8      0x5ac /opt/ARM/arm-linaro-eabi-4.6/lib/gcc/arm-none-eabi/4.7.3/../../../../arm-none-eabi/lib/thumb/cortex-m4/float-abi-hard/fpuv4-sp-d16/libm.a(lib_a-kf_rem_pio2.o)
                0x0801dcb8                __kernel_rem_pio2f
 .text          0x0801e264       0x90 /opt/ARM/arm-linaro-eabi-4.6/lib/gcc/arm-none-eabi/4.7.3/../../../../arm-none-eabi/lib/thumb/cortex-m4/float-abi-hard/fpuv4-sp-d16/libm.a(lib_a-kf_sin.o)
                0x0801e264                __kernel_sinf
 .text          0x0801e2f4      0x1c4 /opt/ARM/arm-linaro-eabi-4.6/lib/gcc/arm-none-eabi/4.7.3/../../../../arm-none-eabi/lib/thumb/cortex-m4/float-abi-hard/fpuv4-sp-d16/libm.a(lib_a-kf_tan.o)
                0x0801e2f4                __kernel_tanf
 .text          0x0801e4b8      0x7a8 /opt/ARM/arm-linaro-eabi-4.6/lib/gcc/arm-none-eabi/4.7.3/../../../../arm-none-eabi/lib/thumb/cortex-m4/float-abi-hard/fpuv4-sp-d16/libm.a(lib_a-k_rem_pio2.o)
                0x0801e4b8                __kernel_rem_pio2
 .text          0x0801ec60      0x180 /opt/ARM/arm-linaro-eabi-4.6/lib/gcc/arm-none-eabi/4.7.3/../../../../arm-none-eabi/lib/thumb/cortex-m4/float-abi-hard/fpuv4-sp-d16/libm.a(lib_a-k_sin.o)
                0x0801ec60                __kernel_sin
 .text          0x0801ede0       0x14 /opt/ARM/arm-linaro-eabi-4.6/lib/gcc/arm-none-eabi/4.7.3/../../../../arm-none-eabi/lib/thumb/cortex-m4/float-abi-hard/fpuv4-sp-d16/libm.a(lib_a-s_fabs.o)
                0x0801ede0                fabs
 .text          0x0801edf4       0x10 /opt/ARM/arm-linaro-eabi-4.6/lib/gcc/arm-none-eabi/4.7.3/../../../../arm-none-eabi/lib/thumb/cortex-m4/float-abi-hard/fpuv4-sp-d16/libm.a(lib_a-sf_fabs.o)
                0x0801edf4                fabsf
 .text          0x0801ee04       0x14 /opt/ARM/arm-linaro-eabi-4.6/lib/gcc/arm-none-eabi/4.7.3/../../../../arm-none-eabi/lib/thumb/cortex-m4/float-abi-hard/fpuv4-sp-d16/libm.a(lib_a-sf_finite.o)
                0x0801ee04                finitef
 .text          0x0801ee18       0x88 /opt/ARM/arm-linaro-eabi-4.6/lib/gcc/arm-none-eabi/4.7.3/../../../../arm-none-eabi/lib/thumb/cortex-m4/float-abi-hard/fpuv4-sp-d16/libm.a(lib_a-sf_floor.o)
                0x0801ee18                floorf
 .text          0x0801eea0       0x38 /opt/ARM/arm-linaro-eabi-4.6/lib/gcc/arm-none-eabi/4.7.3/../../../../arm-none-eabi/lib/thumb/cortex-m4/float-abi-hard/fpuv4-sp-d16/libm.a(lib_a-sf_fpclassify.o)
                0x0801eea0                __fpclassifyf
 .text          0x0801eed8       0x10 /opt/ARM/arm-linaro-eabi-4.6/lib/gcc/arm-none-eabi/4.7.3/../../../../arm-none-eabi/lib/thumb/cortex-m4/float-abi-hard/fpuv4-sp-d16/libm.a(lib_a-s_finite.o)
                0x0801eed8                finite
 .text          0x0801eee8        0xc /opt/ARM/arm-linaro-eabi-4.6/lib/gcc/arm-none-eabi/4.7.3/../../../../arm-none-eabi/lib/thumb/cortex-m4/float-abi-hard/fpuv4-sp-d16/libm.a(lib_a-sf_nan.o)
                0x0801eee8                nanf
 .text          0x0801eef4       0x54 /opt/ARM/arm-linaro-eabi-4.6/lib/gcc/arm-none-eabi/4.7.3/../../../../arm-none-eabi/lib/thumb/cortex-m4/float-abi-hard/fpuv4-sp-d16/libm.a(lib_a-s_fpclassify.o)
                0x0801eef4                __fpclassifyd
 .text          0x0801ef48       0xcc /opt/ARM/arm-linaro-eabi-4.6/lib/gcc/arm-none-eabi/4.7.3/../../../../arm-none-eabi/lib/thumb/cortex-m4/float-abi-hard/fpuv4-sp-d16/libm.a(lib_a-sf_scalbn.o)
                0x0801ef48                scalbnf
 .text          0x0801f014        0x4 /opt/ARM/arm-linaro-eabi-4.6/lib/gcc/arm-none-eabi/4.7.3/../../../../arm-none-eabi/lib/thumb/cortex-m4/float-abi-hard/fpuv4-sp-d16/libm.a(lib_a-s_matherr.o)
                0x0801f014                matherr
 .text          0x0801f018       0x10 /opt/ARM/arm-linaro-eabi-4.6/lib/gcc/arm-none-eabi/4.7.3/../../../../arm-none-eabi/lib/thumb/cortex-m4/float-abi-hard/fpuv4-sp-d16/libm.a(lib_a-s_nan.o)
                0x0801f018                nan
 .text          0x0801f028      0x124 /opt/ARM/arm-linaro-eabi-4.6/lib/gcc/arm-none-eabi/4.7.3/../../../../arm-none-eabi/lib/thumb/cortex-m4/float-abi-hard/fpuv4-sp-d16/libm.a(lib_a-s_rint.o)
                0x0801f028                rint
 *fill*         0x0801f14c        0x4 
 .text          0x0801f150      0x110 /opt/ARM/arm-linaro-eabi-4.6/lib/gcc/arm-none-eabi/4.7.3/../../../../arm-none-eabi/lib/thumb/cortex-m4/float-abi-hard/fpuv4-sp-d16/libm.a(lib_a-s_scalbn.o)
                0x0801f150                scalbn
 .text          0x0801f260       0x24 /opt/ARM/arm-linaro-eabi-4.6/lib/gcc/arm-none-eabi/4.7.3/../../../../arm-none-eabi/lib/thumb/cortex-m4/float-abi-hard/fpuv4-sp-d16/libm.a(lib_a-s_copysign.o)
                0x0801f260                copysign
 .text          0x0801f284       0x18 /opt/ARM/arm-linaro-eabi-4.6/lib/gcc/arm-none-eabi/4.7.3/../../../../arm-none-eabi/lib/thumb/cortex-m4/float-abi-hard/fpuv4-sp-d16/libm.a(lib_a-sf_copysign.o)
                0x0801f284                copysignf
 .text          0x0801f29c        0xc /opt/ARM/arm-linaro-eabi-4.6/lib/gcc/arm-none-eabi/4.7.3/../../../../arm-none-eabi/lib/thumb/cortex-m4/float-abi-hard/fpuv4-sp-d16/libc.a(lib_a-errno.o)
                0x0801f29c                __errno
 .text          0x0801f2a8       0x20 /opt/ARM/arm-linaro-eabi-4.6/lib/gcc/arm-none-eabi/4.7.3/../../../../arm-none-eabi/lib/thumb/cortex-m4/float-abi-hard/fpuv4-sp-d16/libc.a(lib_a-malloc.o)
                0x0801f2a8                malloc
                0x0801f2b8                free
 .text          0x0801f2c8      0x530 /opt/ARM/arm-linaro-eabi-4.6/lib/gcc/arm-none-eabi/4.7.3/../../../../arm-none-eabi/lib/thumb/cortex-m4/float-abi-hard/fpuv4-sp-d16/libc.a(lib_a-mallocr.o)
                0x0801f2c8                _malloc_r
 .text          0x0801f7f8       0x98 /opt/ARM/arm-linaro-eabi-4.6/lib/gcc/arm-none-eabi/4.7.3/../../../../arm-none-eabi/lib/thumb/cortex-m4/float-abi-hard/fpuv4-sp-d16/libc.a(lib_a-memcpy-stub.o)
                0x0801f7f8                memcpy
 .text          0x0801f890       0xa4 /opt/ARM/arm-linaro-eabi-4.6/lib/gcc/arm-none-eabi/4.7.3/../../../../arm-none-eabi/lib/thumb/cortex-m4/float-abi-hard/fpuv4-sp-d16/libc.a(lib_a-memset.o)
                0x0801f890                memset
 .text          0x0801f934        0x8 /opt/ARM/arm-linaro-eabi-4.6/lib/gcc/arm-none-eabi/4.7.3/../../../../arm-none-eabi/lib/thumb/cortex-m4/float-abi-hard/fpuv4-sp-d16/libc.a(lib_a-mlock.o)
                0x0801f934                __malloc_lock
                0x0801f938                __malloc_unlock
 .text          0x0801f93c       0x48 /opt/ARM/arm-linaro-eabi-4.6/lib/gcc/arm-none-eabi/4.7.3/../../../../arm-none-eabi/lib/thumb/cortex-m4/float-abi-hard/fpuv4-sp-d16/libc.a(lib_a-printf.o)
                0x0801f93c                _printf_r
                0x0801f95c                printf
 .text          0x0801f984       0x1c /opt/ARM/arm-linaro-eabi-4.6/lib/gcc/arm-none-eabi/4.7.3/../../../../arm-none-eabi/lib/thumb/cortex-m4/float-abi-hard/fpuv4-sp-d16/libc.a(lib_a-putchar.o)
                0x0801f984                _putchar_r
                0x0801f98c                putchar
 .text          0x0801f9a0       0xc8 /opt/ARM/arm-linaro-eabi-4.6/lib/gcc/arm-none-eabi/4.7.3/../../../../arm-none-eabi/lib/thumb/cortex-m4/float-abi-hard/fpuv4-sp-d16/libc.a(lib_a-putc.o)
                0x0801f9a0                _putc_r
                0x0801fa00                putc
 .text          0x0801fa68       0x74 /opt/ARM/arm-linaro-eabi-4.6/lib/gcc/arm-none-eabi/4.7.3/../../../../arm-none-eabi/lib/thumb/cortex-m4/float-abi-hard/fpuv4-sp-d16/libc.a(lib_a-puts.o)
                0x0801fa68                _puts_r
                0x0801facc                puts
 .text          0x0801fadc       0x5c /opt/ARM/arm-linaro-eabi-4.6/lib/gcc/arm-none-eabi/4.7.3/../../../../arm-none-eabi/lib/thumb/cortex-m4/float-abi-hard/fpuv4-sp-d16/libc.a(lib_a-rand.o)
                0x0801fadc                srand
                0x0801faf4                rand
 .text          0x0801fb38       0x24 /opt/ARM/arm-linaro-eabi-4.6/lib/gcc/arm-none-eabi/4.7.3/../../../../arm-none-eabi/lib/thumb/cortex-m4/float-abi-hard/fpuv4-sp-d16/libc.a(lib_a-sbrkr.o)
                0x0801fb38                _sbrk_r
 .text          0x0801fb5c      0x248 /opt/ARM/arm-linaro-eabi-4.6/lib/gcc/arm-none-eabi/4.7.3/../../../../arm-none-eabi/lib/thumb/cortex-m4/float-abi-hard/fpuv4-sp-d16/libc.a(lib_a-strcmp.o)
                0x0801fb5c                strcmp
 .text          0x0801fda4       0x60 /opt/ARM/arm-linaro-eabi-4.6/lib/gcc/arm-none-eabi/4.7.3/../../../../arm-none-eabi/lib/thumb/cortex-m4/float-abi-hard/fpuv4-sp-d16/libc.a(lib_a-strlen.o)
                0x0801fda4                strlen
 .text          0x0801fe04     0x13d0 /opt/ARM/arm-linaro-eabi-4.6/lib/gcc/arm-none-eabi/4.7.3/../../../../arm-none-eabi/lib/thumb/cortex-m4/float-abi-hard/fpuv4-sp-d16/libc.a(lib_a-vfprintf.o)
                0x0801fe04                _vfprintf_r
                0x080211b8                vfprintf
 .text          0x080211d4       0xb4 /opt/ARM/arm-linaro-eabi-4.6/lib/gcc/arm-none-eabi/4.7.3/../../../../arm-none-eabi/lib/thumb/cortex-m4/float-abi-hard/fpuv4-sp-d16/libc.a(lib_a-wbuf.o)
                0x080211d4                __swbuf_r
                0x08021274                __swbuf
 .text          0x08021288       0xc4 /opt/ARM/arm-linaro-eabi-4.6/lib/gcc/arm-none-eabi/4.7.3/../../../../arm-none-eabi/lib/thumb/cortex-m4/float-abi-hard/fpuv4-sp-d16/libc.a(lib_a-wsetup.o)
                0x08021288                __swsetup_r
 *fill*         0x0802134c        0x4 
 .text          0x08021350     0x1060 /opt/ARM/arm-linaro-eabi-4.6/lib/gcc/arm-none-eabi/4.7.3/../../../../arm-none-eabi/lib/thumb/cortex-m4/float-abi-hard/fpuv4-sp-d16/libc.a(lib_a-dtoa.o)
                0x08021480                _dtoa_r
 .text          0x080223b0      0x1a0 /opt/ARM/arm-linaro-eabi-4.6/lib/gcc/arm-none-eabi/4.7.3/../../../../arm-none-eabi/lib/thumb/cortex-m4/float-abi-hard/fpuv4-sp-d16/libc.a(lib_a-fflush.o)
                0x080223b0                __sflush_r
                0x08022500                _fflush_r
                0x0802252c                fflush
 .text          0x08022550      0x1b0 /opt/ARM/arm-linaro-eabi-4.6/lib/gcc/arm-none-eabi/4.7.3/../../../../arm-none-eabi/lib/thumb/cortex-m4/float-abi-hard/fpuv4-sp-d16/libc.a(lib_a-findfp.o)
                0x08022558                _cleanup_r
                0x080225b4                __sfmoreglue
                0x080225e0                _cleanup
                0x080225f0                __sinit
                0x08022634                __sfp
                0x080226c0                __sfp_lock_acquire
                0x080226c4                __sfp_lock_release
                0x080226c8                __sinit_lock_acquire
                0x080226cc                __sinit_lock_release
                0x080226d0                __fp_lock_all
                0x080226e8                __fp_unlock_all
 .text          0x08022700      0x228 /opt/ARM/arm-linaro-eabi-4.6/lib/gcc/arm-none-eabi/4.7.3/../../../../arm-none-eabi/lib/thumb/cortex-m4/float-abi-hard/fpuv4-sp-d16/libc.a(lib_a-freer.o)
                0x08022700                _malloc_trim_r
                0x08022798                _free_r
 .text          0x08022928      0x310 /opt/ARM/arm-linaro-eabi-4.6/lib/gcc/arm-none-eabi/4.7.3/../../../../arm-none-eabi/lib/thumb/cortex-m4/float-abi-hard/fpuv4-sp-d16/libc.a(lib_a-fvwrite.o)
                0x08022928                __sfvwrite_r
 .text          0x08022c38       0x9c /opt/ARM/arm-linaro-eabi-4.6/lib/gcc/arm-none-eabi/4.7.3/../../../../arm-none-eabi/lib/thumb/cortex-m4/float-abi-hard/fpuv4-sp-d16/libc.a(lib_a-fwalk.o)
                0x08022c38                _fwalk
                0x08022c84                _fwalk_reent
 .text          0x08022cd4       0x88 /opt/ARM/arm-linaro-eabi-4.6/lib/gcc/arm-none-eabi/4.7.3/../../../../arm-none-eabi/lib/thumb/cortex-m4/float-abi-hard/fpuv4-sp-d16/libc.a(lib_a-locale.o)
                0x08022cd4                _setlocale_r
                0x08022d14                __locale_charset
                0x08022d20                __locale_mb_cur_max
                0x08022d2c                __locale_msgcharset
                0x08022d34                __locale_cjk_lang
                0x08022d38                _localeconv_r
                0x08022d40                setlocale
                0x08022d54                localeconv
 .text          0x08022d5c       0xd8 /opt/ARM/arm-linaro-eabi-4.6/lib/gcc/arm-none-eabi/4.7.3/../../../../arm-none-eabi/lib/thumb/cortex-m4/float-abi-hard/fpuv4-sp-d16/libc.a(lib_a-makebuf.o)
                0x08022d5c                __smakebuf_r
 .text          0x08022e34       0x84 /opt/ARM/arm-linaro-eabi-4.6/lib/gcc/arm-none-eabi/4.7.3/../../../../arm-none-eabi/lib/thumb/cortex-m4/float-abi-hard/fpuv4-sp-d16/libc.a(lib_a-memchr-stub.o)
                0x08022e34                memchr
 .text          0x08022eb8       0xc0 /opt/ARM/arm-linaro-eabi-4.6/lib/gcc/arm-none-eabi/4.7.3/../../../../arm-none-eabi/lib/thumb/cortex-m4/float-abi-hard/fpuv4-sp-d16/libc.a(lib_a-memmove.o)
                0x08022eb8                memmove
 .text          0x08022f78      0x8f4 /opt/ARM/arm-linaro-eabi-4.6/lib/gcc/arm-none-eabi/4.7.3/../../../../arm-none-eabi/lib/thumb/cortex-m4/float-abi-hard/fpuv4-sp-d16/libc.a(lib_a-mprec.o)
                0x08022f78                _Balloc
                0x08022fc4                _Bfree
                0x08022fd8                __multadd
                0x08023070                __s2b
                0x0802310c                __hi0bits
                0x08023148                __lo0bits
                0x080231a4                __i2b
                0x080231b8                __multiply
                0x08023304                __pow5mult
                0x08023398                __lshift
                0x08023458                __mcmp
                0x08023494                __mdiff
                0x08023574                __ulp
                0x080235c4                __b2d
                0x0802367c                __d2b
                0x0802372c                __ratio
                0x08023790                _mprec_log10
                0x080237cc                __copybits
                0x08023814                __any_on
 .text          0x0802386c      0x3d4 /opt/ARM/arm-linaro-eabi-4.6/lib/gcc/arm-none-eabi/4.7.3/../../../../arm-none-eabi/lib/thumb/cortex-m4/float-abi-hard/fpuv4-sp-d16/libc.a(lib_a-reallocr.o)
                0x0802386c                _realloc_r
 .text          0x08023c40       0x88 /opt/ARM/arm-linaro-eabi-4.6/lib/gcc/arm-none-eabi/4.7.3/../../../../arm-none-eabi/lib/thumb/cortex-m4/float-abi-hard/fpuv4-sp-d16/libc.a(lib_a-stdio.o)
                0x08023c40                __sread
                0x08023c64                __seofread
                0x08023c68                __swrite
                0x08023ca0                __sseek
                0x08023cc0                __sclose
 .text          0x08023cc8      0xb38 /opt/ARM/arm-linaro-eabi-4.6/lib/gcc/arm-none-eabi/4.7.3/../../../../arm-none-eabi/lib/thumb/cortex-m4/float-abi-hard/fpuv4-sp-d16/libc.a(lib_a-vfiprintf.o)
                0x08023cc8                __sprint_r
                0x08023d48                _vfiprintf_r
                0x080247e4                vfiprintf
 .text          0x08024800       0x28 /opt/ARM/arm-linaro-eabi-4.6/lib/gcc/arm-none-eabi/4.7.3/../../../../arm-none-eabi/lib/thumb/cortex-m4/float-abi-hard/fpuv4-sp-d16/libc.a(lib_a-writer.o)
                0x08024800                _write_r
 .text          0x08024828       0x60 /opt/ARM/arm-linaro-eabi-4.6/lib/gcc/arm-none-eabi/4.7.3/../../../../arm-none-eabi/lib/thumb/cortex-m4/float-abi-hard/fpuv4-sp-d16/libc.a(lib_a-callocr.o)
                0x08024828                _calloc_r
 .text          0x08024888       0x24 /opt/ARM/arm-linaro-eabi-4.6/lib/gcc/arm-none-eabi/4.7.3/../../../../arm-none-eabi/lib/thumb/cortex-m4/float-abi-hard/fpuv4-sp-d16/libc.a(lib_a-closer.o)
                0x08024888                _close_r
 .text          0x080248ac       0x94 /opt/ARM/arm-linaro-eabi-4.6/lib/gcc/arm-none-eabi/4.7.3/../../../../arm-none-eabi/lib/thumb/cortex-m4/float-abi-hard/fpuv4-sp-d16/libc.a(lib_a-fclose.o)
                0x080248ac                _fclose_r
                0x08024930                fclose
 .text          0x08024940       0xfc /opt/ARM/arm-linaro-eabi-4.6/lib/gcc/arm-none-eabi/4.7.3/../../../../arm-none-eabi/lib/thumb/cortex-m4/float-abi-hard/fpuv4-sp-d16/libc.a(lib_a-fputwc.o)
                0x08024940                _fputwc_r
                0x08024a10                fputwc
 .text          0x08024a3c       0x28 /opt/ARM/arm-linaro-eabi-4.6/lib/gcc/arm-none-eabi/4.7.3/../../../../arm-none-eabi/lib/thumb/cortex-m4/float-abi-hard/fpuv4-sp-d16/libc.a(lib_a-fstatr.o)
                0x08024a3c                _fstat_r
 .text          0x08024a64       0x24 /opt/ARM/arm-linaro-eabi-4.6/lib/gcc/arm-none-eabi/4.7.3/../../../../arm-none-eabi/lib/thumb/cortex-m4/float-abi-hard/fpuv4-sp-d16/libc.a(lib_a-isattyr.o)
                0x08024a64                _isatty_r
 .text          0x08024a88       0x28 /opt/ARM/arm-linaro-eabi-4.6/lib/gcc/arm-none-eabi/4.7.3/../../../../arm-none-eabi/lib/thumb/cortex-m4/float-abi-hard/fpuv4-sp-d16/libc.a(lib_a-lseekr.o)
                0x08024a88                _lseek_r
 .text          0x08024ab0       0x28 /opt/ARM/arm-linaro-eabi-4.6/lib/gcc/arm-none-eabi/4.7.3/../../../../arm-none-eabi/lib/thumb/cortex-m4/float-abi-hard/fpuv4-sp-d16/libc.a(lib_a-readr.o)
                0x08024ab0                _read_r
 .text          0x08024ad8       0xb0 /opt/ARM/arm-linaro-eabi-4.6/lib/gcc/arm-none-eabi/4.7.3/../../../../arm-none-eabi/lib/thumb/cortex-m4/float-abi-hard/fpuv4-sp-d16/libc.a(lib_a-wcrtomb.o)
                0x08024ad8                _wcrtomb_r
                0x08024b28                wcrtomb
 .text          0x08024b88       0x4c /opt/ARM/arm-linaro-eabi-4.6/lib/gcc/arm-none-eabi/4.7.3/../../../../arm-none-eabi/lib/thumb/cortex-m4/float-abi-hard/fpuv4-sp-d16/libc.a(lib_a-wctomb_r.o)
                0x08024b88                __ascii_wctomb
                0x08024ba4                _wctomb_r
 .text          0x08024bd4      0x370 /opt/ARM/arm-linaro-eabi-4.6/lib/gcc/arm-none-eabi/4.7.3/thumb/cortex-m4/float-abi-hard/fpuv4-sp-d16/libgcc.a(_arm_addsubdf3.o)
                0x08024bd4                __aeabi_drsub
                0x08024bdc                __aeabi_dsub
                0x08024bdc                __subdf3
                0x08024be0                __adddf3
                0x08024be0                __aeabi_dadd
                0x08024e58                __aeabi_ui2d
                0x08024e58                __floatunsidf
                0x08024e78                __floatsidf
                0x08024e78                __aeabi_i2d
                0x08024e9c                __extendsfdf2
                0x08024e9c                __aeabi_f2d
                0x08024ed8                __aeabi_ul2d
                0x08024ed8                __floatundidf
                0x08024ee8                __floatdidf
                0x08024ee8                __aeabi_l2d
 .text          0x08024f44      0x424 /opt/ARM/arm-linaro-eabi-4.6/lib/gcc/arm-none-eabi/4.7.3/thumb/cortex-m4/float-abi-hard/fpuv4-sp-d16/libgcc.a(_arm_muldivdf3.o)
                0x08024f44                __aeabi_dmul
                0x08024f44                __muldf3
                0x08025198                __aeabi_ddiv
                0x08025198                __divdf3
 .text          0x08025368      0x110 /opt/ARM/arm-linaro-eabi-4.6/lib/gcc/arm-none-eabi/4.7.3/thumb/cortex-m4/float-abi-hard/fpuv4-sp-d16/libgcc.a(_arm_cmpdf2.o)
                0x08025368                __gtdf2
                0x08025368                __gedf2
                0x08025370                __ltdf2
                0x08025370                __ledf2
                0x08025378                __cmpdf2
                0x08025378                __eqdf2
                0x08025378                __nedf2
                0x080253f4                __aeabi_cdrcmple
                0x08025404                __aeabi_cdcmple
                0x08025404                __aeabi_cdcmpeq
                0x08025414                __aeabi_dcmpeq
                0x08025428                __aeabi_dcmplt
                0x0802543c                __aeabi_dcmple
                0x08025450                __aeabi_dcmpge
                0x08025464                __aeabi_dcmpgt
 .text          0x08025478       0x50 /opt/ARM/arm-linaro-eabi-4.6/lib/gcc/arm-none-eabi/4.7.3/thumb/cortex-m4/float-abi-hard/fpuv4-sp-d16/libgcc.a(_arm_fixdfsi.o)
                0x08025478                __fixdfsi
                0x08025478                __aeabi_d2iz
 .text          0x080254c8       0xa0 /opt/ARM/arm-linaro-eabi-4.6/lib/gcc/arm-none-eabi/4.7.3/thumb/cortex-m4/float-abi-hard/fpuv4-sp-d16/libgcc.a(_arm_truncdfsf2.o)
                0x080254c8                __aeabi_d2f
                0x080254c8                __truncdfsf2
 *(.text*)
 .text.Reset_Handler
                0x08025568       0x4c startup_stm32f4xx.o
                0x08025568                Reset_Handler
 .text.Default_Handler
                0x080255b4        0x4 startup_stm32f4xx.o
                0x080255b4                RTC_Alarm_IRQHandler
                0x080255b4                HASH_RNG_IRQHandler
                0x080255b4                EXTI2_IRQHandler
                0x080255b4                TIM8_CC_IRQHandler
                0x080255b4                TIM1_CC_IRQHandler
                0x080255b4                DMA2_Stream5_IRQHandler
                0x080255b4                DMA1_Stream5_IRQHandler
                0x080255b4                SysTick_Handler
                0x080255b4                PVD_IRQHandler
                0x080255b4                SDIO_IRQHandler
                0x080255b4                TAMP_STAMP_IRQHandler
                0x080255b4                CAN2_RX1_IRQHandler
                0x080255b4                EXTI3_IRQHandler
                0x080255b4                TIM8_TRG_COM_TIM14_IRQHandler
                0x080255b4                TIM1_UP_TIM10_IRQHandler
                0x080255b4                TIM8_UP_TIM13_IRQHandler
                0x080255b4                I2C3_ER_IRQHandler
                0x080255b4                EXTI0_IRQHandler
                0x080255b4                I2C2_EV_IRQHandler
                0x080255b4                DMA1_Stream2_IRQHandler
                0x080255b4                CAN1_RX0_IRQHandler
                0x080255b4                FPU_IRQHandler
                0x080255b4                OTG_HS_WKUP_IRQHandler
                0x080255b4                CAN2_SCE_IRQHandler
                0x080255b4                DMA2_Stream2_IRQHandler
                0x080255b4                SPI1_IRQHandler
                0x080255b4                TIM6_DAC_IRQHandler
                0x080255b4                TIM1_BRK_TIM9_IRQHandler
                0x080255b4                DCMI_IRQHandler
                0x080255b4                CAN2_RX0_IRQHandler
                0x080255b4                DMA2_Stream3_IRQHandler
                0x080255b4                USART6_IRQHandler
                0x080255b4                USART3_IRQHandler
                0x080255b4                CRYP_IRQHandler
                0x080255b4                CAN1_RX1_IRQHandler
                0x080255b4                UART5_IRQHandler
                0x080255b4                TIM4_IRQHandler
                0x080255b4                I2C1_EV_IRQHandler
                0x080255b4                DMA1_Stream6_IRQHandler
                0x080255b4                DMA1_Stream1_IRQHandler
                0x080255b4                UART4_IRQHandler
                0x080255b4                TIM3_IRQHandler
                0x080255b4                RCC_IRQHandler
                0x080255b4                TIM8_BRK_TIM12_IRQHandler
                0x080255b4                Default_Handler
                0x080255b4                EXTI15_10_IRQHandler
                0x080255b4                ADC_IRQHandler
                0x080255b4                DMA1_Stream7_IRQHandler
                0x080255b4                TIM7_IRQHandler
                0x080255b4                CAN2_TX_IRQHandler
                0x080255b4                TIM5_IRQHandler
                0x080255b4                DMA2_Stream7_IRQHandler
                0x080255b4                I2C3_EV_IRQHandler
                0x080255b4                EXTI9_5_IRQHandler
                0x080255b4                RTC_WKUP_IRQHandler
                0x080255b4                ETH_WKUP_IRQHandler
                0x080255b4                SPI2_IRQHandler
                0x080255b4                OTG_HS_EP1_IN_IRQHandler
                0x080255b4                DMA1_Stream0_IRQHandler
                0x080255b4                CAN1_TX_IRQHandler
                0x080255b4                EXTI4_IRQHandler
                0x080255b4                FSMC_IRQHandler
                0x080255b4                ETH_IRQHandler
                0x080255b4                OTG_HS_EP1_OUT_IRQHandler
                0x080255b4                WWDG_IRQHandler
                0x080255b4                TIM2_IRQHandler
                0x080255b4                OTG_FS_WKUP_IRQHandler
                0x080255b4                TIM1_TRG_COM_TIM11_IRQHandler
                0x080255b4                OTG_HS_IRQHandler
                0x080255b4                EXTI1_IRQHandler
                0x080255b4                USART2_IRQHandler
                0x080255b4                I2C2_ER_IRQHandler
                0x080255b4                DMA2_Stream1_IRQHandler
                0x080255b4                CAN1_SCE_IRQHandler
                0x080255b4                FLASH_IRQHandler
                0x080255b4                DMA2_Stream4_IRQHandler
                0x080255b4                USART1_IRQHandler
                0x080255b4                OTG_FS_IRQHandler
                0x080255b4                SPI3_IRQHandler
                0x080255b4                DMA1_Stream4_IRQHandler
                0x080255b4                I2C1_ER_IRQHandler
                0x080255b4                DMA2_Stream6_IRQHandler
 .text.startup  0x080255b8      0x170 main.o
                0x080255b8                main
 .text.arm_biquad_cascade_df1_init_f32
                0x08025728       0x18 /root/CMSIS/CMSIS/Lib/GCC/libarm_cortexM4lf_math.a(arm_biquad_cascade_df1_init_f32.o)
                0x08025728                arm_biquad_cascade_df1_init_f32
 .text.arm_biquad_cascade_df1_f32
                0x08025740      0x1a0 /root/CMSIS/CMSIS/Lib/GCC/libarm_cortexM4lf_math.a(arm_biquad_cascade_df1_f32.o)
                0x08025740                arm_biquad_cascade_df1_f32
 *(.rodata)
 .rodata        0x080258e0       0x40 vocode.o
                0x080258e0                decay_table
 .rodata        0x08025920      0x1a4 sam.o
                0x08025920                flags2
                0x08025970                signInputTable1
                0x080259c4                signInputTable2
                0x08025a18                phonemeLengthTable
                0x08025a68                phonemeStressedLengthTable
                0x08025ab8                stressInputTable
 .rodata        0x08025ac4       0x50 render.o
 .rodata        0x08025b14      0x164 LPC/lpc.o
                0x08025b14                tmsEnergy
                0x08025b24                tmsPeriod
                0x08025b64                tmsK1
                0x08025ba4                tmsK2
                0x08025be4                tmsK3
                0x08025bf4                tmsK4
                0x08025c04                tmsK5
                0x08025c14                tmsK6
                0x08025c24                tmsK7
                0x08025c34                tmsK8
                0x08025c3c                tmsK9
                0x08025c44                tmsK10
                0x08025c4c                chirp
 .rodata        0x08025c78        0xc ./rsynth-2.0-port/nsynth.o
 *fill*         0x08025c84        0x4 
 .rodata        0x08025c88       0x30 /opt/ARM/arm-linaro-eabi-4.6/lib/gcc/arm-none-eabi/4.7.3/../../../../arm-none-eabi/lib/thumb/cortex-m4/float-abi-hard/fpuv4-sp-d16/libm.a(lib_a-e_exp.o)
 .rodata        0x08025cb8       0x18 /opt/ARM/arm-linaro-eabi-4.6/lib/gcc/arm-none-eabi/4.7.3/../../../../arm-none-eabi/lib/thumb/cortex-m4/float-abi-hard/fpuv4-sp-d16/libm.a(lib_a-ef_exp.o)
 .rodata        0x08025cd0       0x18 /opt/ARM/arm-linaro-eabi-4.6/lib/gcc/arm-none-eabi/4.7.3/../../../../arm-none-eabi/lib/thumb/cortex-m4/float-abi-hard/fpuv4-sp-d16/libm.a(lib_a-ef_pow.o)
 .rodata        0x08025ce8      0x398 /opt/ARM/arm-linaro-eabi-4.6/lib/gcc/arm-none-eabi/4.7.3/../../../../arm-none-eabi/lib/thumb/cortex-m4/float-abi-hard/fpuv4-sp-d16/libm.a(lib_a-ef_rem_pio2.o)
 .rodata        0x08026080      0x188 /opt/ARM/arm-linaro-eabi-4.6/lib/gcc/arm-none-eabi/4.7.3/../../../../arm-none-eabi/lib/thumb/cortex-m4/float-abi-hard/fpuv4-sp-d16/libm.a(lib_a-e_rem_pio2.o)
 .rodata        0x08026208       0x38 /opt/ARM/arm-linaro-eabi-4.6/lib/gcc/arm-none-eabi/4.7.3/../../../../arm-none-eabi/lib/thumb/cortex-m4/float-abi-hard/fpuv4-sp-d16/libm.a(lib_a-kf_rem_pio2.o)
 .rodata        0x08026240       0x50 /opt/ARM/arm-linaro-eabi-4.6/lib/gcc/arm-none-eabi/4.7.3/../../../../arm-none-eabi/lib/thumb/cortex-m4/float-abi-hard/fpuv4-sp-d16/libm.a(lib_a-k_rem_pio2.o)
 .rodata        0x08026290       0x10 /opt/ARM/arm-linaro-eabi-4.6/lib/gcc/arm-none-eabi/4.7.3/../../../../arm-none-eabi/lib/thumb/cortex-m4/float-abi-hard/fpuv4-sp-d16/libm.a(lib_a-s_rint.o)
 .rodata        0x080262a0        0x4 /opt/ARM/arm-linaro-eabi-4.6/lib/gcc/arm-none-eabi/4.7.3/../../../../arm-none-eabi/lib/thumb/cortex-m4/float-abi-hard/fpuv4-sp-d16/libc.a(lib_a-impure.o)
                0x080262a0                _global_impure_ptr
 .rodata        0x080262a4       0x20 /opt/ARM/arm-linaro-eabi-4.6/lib/gcc/arm-none-eabi/4.7.3/../../../../arm-none-eabi/lib/thumb/cortex-m4/float-abi-hard/fpuv4-sp-d16/libc.a(lib_a-vfprintf.o)
 *fill*         0x080262c4        0x4 
 .rodata        0x080262c8      0x128 /opt/ARM/arm-linaro-eabi-4.6/lib/gcc/arm-none-eabi/4.7.3/../../../../arm-none-eabi/lib/thumb/cortex-m4/float-abi-hard/fpuv4-sp-d16/libc.a(lib_a-mprec.o)
                0x080262d8                __mprec_tens
                0x080263a0                __mprec_tinytens
                0x080263c8                __mprec_bigtens
 .rodata        0x080263f0       0x20 /opt/ARM/arm-linaro-eabi-4.6/lib/gcc/arm-none-eabi/4.7.3/../../../../arm-none-eabi/lib/thumb/cortex-m4/float-abi-hard/fpuv4-sp-d16/libc.a(lib_a-vfiprintf.o)
 *(.rodata*)
 .rodata.str1.4
                0x08026410      0x1bf ./rsynth-2.0-port/elements.o
                                0x1dc (size before relaxing)
 *fill*         0x080265cf        0x1 
 .rodata.str1.4
                0x080265d0      0x3c1 ./rsynth-2.0-port/nsynth.o
                                0x3c4 (size before relaxing)
 *fill*         0x08026991        0x3 
 .rodata.str1.4
                0x08026994        0x4 /opt/ARM/arm-linaro-eabi-4.6/lib/gcc/arm-none-eabi/4.7.3/../../../../arm-none-eabi/lib/thumb/cortex-m4/float-abi-hard/fpuv4-sp-d16/libm.a(lib_a-w_exp.o)
 .rodata.str1.4
                0x08026998        0x6 /opt/ARM/arm-linaro-eabi-4.6/lib/gcc/arm-none-eabi/4.7.3/../../../../arm-none-eabi/lib/thumb/cortex-m4/float-abi-hard/fpuv4-sp-d16/libm.a(lib_a-wf_acos.o)
                                  0xc (size before relaxing)
 *fill*         0x0802699e        0x2 
 .rodata.str1.4
                0x080269a0        0x5 /opt/ARM/arm-linaro-eabi-4.6/lib/gcc/arm-none-eabi/4.7.3/../../../../arm-none-eabi/lib/thumb/cortex-m4/float-abi-hard/fpuv4-sp-d16/libm.a(lib_a-wf_exp.o)
                                  0x8 (size before relaxing)
 *fill*         0x080269a5        0x3 
 .rodata.str1.4
                0x080269a8        0x5 /opt/ARM/arm-linaro-eabi-4.6/lib/gcc/arm-none-eabi/4.7.3/../../../../arm-none-eabi/lib/thumb/cortex-m4/float-abi-hard/fpuv4-sp-d16/libm.a(lib_a-wf_pow.o)
                                  0x8 (size before relaxing)
 *fill*         0x080269ad        0x3 
 .rodata.str1.4
                0x080269b0        0x6 /opt/ARM/arm-linaro-eabi-4.6/lib/gcc/arm-none-eabi/4.7.3/../../../../arm-none-eabi/lib/thumb/cortex-m4/float-abi-hard/fpuv4-sp-d16/libm.a(lib_a-wf_sqrt.o)
                                  0x8 (size before relaxing)
 *fill*         0x080269b6        0x2 
 .rodata.str1.4
                0x080269b8        0x6 /opt/ARM/arm-linaro-eabi-4.6/lib/gcc/arm-none-eabi/4.7.3/../../../../arm-none-eabi/lib/thumb/cortex-m4/float-abi-hard/fpuv4-sp-d16/libm.a(lib_a-w_log10.o)
                                  0xc (size before relaxing)
 .rodata.str1.4
                0x00000000        0x4 /opt/ARM/arm-linaro-eabi-4.6/lib/gcc/arm-none-eabi/4.7.3/../../../../arm-none-eabi/lib/thumb/cortex-m4/float-abi-hard/fpuv4-sp-d16/libm.a(lib_a-ef_pow.o)
 *fill*         0x080269be        0x2 
 .rodata.str1.4
                0x080269c0        0x2 /opt/ARM/arm-linaro-eabi-4.6/lib/gcc/arm-none-eabi/4.7.3/../../../../arm-none-eabi/lib/thumb/cortex-m4/float-abi-hard/fpuv4-sp-d16/libc.a(lib_a-impure.o)
                                  0x4 (size before relaxing)
 .rodata.str1.4
                0x00000000        0x2 /opt/ARM/arm-linaro-eabi-4.6/lib/gcc/arm-none-eabi/4.7.3/../../../../arm-none-eabi/lib/thumb/cortex-m4/float-abi-hard/fpuv4-sp-d16/libc.a(lib_a-puts.o)
                                  0x4 (size before relaxing)
 *fill*         0x080269c2        0x2 
 .rodata.str1.4
                0x080269c4       0x3f /opt/ARM/arm-linaro-eabi-4.6/lib/gcc/arm-none-eabi/4.7.3/../../../../arm-none-eabi/lib/thumb/cortex-m4/float-abi-hard/fpuv4-sp-d16/libc.a(lib_a-vfprintf.o)
                                 0x44 (size before relaxing)
 *fill*         0x08026a03        0x1 
 .rodata.str1.4
                0x08026a04       0x10 /opt/ARM/arm-linaro-eabi-4.6/lib/gcc/arm-none-eabi/4.7.3/../../../../arm-none-eabi/lib/thumb/cortex-m4/float-abi-hard/fpuv4-sp-d16/libc.a(lib_a-dtoa.o)
                                 0x14 (size before relaxing)
 .rodata.str1.4
                0x08026a14        0xc /opt/ARM/arm-linaro-eabi-4.6/lib/gcc/arm-none-eabi/4.7.3/../../../../arm-none-eabi/lib/thumb/cortex-m4/float-abi-hard/fpuv4-sp-d16/libc.a(lib_a-locale.o)
                                 0x14 (size before relaxing)
 .rodata.str1.4
                0x00000000       0x30 /opt/ARM/arm-linaro-eabi-4.6/lib/gcc/arm-none-eabi/4.7.3/../../../../arm-none-eabi/lib/thumb/cortex-m4/float-abi-hard/fpuv4-sp-d16/libc.a(lib_a-vfiprintf.o)
 *(.glue_7)
 .glue_7        0x00000000        0x0 linker stubs
 *(.glue_7t)
 .glue_7t       0x00000000        0x0 linker stubs
 *(.eh_frame)
 .eh_frame      0x08026a20        0x0 /opt/ARM/arm-linaro-eabi-4.6/lib/gcc/arm-none-eabi/4.7.3/thumb/cortex-m4/float-abi-hard/fpuv4-sp-d16/crtbegin.o
 *(.init)
 .init          0x08026a20        0x4 /opt/ARM/arm-linaro-eabi-4.6/lib/gcc/arm-none-eabi/4.7.3/thumb/cortex-m4/float-abi-hard/fpuv4-sp-d16/crti.o
                0x08026a20                _init
 .init          0x08026a24        0x8 /opt/ARM/arm-linaro-eabi-4.6/lib/gcc/arm-none-eabi/4.7.3/thumb/cortex-m4/float-abi-hard/fpuv4-sp-d16/crtn.o
 *(.fini)
 .fini          0x08026a2c        0x4 /opt/ARM/arm-linaro-eabi-4.6/lib/gcc/arm-none-eabi/4.7.3/thumb/cortex-m4/float-abi-hard/fpuv4-sp-d16/crti.o
                0x08026a2c                _fini
 .fini          0x08026a30        0x8 /opt/ARM/arm-linaro-eabi-4.6/lib/gcc/arm-none-eabi/4.7.3/thumb/cortex-m4/float-abi-hard/fpuv4-sp-d16/crtn.o
                0x08026a38                . = ALIGN (0x4)
                0x08026a38                _etext = .
                0x08026a38                _exit = .

.vfp11_veneer   0x08026a38        0x0
 .vfp11_veneer  0x00000000        0x0 linker stubs

.v4_bx          0x08026a38        0x0
 .v4_bx         0x00000000        0x0 linker stubs

.iplt           0x08026a38        0x0
 .iplt          0x00000000        0x0 /opt/ARM/arm-linaro-eabi-4.6/lib/gcc/arm-none-eabi/4.7.3/thumb/cortex-m4/float-abi-hard/fpuv4-sp-d16/crtbegin.o

.rel.dyn        0x08026a38        0x0
 .rel.iplt      0x00000000        0x0 /opt/ARM/arm-linaro-eabi-4.6/lib/gcc/arm-none-eabi/4.7.3/thumb/cortex-m4/float-abi-hard/fpuv4-sp-d16/crtbegin.o

.ARM.extab
 *(.ARM.extab* .gnu.linkonce.armextab.*)

.ARM            0x08026a38        0x0
                0x08026a38                __exidx_start = .
 *(.ARM.exidx*)
                0x08026a38                __exidx_end = .

.preinit_array  0x08026a38        0x0
                0x08026a38                PROVIDE (__preinit_array_start, .)
 *(.preinit_array*)
                0x08026a38                PROVIDE (__preinit_array_end, .)

.init_array     0x08026a38        0x4
                0x08026a38                PROVIDE (__init_array_start, .)
 *(SORT(.init_array.*))
 *(.init_array*)
 .init_array    0x08026a38        0x4 /opt/ARM/arm-linaro-eabi-4.6/lib/gcc/arm-none-eabi/4.7.3/thumb/cortex-m4/float-abi-hard/fpuv4-sp-d16/crtbegin.o
                0x08026a3c                PROVIDE (__init_array_end, .)

.fini_array     0x08026a3c        0x4
                0x08026a3c                PROVIDE (__fini_array_start, .)
 *(.fini_array*)
 .fini_array    0x08026a3c        0x4 /opt/ARM/arm-linaro-eabi-4.6/lib/gcc/arm-none-eabi/4.7.3/thumb/cortex-m4/float-abi-hard/fpuv4-sp-d16/crtbegin.o
 *(SORT(.fini_array.*))
                0x08026a40                PROVIDE (__fini_array_end, .)
                0x08026a40                _sidata = .

.data           0x20000000    0x11bc0 load address 0x08026a40
                0x20000000                . = ALIGN (0x4)
                0x20000000                _sdata = .
 *(.data)
 .data          0x20000000       0x14 system_stm32f4xx.o
                0x20000000                AHBPrescTable
                0x20000010                SystemCoreClock
 .data          0x20000014       0x20 main.o
                0x20000014                test_elm
 .data          0x20000034        0x4 codec.o
                0x20000034                CODECTimeout
 .data          0x20000038       0x10 stm32f4xx_rcc.o
 .data          0x20000048    0x10000 audio.o
                0x20000048                audio_buffer
 .data          0x20010048       0x88 vosim.o
                0x20010048                antilogTable
 .data          0x200100d0      0x108 sam.o
                0x200100d0                speedd
                0x200100d1                pitch
                0x200100d2                mouth
                0x200100d3                throat
                0x200100d4                singmode
                0x200100d8                input
 .data          0x200101d8      0xb4c render.o
                0x200101d8                tab48426
                0x200101e0                sampleTable
                0x200106e0                freq1data
                0x20010730                freq2data
                0x20010780                freq3data
                0x200107d0                ampl1data
                0x20010820                ampl2data
                0x20010870                ampl3data
                0x200108c0                sampledConsonantFlags
                0x20010910                tab47492
                0x2001091c                blendRank
                0x2001096c                outBlendLength
                0x200109bc                inBlendLength
                0x20010a0c                amplitudeRescale
                0x20010a20                multtable
                0x20010b20                sinus
                0x20010c20                rectangle
                0x20010d20                wait2
                0x20010d21                wait1
 .data          0x20010d24      0x294 LPC/lpc.o
                0x20010d24                spKATI
                0x20010e34                spMYWORM
                0x20010f5c                spWHISKY
 .data          0x20010fb8       0x10 vocoder/vocode.o
                0x20010fb8                vocode_window_length
                0x20010fbc                vocode_band_count
                0x20010fc0                vocode_normalize
                0x20010fc4                vocode_volume
 .data          0x20010fc8        0x8 ./rsynth-2.0-port/holmes.o
                0x20010fc8                frac
                0x20010fcc                speed
 .data          0x20010fd0      0x288 ./rsynth-2.0-port/nsynth.o
                0x20011198                par_name
 .data          0x20011258       0xa4 ./rsynth-2.0-port/def_pars.o
                0x20011258                samp_rate
                0x2001125c                def_pars
 .data          0x200112fc        0x1 /opt/ARM/arm-linaro-eabi-4.6/lib/gcc/arm-none-eabi/4.7.3/../../../../arm-none-eabi/lib/thumb/cortex-m4/float-abi-hard/fpuv4-sp-d16/libm.a(lib_a-s_lib_ver.o)
                0x200112fc                __fdlib_version
 *fill*         0x200112fd        0x3 
 .data          0x20011300      0x430 /opt/ARM/arm-linaro-eabi-4.6/lib/gcc/arm-none-eabi/4.7.3/../../../../arm-none-eabi/lib/thumb/cortex-m4/float-abi-hard/fpuv4-sp-d16/libc.a(lib_a-impure.o)
                0x20011300                _impure_ptr
 .data          0x20011730      0x410 /opt/ARM/arm-linaro-eabi-4.6/lib/gcc/arm-none-eabi/4.7.3/../../../../arm-none-eabi/lib/thumb/cortex-m4/float-abi-hard/fpuv4-sp-d16/libc.a(lib_a-mallocr.o)
                0x20011730                __malloc_av_
                0x20011b38                __malloc_sbrk_base
                0x20011b3c                __malloc_trim_threshold
 .data          0x20011b40       0x7c /opt/ARM/arm-linaro-eabi-4.6/lib/gcc/arm-none-eabi/4.7.3/../../../../arm-none-eabi/lib/thumb/cortex-m4/float-abi-hard/fpuv4-sp-d16/libc.a(lib_a-locale.o)
                0x20011b60                __mb_cur_max
 .data          0x20011bbc        0x4 /opt/ARM/arm-linaro-eabi-4.6/lib/gcc/arm-none-eabi/4.7.3/../../../../arm-none-eabi/lib/thumb/cortex-m4/float-abi-hard/fpuv4-sp-d16/libc.a(lib_a-wctomb_r.o)
                0x20011bbc                __wctomb
 *(.data*)
                0x20011bc0                . = ALIGN (0x4)
                0x20011bc0                _edata = .

.jcr            0x20011bc0        0x0 load address 0x08038600
 .jcr           0x20011bc0        0x0 /opt/ARM/arm-linaro-eabi-4.6/lib/gcc/arm-none-eabi/4.7.3/thumb/cortex-m4/float-abi-hard/fpuv4-sp-d16/crtbegin.o

.tm_clone_table
                0x20011bc0        0x0 load address 0x08038600
 .tm_clone_table
                0x20011bc0        0x0 /opt/ARM/arm-linaro-eabi-4.6/lib/gcc/arm-none-eabi/4.7.3/thumb/cortex-m4/float-abi-hard/fpuv4-sp-d16/crtbegin.o
 .tm_clone_table
                0x20011bc0        0x0 /opt/ARM/arm-linaro-eabi-4.6/lib/gcc/arm-none-eabi/4.7.3/thumb/cortex-m4/float-abi-hard/fpuv4-sp-d16/crtend.o

.igot.plt       0x20011bc0        0x0 load address 0x08038600
 .igot.plt      0x00000000        0x0 /opt/ARM/arm-linaro-eabi-4.6/lib/gcc/arm-none-eabi/4.7.3/thumb/cortex-m4/float-abi-hard/fpuv4-sp-d16/crtbegin.o
                0x20011bc0                . = ALIGN (0x4)

.bss            0x20011bc0     0x1d60 load address 0x08038600
                0x20011bc0                _sbss = .
                0x20011bc0                __bss_start__ = _sbss
 *(.bss)
 .bss           0x20011bc0       0x1c /opt/ARM/arm-linaro-eabi-4.6/lib/gcc/arm-none-eabi/4.7.3/thumb/cortex-m4/float-abi-hard/fpuv4-sp-d16/crtbegin.o
 .bss           0x20011bdc      0x220 main.o
                0x20011bdc                adc_buffer
                0x20011bf0                tx_buffer
                0x20011cf0                rx_buffer
                0x20011df0                mode
                0x20011df1                maintrigger
                0x20011df2                writepos
                0x20011df4                trigger
                0x20011df6                generated
                0x20011df8                readpos
 .bss           0x20011dfc       0x84 i2s.o
                0x20011dfc                DMA_InitStructure
                0x20011e38                DMA_InitStructure2
                0x20011e74                txbuf
                0x20011e78                rxbuf
                0x20011e7c                szbuf
 .bss           0x20011e80        0x4 syscalls.o
 .bss           0x20011e84      0x864 audio.o
                0x20011e84                mdavocall
                0x20011e88                mdavocod
                0x20011e8c                vocoderz
                0x20011e90                formy
                0x20011e94                formanty
                0x20011e9c                sample_buffer
                0x20011edc                flinbuffer
                0x20011f5c                floutbuffer
                0x20011fdc                mono_buffer
                0x2001201c                floutbufferz
                0x200120a8                modulator_sample_buffer
                0x200122a8                carrier_sample_buffer
                0x200124a8                output_sample_buffer
                0x200126a8                left_buffer
 .bss           0x200126e8       0x14 vosim.o
 .bss           0x200126fc       0x1c effect.o
 .bss           0x20012718      0x3c0 sam.o
                0x20012718                stress
                0x20012818                phonemeLength
                0x20012918                phonemeIndexOutput
                0x20012954                stressOutput
                0x20012990                phonemeLengthOutput
                0x200129cc                phonemeindex
                0x20012acc                X
                0x20012acd                Y
                0x20012ace                A
                0x20012acf                mem59
                0x20012ad0                mem56
                0x20012ad1                mem53
                0x20012ad2                mem50
                0x20012ad3                mem51
                0x20012ad4                mem49
                0x20012ad5                mem47
                0x20012ad6                mem44
                0x20012ad7                mem39
 .bss           0x20012ad8      0x804 render.o
                0x20012adc                pitches
                0x20012bdc                frequency1
                0x20012cdc                frequency2
                0x20012ddc                frequency3
                0x20012edc                amplitude1
                0x20012fdc                amplitude2
                0x200130dc                amplitude3
                0x200131dc                sampledConsonantFlag
 .bss           0x200132dc      0x16c LPC/lpc.o
                0x200132dc                ptrAddr
                0x200132e0                byte_rev
                0x200133e0                ptrBit
                0x200133e1                synthPeriod
                0x200133e2                synthEnergy
                0x200133e4                synthK
                0x200133f8                xlpc
                0x2001340c                starty
                0x2001340d                synth_running
                0x2001340e                synth_subframe_ctr
                0x2001340f                synth_sample_ctr
                0x20013410                synthRand
                0x20013412                nextPeriod
                0x20013414                nextEnergy
                0x20013418                nextK
                0x2001342c                periodCounter
                0x20013430                ulpc
 .bss           0x20013448      0x400 vocoder/fftn.o
                0x20013448                xyz
 .bss           0x20013848       0x6c ./rsynth-2.0-port/nsynth.o
                0x20013898                time_count
 .bss           0x200138b4       0x14 ./rsynth-2.0-port/say.o
                0x200138b4                wav_len
                0x200138b8                wav_elm
 .bss           0x200138c8       0x20 ./rsynth-2.0-port/def_pars.o
                0x200138c8                klatt_global
 .bss           0x200138e8       0x34 /opt/ARM/arm-linaro-eabi-4.6/lib/gcc/arm-none-eabi/4.7.3/../../../../arm-none-eabi/lib/thumb/cortex-m4/float-abi-hard/fpuv4-sp-d16/libc.a(lib_a-mallocr.o)
                0x200138e8                __malloc_top_pad
                0x200138ec                __malloc_current_mallinfo
                0x20013914                __malloc_max_sbrked_mem
                0x20013918                __malloc_max_total_mem
 *(.bss*)
 *(COMMON)
 COMMON         0x2001391c        0x4 /opt/ARM/arm-linaro-eabi-4.6/lib/gcc/arm-none-eabi/4.7.3/../../../../arm-none-eabi/lib/thumb/cortex-m4/float-abi-hard/fpuv4-sp-d16/libc.a(lib_a-reent.o)
                0x2001391c                errno
                0x20013920                . = ALIGN (0x4)
                0x20013920                _ebss = .
                0x20013920                __bss_end__ = _ebss

._user_heap_stack
                0x20013920      0xc00 load address 0x0803a360
                0x20013920                . = ALIGN (0x4)
                0x20013920                PROVIDE (end, .)
                0x20013920                PROVIDE (_end, .)
                0x20013d20                . = (. + _Min_Heap_Size)
 *fill*         0x20013920      0x400 
                0x20014520                . = (. + _Min_Stack_Size)
 *fill*         0x20013d20      0x800 
                0x20014520                . = ALIGN (0x4)

.ccm_data       0x10000000     0x5320
                0x10000000                . = ALIGN (0x4)
 *(.ccmdata)
 .ccmdata       0x10000000      0x320 audio.o
                0x10000000                coeffs
                0x100001f4                df
 .ccmdata       0x10000320     0x5000 ./rsynth-2.0-port/say.o
                0x10000320                pWavBuffer
                0x10005320                . = ALIGN (0x4)

.ARM.attributes
                0x00000000       0x35
 *(.ARM.attributes)
 .ARM.attributes
                0x00000000       0x27 /opt/ARM/arm-linaro-eabi-4.6/lib/gcc/arm-none-eabi/4.7.3/thumb/cortex-m4/float-abi-hard/fpuv4-sp-d16/crti.o
 .ARM.attributes
                0x00000027       0x39 /opt/ARM/arm-linaro-eabi-4.6/lib/gcc/arm-none-eabi/4.7.3/thumb/cortex-m4/float-abi-hard/fpuv4-sp-d16/crtbegin.o
 .ARM.attributes
                0x00000060       0x21 startup_stm32f4xx.o
 .ARM.attributes
                0x00000081       0x39 system_stm32f4xx.o
 .ARM.attributes
                0x000000ba       0x39 main.o
 .ARM.attributes
                0x000000f3       0x39 codec.o
 .ARM.attributes
                0x0000012c       0x39 i2s.o
 .ARM.attributes
                0x00000165       0x39 adc.o
 .ARM.attributes
                0x0000019e       0x39 stm32f4xx_gpio.o
 .ARM.attributes
                0x000001d7       0x39 stm32f4xx_i2c.o
 .ARM.attributes
                0x00000210       0x39 stm32f4xx_rcc.o
 .ARM.attributes
                0x00000249       0x39 stm32f4xx_spi.o
 .ARM.attributes
                0x00000282       0x39 stm32f4xx_dma.o
 .ARM.attributes
                0x000002bb       0x39 stm32f4xx_adc.o
 .ARM.attributes
                0x000002f4       0x39 syscalls.o
 .ARM.attributes
                0x0000032d       0x39 audio.o
 .ARM.attributes
                0x00000366       0x39 vosim.o
 .ARM.attributes
                0x0000039f       0x39 mdavoc.o
 .ARM.attributes
                0x000003d8       0x39 mdavocoder.o
 .ARM.attributes
                0x00000411       0x39 effect.o
 .ARM.attributes
                0x0000044a       0x39 vocode.o
 .ARM.attributes
                0x00000483       0x39 klatt_phoneme.o
 .ARM.attributes
                0x000004bc       0x39 sam.o
 .ARM.attributes
                0x000004f5       0x39 render.o
 .ARM.attributes
                0x0000052e       0x39 LPC/lpc.o
 .ARM.attributes
                0x00000567       0x39 vocoder/vocode.o
 .ARM.attributes
                0x000005a0       0x39 vocoder/fftn.o
 .ARM.attributes
                0x000005d9       0x39 scformant.o
 .ARM.attributes
                0x00000612       0x39 ./rsynth-2.0-port/holmes.o
 .ARM.attributes
                0x0000064b       0x39 ./rsynth-2.0-port/elements.o
 .ARM.attributes
                0x00000684       0x39 ./rsynth-2.0-port/nsynth.o
 .ARM.attributes
                0x000006bd       0x39 ./rsynth-2.0-port/say.o
 .ARM.attributes
                0x000006f6       0x39 ./rsynth-2.0-port/darray.o
 .ARM.attributes
                0x0000072f       0x39 ./rsynth-2.0-port/def_pars.o
 .ARM.attributes
                0x00000768       0x39 /root/CMSIS/CMSIS/Lib/GCC/libarm_cortexM4lf_math.a(arm_biquad_cascade_df1_init_f32.o)
 .ARM.attributes
                0x000007a1       0x39 /root/CMSIS/CMSIS/Lib/GCC/libarm_cortexM4lf_math.a(arm_biquad_cascade_df1_f32.o)
 .ARM.attributes
                0x000007da       0x39 /opt/ARM/arm-linaro-eabi-4.6/lib/gcc/arm-none-eabi/4.7.3/../../../../arm-none-eabi/lib/thumb/cortex-m4/float-abi-hard/fpuv4-sp-d16/libm.a(lib_a-s_cos.o)
 .ARM.attributes
                0x00000813       0x39 /opt/ARM/arm-linaro-eabi-4.6/lib/gcc/arm-none-eabi/4.7.3/../../../../arm-none-eabi/lib/thumb/cortex-m4/float-abi-hard/fpuv4-sp-d16/libm.a(lib_a-sf_cos.o)
 .ARM.attributes
                0x0000084c       0x39 /opt/ARM/arm-linaro-eabi-4.6/lib/gcc/arm-none-eabi/4.7.3/../../../../arm-none-eabi/lib/thumb/cortex-m4/float-abi-hard/fpuv4-sp-d16/libm.a(lib_a-s_floor.o)
 .ARM.attributes
                0x00000885       0x39 /opt/ARM/arm-linaro-eabi-4.6/lib/gcc/arm-none-eabi/4.7.3/../../../../arm-none-eabi/lib/thumb/cortex-m4/float-abi-hard/fpuv4-sp-d16/libm.a(lib_a-sf_sin.o)
 .ARM.attributes
                0x000008be       0x39 /opt/ARM/arm-linaro-eabi-4.6/lib/gcc/arm-none-eabi/4.7.3/../../../../arm-none-eabi/lib/thumb/cortex-m4/float-abi-hard/fpuv4-sp-d16/libm.a(lib_a-sf_tan.o)
 .ARM.attributes
                0x000008f7       0x39 /opt/ARM/arm-linaro-eabi-4.6/lib/gcc/arm-none-eabi/4.7.3/../../../../arm-none-eabi/lib/thumb/cortex-m4/float-abi-hard/fpuv4-sp-d16/libm.a(lib_a-s_sin.o)
 .ARM.attributes
                0x00000930       0x39 /opt/ARM/arm-linaro-eabi-4.6/lib/gcc/arm-none-eabi/4.7.3/../../../../arm-none-eabi/lib/thumb/cortex-m4/float-abi-hard/fpuv4-sp-d16/libm.a(lib_a-w_exp.o)
 .ARM.attributes
                0x00000969       0x39 /opt/ARM/arm-linaro-eabi-4.6/lib/gcc/arm-none-eabi/4.7.3/../../../../arm-none-eabi/lib/thumb/cortex-m4/float-abi-hard/fpuv4-sp-d16/libm.a(lib_a-wf_acos.o)
 .ARM.attributes
                0x000009a2       0x39 /opt/ARM/arm-linaro-eabi-4.6/lib/gcc/arm-none-eabi/4.7.3/../../../../arm-none-eabi/lib/thumb/cortex-m4/float-abi-hard/fpuv4-sp-d16/libm.a(lib_a-wf_exp.o)
 .ARM.attributes
                0x000009db       0x39 /opt/ARM/arm-linaro-eabi-4.6/lib/gcc/arm-none-eabi/4.7.3/../../../../arm-none-eabi/lib/thumb/cortex-m4/float-abi-hard/fpuv4-sp-d16/libm.a(lib_a-wf_pow.o)
 .ARM.attributes
                0x00000a14       0x39 /opt/ARM/arm-linaro-eabi-4.6/lib/gcc/arm-none-eabi/4.7.3/../../../../arm-none-eabi/lib/thumb/cortex-m4/float-abi-hard/fpuv4-sp-d16/libm.a(lib_a-wf_sqrt.o)
 .ARM.attributes
                0x00000a4d       0x39 /opt/ARM/arm-linaro-eabi-4.6/lib/gcc/arm-none-eabi/4.7.3/../../../../arm-none-eabi/lib/thumb/cortex-m4/float-abi-hard/fpuv4-sp-d16/libm.a(lib_a-w_log10.o)
 .ARM.attributes
                0x00000a86       0x39 /opt/ARM/arm-linaro-eabi-4.6/lib/gcc/arm-none-eabi/4.7.3/../../../../arm-none-eabi/lib/thumb/cortex-m4/float-abi-hard/fpuv4-sp-d16/libm.a(lib_a-e_exp.o)
 .ARM.attributes
                0x00000abf       0x39 /opt/ARM/arm-linaro-eabi-4.6/lib/gcc/arm-none-eabi/4.7.3/../../../../arm-none-eabi/lib/thumb/cortex-m4/float-abi-hard/fpuv4-sp-d16/libm.a(lib_a-ef_acos.o)
 .ARM.attributes
                0x00000af8       0x39 /opt/ARM/arm-linaro-eabi-4.6/lib/gcc/arm-none-eabi/4.7.3/../../../../arm-none-eabi/lib/thumb/cortex-m4/float-abi-hard/fpuv4-sp-d16/libm.a(lib_a-ef_exp.o)
 .ARM.attributes
                0x00000b31       0x39 /opt/ARM/arm-linaro-eabi-4.6/lib/gcc/arm-none-eabi/4.7.3/../../../../arm-none-eabi/lib/thumb/cortex-m4/float-abi-hard/fpuv4-sp-d16/libm.a(lib_a-ef_pow.o)
 .ARM.attributes
                0x00000b6a       0x39 /opt/ARM/arm-linaro-eabi-4.6/lib/gcc/arm-none-eabi/4.7.3/../../../../arm-none-eabi/lib/thumb/cortex-m4/float-abi-hard/fpuv4-sp-d16/libm.a(lib_a-ef_rem_pio2.o)
 .ARM.attributes
                0x00000ba3       0x39 /opt/ARM/arm-linaro-eabi-4.6/lib/gcc/arm-none-eabi/4.7.3/../../../../arm-none-eabi/lib/thumb/cortex-m4/float-abi-hard/fpuv4-sp-d16/libm.a(lib_a-ef_sqrt.o)
 .ARM.attributes
                0x00000bdc       0x39 /opt/ARM/arm-linaro-eabi-4.6/lib/gcc/arm-none-eabi/4.7.3/../../../../arm-none-eabi/lib/thumb/cortex-m4/float-abi-hard/fpuv4-sp-d16/libm.a(lib_a-e_log10.o)
 .ARM.attributes
                0x00000c15       0x39 /opt/ARM/arm-linaro-eabi-4.6/lib/gcc/arm-none-eabi/4.7.3/../../../../arm-none-eabi/lib/thumb/cortex-m4/float-abi-hard/fpuv4-sp-d16/libm.a(lib_a-e_log.o)
 .ARM.attributes
                0x00000c4e       0x39 /opt/ARM/arm-linaro-eabi-4.6/lib/gcc/arm-none-eabi/4.7.3/../../../../arm-none-eabi/lib/thumb/cortex-m4/float-abi-hard/fpuv4-sp-d16/libm.a(lib_a-e_rem_pio2.o)
 .ARM.attributes
                0x00000c87       0x39 /opt/ARM/arm-linaro-eabi-4.6/lib/gcc/arm-none-eabi/4.7.3/../../../../arm-none-eabi/lib/thumb/cortex-m4/float-abi-hard/fpuv4-sp-d16/libm.a(lib_a-k_cos.o)
 .ARM.attributes
                0x00000cc0       0x39 /opt/ARM/arm-linaro-eabi-4.6/lib/gcc/arm-none-eabi/4.7.3/../../../../arm-none-eabi/lib/thumb/cortex-m4/float-abi-hard/fpuv4-sp-d16/libm.a(lib_a-kf_cos.o)
 .ARM.attributes
                0x00000cf9       0x39 /opt/ARM/arm-linaro-eabi-4.6/lib/gcc/arm-none-eabi/4.7.3/../../../../arm-none-eabi/lib/thumb/cortex-m4/float-abi-hard/fpuv4-sp-d16/libm.a(lib_a-kf_rem_pio2.o)
 .ARM.attributes
                0x00000d32       0x39 /opt/ARM/arm-linaro-eabi-4.6/lib/gcc/arm-none-eabi/4.7.3/../../../../arm-none-eabi/lib/thumb/cortex-m4/float-abi-hard/fpuv4-sp-d16/libm.a(lib_a-kf_sin.o)
 .ARM.attributes
                0x00000d6b       0x39 /opt/ARM/arm-linaro-eabi-4.6/lib/gcc/arm-none-eabi/4.7.3/../../../../arm-none-eabi/lib/thumb/cortex-m4/float-abi-hard/fpuv4-sp-d16/libm.a(lib_a-kf_tan.o)
 .ARM.attributes
                0x00000da4       0x39 /opt/ARM/arm-linaro-eabi-4.6/lib/gcc/arm-none-eabi/4.7.3/../../../../arm-none-eabi/lib/thumb/cortex-m4/float-abi-hard/fpuv4-sp-d16/libm.a(lib_a-k_rem_pio2.o)
 .ARM.attributes
                0x00000ddd       0x39 /opt/ARM/arm-linaro-eabi-4.6/lib/gcc/arm-none-eabi/4.7.3/../../../../arm-none-eabi/lib/thumb/cortex-m4/float-abi-hard/fpuv4-sp-d16/libm.a(lib_a-k_sin.o)
 .ARM.attributes
                0x00000e16       0x39 /opt/ARM/arm-linaro-eabi-4.6/lib/gcc/arm-none-eabi/4.7.3/../../../../arm-none-eabi/lib/thumb/cortex-m4/float-abi-hard/fpuv4-sp-d16/libm.a(lib_a-s_fabs.o)
 .ARM.attributes
                0x00000e4f       0x39 /opt/ARM/arm-linaro-eabi-4.6/lib/gcc/arm-none-eabi/4.7.3/../../../../arm-none-eabi/lib/thumb/cortex-m4/float-abi-hard/fpuv4-sp-d16/libm.a(lib_a-sf_fabs.o)
 .ARM.attributes
                0x00000e88       0x39 /opt/ARM/arm-linaro-eabi-4.6/lib/gcc/arm-none-eabi/4.7.3/../../../../arm-none-eabi/lib/thumb/cortex-m4/float-abi-hard/fpuv4-sp-d16/libm.a(lib_a-sf_finite.o)
 .ARM.attributes
                0x00000ec1       0x39 /opt/ARM/arm-linaro-eabi-4.6/lib/gcc/arm-none-eabi/4.7.3/../../../../arm-none-eabi/lib/thumb/cortex-m4/float-abi-hard/fpuv4-sp-d16/libm.a(lib_a-sf_floor.o)
 .ARM.attributes
                0x00000efa       0x39 /opt/ARM/arm-linaro-eabi-4.6/lib/gcc/arm-none-eabi/4.7.3/../../../../arm-none-eabi/lib/thumb/cortex-m4/float-abi-hard/fpuv4-sp-d16/libm.a(lib_a-sf_fpclassify.o)
 .ARM.attributes
                0x00000f33       0x39 /opt/ARM/arm-linaro-eabi-4.6/lib/gcc/arm-none-eabi/4.7.3/../../../../arm-none-eabi/lib/thumb/cortex-m4/float-abi-hard/fpuv4-sp-d16/libm.a(lib_a-s_finite.o)
 .ARM.attributes
                0x00000f6c       0x39 /opt/ARM/arm-linaro-eabi-4.6/lib/gcc/arm-none-eabi/4.7.3/../../../../arm-none-eabi/lib/thumb/cortex-m4/float-abi-hard/fpuv4-sp-d16/libm.a(lib_a-sf_nan.o)
 .ARM.attributes
                0x00000fa5       0x39 /opt/ARM/arm-linaro-eabi-4.6/lib/gcc/arm-none-eabi/4.7.3/../../../../arm-none-eabi/lib/thumb/cortex-m4/float-abi-hard/fpuv4-sp-d16/libm.a(lib_a-s_fpclassify.o)
 .ARM.attributes
                0x00000fde       0x39 /opt/ARM/arm-linaro-eabi-4.6/lib/gcc/arm-none-eabi/4.7.3/../../../../arm-none-eabi/lib/thumb/cortex-m4/float-abi-hard/fpuv4-sp-d16/libm.a(lib_a-sf_scalbn.o)
 .ARM.attributes
                0x00001017       0x39 /opt/ARM/arm-linaro-eabi-4.6/lib/gcc/arm-none-eabi/4.7.3/../../../../arm-none-eabi/lib/thumb/cortex-m4/float-abi-hard/fpuv4-sp-d16/libm.a(lib_a-s_lib_ver.o)
 .ARM.attributes
                0x00001050       0x39 /opt/ARM/arm-linaro-eabi-4.6/lib/gcc/arm-none-eabi/4.7.3/../../../../arm-none-eabi/lib/thumb/cortex-m4/float-abi-hard/fpuv4-sp-d16/libm.a(lib_a-s_matherr.o)
 .ARM.attributes
                0x00001089       0x39 /opt/ARM/arm-linaro-eabi-4.6/lib/gcc/arm-none-eabi/4.7.3/../../../../arm-none-eabi/lib/thumb/cortex-m4/float-abi-hard/fpuv4-sp-d16/libm.a(lib_a-s_nan.o)
 .ARM.attributes
                0x000010c2       0x39 /opt/ARM/arm-linaro-eabi-4.6/lib/gcc/arm-none-eabi/4.7.3/../../../../arm-none-eabi/lib/thumb/cortex-m4/float-abi-hard/fpuv4-sp-d16/libm.a(lib_a-s_rint.o)
 .ARM.attributes
                0x000010fb       0x39 /opt/ARM/arm-linaro-eabi-4.6/lib/gcc/arm-none-eabi/4.7.3/../../../../arm-none-eabi/lib/thumb/cortex-m4/float-abi-hard/fpuv4-sp-d16/libm.a(lib_a-s_scalbn.o)
 .ARM.attributes
                0x00001134       0x39 /opt/ARM/arm-linaro-eabi-4.6/lib/gcc/arm-none-eabi/4.7.3/../../../../arm-none-eabi/lib/thumb/cortex-m4/float-abi-hard/fpuv4-sp-d16/libm.a(lib_a-s_copysign.o)
 .ARM.attributes
                0x0000116d       0x39 /opt/ARM/arm-linaro-eabi-4.6/lib/gcc/arm-none-eabi/4.7.3/../../../../arm-none-eabi/lib/thumb/cortex-m4/float-abi-hard/fpuv4-sp-d16/libm.a(lib_a-sf_copysign.o)
 .ARM.attributes
                0x000011a6       0x39 /opt/ARM/arm-linaro-eabi-4.6/lib/gcc/arm-none-eabi/4.7.3/../../../../arm-none-eabi/lib/thumb/cortex-m4/float-abi-hard/fpuv4-sp-d16/libc.a(lib_a-errno.o)
 .ARM.attributes
                0x000011df       0x39 /opt/ARM/arm-linaro-eabi-4.6/lib/gcc/arm-none-eabi/4.7.3/../../../../arm-none-eabi/lib/thumb/cortex-m4/float-abi-hard/fpuv4-sp-d16/libc.a(lib_a-impure.o)
 .ARM.attributes
                0x00001218       0x39 /opt/ARM/arm-linaro-eabi-4.6/lib/gcc/arm-none-eabi/4.7.3/../../../../arm-none-eabi/lib/thumb/cortex-m4/float-abi-hard/fpuv4-sp-d16/libc.a(lib_a-malloc.o)
 .ARM.attributes
                0x00001251       0x39 /opt/ARM/arm-linaro-eabi-4.6/lib/gcc/arm-none-eabi/4.7.3/../../../../arm-none-eabi/lib/thumb/cortex-m4/float-abi-hard/fpuv4-sp-d16/libc.a(lib_a-mallocr.o)
 .ARM.attributes
                0x0000128a       0x39 /opt/ARM/arm-linaro-eabi-4.6/lib/gcc/arm-none-eabi/4.7.3/../../../../arm-none-eabi/lib/thumb/cortex-m4/float-abi-hard/fpuv4-sp-d16/libc.a(lib_a-memcpy-stub.o)
 .ARM.attributes
                0x000012c3       0x39 /opt/ARM/arm-linaro-eabi-4.6/lib/gcc/arm-none-eabi/4.7.3/../../../../arm-none-eabi/lib/thumb/cortex-m4/float-abi-hard/fpuv4-sp-d16/libc.a(lib_a-memset.o)
 .ARM.attributes
                0x000012fc       0x39 /opt/ARM/arm-linaro-eabi-4.6/lib/gcc/arm-none-eabi/4.7.3/../../../../arm-none-eabi/lib/thumb/cortex-m4/float-abi-hard/fpuv4-sp-d16/libc.a(lib_a-mlock.o)
 .ARM.attributes
                0x00001335       0x39 /opt/ARM/arm-linaro-eabi-4.6/lib/gcc/arm-none-eabi/4.7.3/../../../../arm-none-eabi/lib/thumb/cortex-m4/float-abi-hard/fpuv4-sp-d16/libc.a(lib_a-printf.o)
 .ARM.attributes
                0x0000136e       0x39 /opt/ARM/arm-linaro-eabi-4.6/lib/gcc/arm-none-eabi/4.7.3/../../../../arm-none-eabi/lib/thumb/cortex-m4/float-abi-hard/fpuv4-sp-d16/libc.a(lib_a-putchar.o)
 .ARM.attributes
                0x000013a7       0x39 /opt/ARM/arm-linaro-eabi-4.6/lib/gcc/arm-none-eabi/4.7.3/../../../../arm-none-eabi/lib/thumb/cortex-m4/float-abi-hard/fpuv4-sp-d16/libc.a(lib_a-putc.o)
 .ARM.attributes
                0x000013e0       0x39 /opt/ARM/arm-linaro-eabi-4.6/lib/gcc/arm-none-eabi/4.7.3/../../../../arm-none-eabi/lib/thumb/cortex-m4/float-abi-hard/fpuv4-sp-d16/libc.a(lib_a-puts.o)
 .ARM.attributes
                0x00001419       0x39 /opt/ARM/arm-linaro-eabi-4.6/lib/gcc/arm-none-eabi/4.7.3/../../../../arm-none-eabi/lib/thumb/cortex-m4/float-abi-hard/fpuv4-sp-d16/libc.a(lib_a-rand.o)
 .ARM.attributes
                0x00001452       0x39 /opt/ARM/arm-linaro-eabi-4.6/lib/gcc/arm-none-eabi/4.7.3/../../../../arm-none-eabi/lib/thumb/cortex-m4/float-abi-hard/fpuv4-sp-d16/libc.a(lib_a-sbrkr.o)
 .ARM.attributes
                0x0000148b       0x25 /opt/ARM/arm-linaro-eabi-4.6/lib/gcc/arm-none-eabi/4.7.3/../../../../arm-none-eabi/lib/thumb/cortex-m4/float-abi-hard/fpuv4-sp-d16/libc.a(lib_a-strcmp.o)
 .ARM.attributes
                0x000014b0       0x39 /opt/ARM/arm-linaro-eabi-4.6/lib/gcc/arm-none-eabi/4.7.3/../../../../arm-none-eabi/lib/thumb/cortex-m4/float-abi-hard/fpuv4-sp-d16/libc.a(lib_a-strlen.o)
 .ARM.attributes
                0x000014e9       0x39 /opt/ARM/arm-linaro-eabi-4.6/lib/gcc/arm-none-eabi/4.7.3/../../../../arm-none-eabi/lib/thumb/cortex-m4/float-abi-hard/fpuv4-sp-d16/libc.a(lib_a-vfprintf.o)
 .ARM.attributes
                0x00001522       0x39 /opt/ARM/arm-linaro-eabi-4.6/lib/gcc/arm-none-eabi/4.7.3/../../../../arm-none-eabi/lib/thumb/cortex-m4/float-abi-hard/fpuv4-sp-d16/libc.a(lib_a-wbuf.o)
 .ARM.attributes
                0x0000155b       0x39 /opt/ARM/arm-linaro-eabi-4.6/lib/gcc/arm-none-eabi/4.7.3/../../../../arm-none-eabi/lib/thumb/cortex-m4/float-abi-hard/fpuv4-sp-d16/libc.a(lib_a-wsetup.o)
 .ARM.attributes
                0x00001594       0x39 /opt/ARM/arm-linaro-eabi-4.6/lib/gcc/arm-none-eabi/4.7.3/../../../../arm-none-eabi/lib/thumb/cortex-m4/float-abi-hard/fpuv4-sp-d16/libc.a(lib_a-dtoa.o)
 .ARM.attributes
                0x000015cd       0x39 /opt/ARM/arm-linaro-eabi-4.6/lib/gcc/arm-none-eabi/4.7.3/../../../../arm-none-eabi/lib/thumb/cortex-m4/float-abi-hard/fpuv4-sp-d16/libc.a(lib_a-fflush.o)
 .ARM.attributes
                0x00001606       0x39 /opt/ARM/arm-linaro-eabi-4.6/lib/gcc/arm-none-eabi/4.7.3/../../../../arm-none-eabi/lib/thumb/cortex-m4/float-abi-hard/fpuv4-sp-d16/libc.a(lib_a-findfp.o)
 .ARM.attributes
                0x0000163f       0x39 /opt/ARM/arm-linaro-eabi-4.6/lib/gcc/arm-none-eabi/4.7.3/../../../../arm-none-eabi/lib/thumb/cortex-m4/float-abi-hard/fpuv4-sp-d16/libc.a(lib_a-freer.o)
 .ARM.attributes
                0x00001678       0x39 /opt/ARM/arm-linaro-eabi-4.6/lib/gcc/arm-none-eabi/4.7.3/../../../../arm-none-eabi/lib/thumb/cortex-m4/float-abi-hard/fpuv4-sp-d16/libc.a(lib_a-fvwrite.o)
 .ARM.attributes
                0x000016b1       0x39 /opt/ARM/arm-linaro-eabi-4.6/lib/gcc/arm-none-eabi/4.7.3/../../../../arm-none-eabi/lib/thumb/cortex-m4/float-abi-hard/fpuv4-sp-d16/libc.a(lib_a-fwalk.o)
 .ARM.attributes
                0x000016ea       0x39 /opt/ARM/arm-linaro-eabi-4.6/lib/gcc/arm-none-eabi/4.7.3/../../../../arm-none-eabi/lib/thumb/cortex-m4/float-abi-hard/fpuv4-sp-d16/libc.a(lib_a-locale.o)
 .ARM.attributes
                0x00001723       0x39 /opt/ARM/arm-linaro-eabi-4.6/lib/gcc/arm-none-eabi/4.7.3/../../../../arm-none-eabi/lib/thumb/cortex-m4/float-abi-hard/fpuv4-sp-d16/libc.a(lib_a-makebuf.o)
 .ARM.attributes
                0x0000175c       0x39 /opt/ARM/arm-linaro-eabi-4.6/lib/gcc/arm-none-eabi/4.7.3/../../../../arm-none-eabi/lib/thumb/cortex-m4/float-abi-hard/fpuv4-sp-d16/libc.a(lib_a-memchr-stub.o)
 .ARM.attributes
                0x00001795       0x39 /opt/ARM/arm-linaro-eabi-4.6/lib/gcc/arm-none-eabi/4.7.3/../../../../arm-none-eabi/lib/thumb/cortex-m4/float-abi-hard/fpuv4-sp-d16/libc.a(lib_a-memmove.o)
 .ARM.attributes
                0x000017ce       0x39 /opt/ARM/arm-linaro-eabi-4.6/lib/gcc/arm-none-eabi/4.7.3/../../../../arm-none-eabi/lib/thumb/cortex-m4/float-abi-hard/fpuv4-sp-d16/libc.a(lib_a-mprec.o)
 .ARM.attributes
                0x00001807       0x39 /opt/ARM/arm-linaro-eabi-4.6/lib/gcc/arm-none-eabi/4.7.3/../../../../arm-none-eabi/lib/thumb/cortex-m4/float-abi-hard/fpuv4-sp-d16/libc.a(lib_a-reallocr.o)
 .ARM.attributes
                0x00001840       0x39 /opt/ARM/arm-linaro-eabi-4.6/lib/gcc/arm-none-eabi/4.7.3/../../../../arm-none-eabi/lib/thumb/cortex-m4/float-abi-hard/fpuv4-sp-d16/libc.a(lib_a-reent.o)
 .ARM.attributes
                0x00001879       0x39 /opt/ARM/arm-linaro-eabi-4.6/lib/gcc/arm-none-eabi/4.7.3/../../../../arm-none-eabi/lib/thumb/cortex-m4/float-abi-hard/fpuv4-sp-d16/libc.a(lib_a-stdio.o)
 .ARM.attributes
                0x000018b2       0x39 /opt/ARM/arm-linaro-eabi-4.6/lib/gcc/arm-none-eabi/4.7.3/../../../../arm-none-eabi/lib/thumb/cortex-m4/float-abi-hard/fpuv4-sp-d16/libc.a(lib_a-vfiprintf.o)
 .ARM.attributes
                0x000018eb       0x39 /opt/ARM/arm-linaro-eabi-4.6/lib/gcc/arm-none-eabi/4.7.3/../../../../arm-none-eabi/lib/thumb/cortex-m4/float-abi-hard/fpuv4-sp-d16/libc.a(lib_a-writer.o)
 .ARM.attributes
                0x00001924       0x39 /opt/ARM/arm-linaro-eabi-4.6/lib/gcc/arm-none-eabi/4.7.3/../../../../arm-none-eabi/lib/thumb/cortex-m4/float-abi-hard/fpuv4-sp-d16/libc.a(lib_a-callocr.o)
 .ARM.attributes
                0x0000195d       0x39 /opt/ARM/arm-linaro-eabi-4.6/lib/gcc/arm-none-eabi/4.7.3/../../../../arm-none-eabi/lib/thumb/cortex-m4/float-abi-hard/fpuv4-sp-d16/libc.a(lib_a-closer.o)
 .ARM.attributes
                0x00001996       0x39 /opt/ARM/arm-linaro-eabi-4.6/lib/gcc/arm-none-eabi/4.7.3/../../../../arm-none-eabi/lib/thumb/cortex-m4/float-abi-hard/fpuv4-sp-d16/libc.a(lib_a-fclose.o)
 .ARM.attributes
                0x000019cf       0x39 /opt/ARM/arm-linaro-eabi-4.6/lib/gcc/arm-none-eabi/4.7.3/../../../../arm-none-eabi/lib/thumb/cortex-m4/float-abi-hard/fpuv4-sp-d16/libc.a(lib_a-fputwc.o)
 .ARM.attributes
                0x00001a08       0x39 /opt/ARM/arm-linaro-eabi-4.6/lib/gcc/arm-none-eabi/4.7.3/../../../../arm-none-eabi/lib/thumb/cortex-m4/float-abi-hard/fpuv4-sp-d16/libc.a(lib_a-fstatr.o)
 .ARM.attributes
                0x00001a41       0x39 /opt/ARM/arm-linaro-eabi-4.6/lib/gcc/arm-none-eabi/4.7.3/../../../../arm-none-eabi/lib/thumb/cortex-m4/float-abi-hard/fpuv4-sp-d16/libc.a(lib_a-isattyr.o)
 .ARM.attributes
                0x00001a7a       0x39 /opt/ARM/arm-linaro-eabi-4.6/lib/gcc/arm-none-eabi/4.7.3/../../../../arm-none-eabi/lib/thumb/cortex-m4/float-abi-hard/fpuv4-sp-d16/libc.a(lib_a-lseekr.o)
 .ARM.attributes
                0x00001ab3       0x39 /opt/ARM/arm-linaro-eabi-4.6/lib/gcc/arm-none-eabi/4.7.3/../../../../arm-none-eabi/lib/thumb/cortex-m4/float-abi-hard/fpuv4-sp-d16/libc.a(lib_a-readr.o)
 .ARM.attributes
                0x00001aec       0x39 /opt/ARM/arm-linaro-eabi-4.6/lib/gcc/arm-none-eabi/4.7.3/../../../../arm-none-eabi/lib/thumb/cortex-m4/float-abi-hard/fpuv4-sp-d16/libc.a(lib_a-wcrtomb.o)
 .ARM.attributes
                0x00001b25       0x39 /opt/ARM/arm-linaro-eabi-4.6/lib/gcc/arm-none-eabi/4.7.3/../../../../arm-none-eabi/lib/thumb/cortex-m4/float-abi-hard/fpuv4-sp-d16/libc.a(lib_a-wctomb_r.o)
 .ARM.attributes
                0x00001b5e       0x27 /opt/ARM/arm-linaro-eabi-4.6/lib/gcc/arm-none-eabi/4.7.3/thumb/cortex-m4/float-abi-hard/fpuv4-sp-d16/libgcc.a(_arm_addsubdf3.o)
 .ARM.attributes
                0x00001b85       0x27 /opt/ARM/arm-linaro-eabi-4.6/lib/gcc/arm-none-eabi/4.7.3/thumb/cortex-m4/float-abi-hard/fpuv4-sp-d16/libgcc.a(_arm_muldivdf3.o)
 .ARM.attributes
                0x00001bac       0x27 /opt/ARM/arm-linaro-eabi-4.6/lib/gcc/arm-none-eabi/4.7.3/thumb/cortex-m4/float-abi-hard/fpuv4-sp-d16/libgcc.a(_arm_cmpdf2.o)
 .ARM.attributes
                0x00001bd3       0x27 /opt/ARM/arm-linaro-eabi-4.6/lib/gcc/arm-none-eabi/4.7.3/thumb/cortex-m4/float-abi-hard/fpuv4-sp-d16/libgcc.a(_arm_fixdfsi.o)
 .ARM.attributes
                0x00001bfa       0x27 /opt/ARM/arm-linaro-eabi-4.6/lib/gcc/arm-none-eabi/4.7.3/thumb/cortex-m4/float-abi-hard/fpuv4-sp-d16/libgcc.a(_arm_truncdfsf2.o)
 .ARM.attributes
                0x00001c21       0x39 /opt/ARM/arm-linaro-eabi-4.6/lib/gcc/arm-none-eabi/4.7.3/thumb/cortex-m4/float-abi-hard/fpuv4-sp-d16/crtend.o
 .ARM.attributes
                0x00001c5a       0x27 /opt/ARM/arm-linaro-eabi-4.6/lib/gcc/arm-none-eabi/4.7.3/thumb/cortex-m4/float-abi-hard/fpuv4-sp-d16/crtn.o
OUTPUT(main.elf elf32-littlearm)

.comment        0x00000000       0xaa
 .comment       0x00000000       0x3a /opt/ARM/arm-linaro-eabi-4.6/lib/gcc/arm-none-eabi/4.7.3/thumb/cortex-m4/float-abi-hard/fpuv4-sp-d16/crtbegin.o
                                 0x3b (size before relaxing)
 .comment       0x00000000       0x3b system_stm32f4xx.o
 .comment       0x00000000       0x3b main.o
 .comment       0x00000000       0x3b codec.o
 .comment       0x00000000       0x3b i2s.o
 .comment       0x00000000       0x3b adc.o
 .comment       0x00000000       0x3b stm32f4xx_gpio.o
 .comment       0x00000000       0x3b stm32f4xx_i2c.o
 .comment       0x00000000       0x3b stm32f4xx_rcc.o
 .comment       0x00000000       0x3b stm32f4xx_spi.o
 .comment       0x00000000       0x3b stm32f4xx_dma.o
 .comment       0x00000000       0x3b stm32f4xx_adc.o
 .comment       0x00000000       0x3b syscalls.o
 .comment       0x00000000       0x3b audio.o
 .comment       0x00000000       0x3b vosim.o
 .comment       0x00000000       0x3b mdavoc.o
 .comment       0x00000000       0x3b mdavocoder.o
 .comment       0x00000000       0x3b effect.o
 .comment       0x00000000       0x3b vocode.o
 .comment       0x00000000       0x3b klatt_phoneme.o
 .comment       0x00000000       0x3b sam.o
 .comment       0x00000000       0x3b render.o
 .comment       0x00000000       0x3b LPC/lpc.o
 .comment       0x00000000       0x3b vocoder/vocode.o
 .comment       0x00000000       0x3b vocoder/fftn.o
 .comment       0x00000000       0x3b scformant.o
 .comment       0x00000000       0x3b ./rsynth-2.0-port/holmes.o
 .comment       0x00000000       0x3b ./rsynth-2.0-port/elements.o
 .comment       0x00000000       0x3b ./rsynth-2.0-port/nsynth.o
 .comment       0x00000000       0x3b ./rsynth-2.0-port/say.o
 .comment       0x00000000       0x3b ./rsynth-2.0-port/darray.o
 .comment       0x00000000       0x3b ./rsynth-2.0-port/def_pars.o
 .comment       0x0000003a       0x70 /root/CMSIS/CMSIS/Lib/GCC/libarm_cortexM4lf_math.a(arm_biquad_cascade_df1_init_f32.o)
                                 0x71 (size before relaxing)
 .comment       0x00000000       0x71 /root/CMSIS/CMSIS/Lib/GCC/libarm_cortexM4lf_math.a(arm_biquad_cascade_df1_f32.o)
 .comment       0x00000000       0x3b /opt/ARM/arm-linaro-eabi-4.6/lib/gcc/arm-none-eabi/4.7.3/../../../../arm-none-eabi/lib/thumb/cortex-m4/float-abi-hard/fpuv4-sp-d16/libm.a(lib_a-s_cos.o)
 .comment       0x00000000       0x3b /opt/ARM/arm-linaro-eabi-4.6/lib/gcc/arm-none-eabi/4.7.3/../../../../arm-none-eabi/lib/thumb/cortex-m4/float-abi-hard/fpuv4-sp-d16/libm.a(lib_a-sf_cos.o)
 .comment       0x00000000       0x3b /opt/ARM/arm-linaro-eabi-4.6/lib/gcc/arm-none-eabi/4.7.3/../../../../arm-none-eabi/lib/thumb/cortex-m4/float-abi-hard/fpuv4-sp-d16/libm.a(lib_a-s_floor.o)
 .comment       0x00000000       0x3b /opt/ARM/arm-linaro-eabi-4.6/lib/gcc/arm-none-eabi/4.7.3/../../../../arm-none-eabi/lib/thumb/cortex-m4/float-abi-hard/fpuv4-sp-d16/libm.a(lib_a-sf_sin.o)
 .comment       0x00000000       0x3b /opt/ARM/arm-linaro-eabi-4.6/lib/gcc/arm-none-eabi/4.7.3/../../../../arm-none-eabi/lib/thumb/cortex-m4/float-abi-hard/fpuv4-sp-d16/libm.a(lib_a-sf_tan.o)
 .comment       0x00000000       0x3b /opt/ARM/arm-linaro-eabi-4.6/lib/gcc/arm-none-eabi/4.7.3/../../../../arm-none-eabi/lib/thumb/cortex-m4/float-abi-hard/fpuv4-sp-d16/libm.a(lib_a-s_sin.o)
 .comment       0x00000000       0x3b /opt/ARM/arm-linaro-eabi-4.6/lib/gcc/arm-none-eabi/4.7.3/../../../../arm-none-eabi/lib/thumb/cortex-m4/float-abi-hard/fpuv4-sp-d16/libm.a(lib_a-w_exp.o)
 .comment       0x00000000       0x3b /opt/ARM/arm-linaro-eabi-4.6/lib/gcc/arm-none-eabi/4.7.3/../../../../arm-none-eabi/lib/thumb/cortex-m4/float-abi-hard/fpuv4-sp-d16/libm.a(lib_a-wf_acos.o)
 .comment       0x00000000       0x3b /opt/ARM/arm-linaro-eabi-4.6/lib/gcc/arm-none-eabi/4.7.3/../../../../arm-none-eabi/lib/thumb/cortex-m4/float-abi-hard/fpuv4-sp-d16/libm.a(lib_a-wf_exp.o)
 .comment       0x00000000       0x3b /opt/ARM/arm-linaro-eabi-4.6/lib/gcc/arm-none-eabi/4.7.3/../../../../arm-none-eabi/lib/thumb/cortex-m4/float-abi-hard/fpuv4-sp-d16/libm.a(lib_a-wf_pow.o)
 .comment       0x00000000       0x3b /opt/ARM/arm-linaro-eabi-4.6/lib/gcc/arm-none-eabi/4.7.3/../../../../arm-none-eabi/lib/thumb/cortex-m4/float-abi-hard/fpuv4-sp-d16/libm.a(lib_a-wf_sqrt.o)
 .comment       0x00000000       0x3b /opt/ARM/arm-linaro-eabi-4.6/lib/gcc/arm-none-eabi/4.7.3/../../../../arm-none-eabi/lib/thumb/cortex-m4/float-abi-hard/fpuv4-sp-d16/libm.a(lib_a-w_log10.o)
 .comment       0x00000000       0x3b /opt/ARM/arm-linaro-eabi-4.6/lib/gcc/arm-none-eabi/4.7.3/../../../../arm-none-eabi/lib/thumb/cortex-m4/float-abi-hard/fpuv4-sp-d16/libm.a(lib_a-e_exp.o)
 .comment       0x00000000       0x3b /opt/ARM/arm-linaro-eabi-4.6/lib/gcc/arm-none-eabi/4.7.3/../../../../arm-none-eabi/lib/thumb/cortex-m4/float-abi-hard/fpuv4-sp-d16/libm.a(lib_a-ef_acos.o)
 .comment       0x00000000       0x3b /opt/ARM/arm-linaro-eabi-4.6/lib/gcc/arm-none-eabi/4.7.3/../../../../arm-none-eabi/lib/thumb/cortex-m4/float-abi-hard/fpuv4-sp-d16/libm.a(lib_a-ef_exp.o)
 .comment       0x00000000       0x3b /opt/ARM/arm-linaro-eabi-4.6/lib/gcc/arm-none-eabi/4.7.3/../../../../arm-none-eabi/lib/thumb/cortex-m4/float-abi-hard/fpuv4-sp-d16/libm.a(lib_a-ef_pow.o)
 .comment       0x00000000       0x3b /opt/ARM/arm-linaro-eabi-4.6/lib/gcc/arm-none-eabi/4.7.3/../../../../arm-none-eabi/lib/thumb/cortex-m4/float-abi-hard/fpuv4-sp-d16/libm.a(lib_a-ef_rem_pio2.o)
 .comment       0x00000000       0x3b /opt/ARM/arm-linaro-eabi-4.6/lib/gcc/arm-none-eabi/4.7.3/../../../../arm-none-eabi/lib/thumb/cortex-m4/float-abi-hard/fpuv4-sp-d16/libm.a(lib_a-ef_sqrt.o)
 .comment       0x00000000       0x3b /opt/ARM/arm-linaro-eabi-4.6/lib/gcc/arm-none-eabi/4.7.3/../../../../arm-none-eabi/lib/thumb/cortex-m4/float-abi-hard/fpuv4-sp-d16/libm.a(lib_a-e_log10.o)
 .comment       0x00000000       0x3b /opt/ARM/arm-linaro-eabi-4.6/lib/gcc/arm-none-eabi/4.7.3/../../../../arm-none-eabi/lib/thumb/cortex-m4/float-abi-hard/fpuv4-sp-d16/libm.a(lib_a-e_log.o)
 .comment       0x00000000       0x3b /opt/ARM/arm-linaro-eabi-4.6/lib/gcc/arm-none-eabi/4.7.3/../../../../arm-none-eabi/lib/thumb/cortex-m4/float-abi-hard/fpuv4-sp-d16/libm.a(lib_a-e_rem_pio2.o)
 .comment       0x00000000       0x3b /opt/ARM/arm-linaro-eabi-4.6/lib/gcc/arm-none-eabi/4.7.3/../../../../arm-none-eabi/lib/thumb/cortex-m4/float-abi-hard/fpuv4-sp-d16/libm.a(lib_a-k_cos.o)
 .comment       0x00000000       0x3b /opt/ARM/arm-linaro-eabi-4.6/lib/gcc/arm-none-eabi/4.7.3/../../../../arm-none-eabi/lib/thumb/cortex-m4/float-abi-hard/fpuv4-sp-d16/libm.a(lib_a-kf_cos.o)
 .comment       0x00000000       0x3b /opt/ARM/arm-linaro-eabi-4.6/lib/gcc/arm-none-eabi/4.7.3/../../../../arm-none-eabi/lib/thumb/cortex-m4/float-abi-hard/fpuv4-sp-d16/libm.a(lib_a-kf_rem_pio2.o)
 .comment       0x00000000       0x3b /opt/ARM/arm-linaro-eabi-4.6/lib/gcc/arm-none-eabi/4.7.3/../../../../arm-none-eabi/lib/thumb/cortex-m4/float-abi-hard/fpuv4-sp-d16/libm.a(lib_a-kf_sin.o)
 .comment       0x00000000       0x3b /opt/ARM/arm-linaro-eabi-4.6/lib/gcc/arm-none-eabi/4.7.3/../../../../arm-none-eabi/lib/thumb/cortex-m4/float-abi-hard/fpuv4-sp-d16/libm.a(lib_a-kf_tan.o)
 .comment       0x00000000       0x3b /opt/ARM/arm-linaro-eabi-4.6/lib/gcc/arm-none-eabi/4.7.3/../../../../arm-none-eabi/lib/thumb/cortex-m4/float-abi-hard/fpuv4-sp-d16/libm.a(lib_a-k_rem_pio2.o)
 .comment       0x00000000       0x3b /opt/ARM/arm-linaro-eabi-4.6/lib/gcc/arm-none-eabi/4.7.3/../../../../arm-none-eabi/lib/thumb/cortex-m4/float-abi-hard/fpuv4-sp-d16/libm.a(lib_a-k_sin.o)
 .comment       0x00000000       0x3b /opt/ARM/arm-linaro-eabi-4.6/lib/gcc/arm-none-eabi/4.7.3/../../../../arm-none-eabi/lib/thumb/cortex-m4/float-abi-hard/fpuv4-sp-d16/libm.a(lib_a-s_fabs.o)
 .comment       0x00000000       0x3b /opt/ARM/arm-linaro-eabi-4.6/lib/gcc/arm-none-eabi/4.7.3/../../../../arm-none-eabi/lib/thumb/cortex-m4/float-abi-hard/fpuv4-sp-d16/libm.a(lib_a-sf_fabs.o)
 .comment       0x00000000       0x3b /opt/ARM/arm-linaro-eabi-4.6/lib/gcc/arm-none-eabi/4.7.3/../../../../arm-none-eabi/lib/thumb/cortex-m4/float-abi-hard/fpuv4-sp-d16/libm.a(lib_a-sf_finite.o)
 .comment       0x00000000       0x3b /opt/ARM/arm-linaro-eabi-4.6/lib/gcc/arm-none-eabi/4.7.3/../../../../arm-none-eabi/lib/thumb/cortex-m4/float-abi-hard/fpuv4-sp-d16/libm.a(lib_a-sf_floor.o)
 .comment       0x00000000       0x3b /opt/ARM/arm-linaro-eabi-4.6/lib/gcc/arm-none-eabi/4.7.3/../../../../arm-none-eabi/lib/thumb/cortex-m4/float-abi-hard/fpuv4-sp-d16/libm.a(lib_a-sf_fpclassify.o)
 .comment       0x00000000       0x3b /opt/ARM/arm-linaro-eabi-4.6/lib/gcc/arm-none-eabi/4.7.3/../../../../arm-none-eabi/lib/thumb/cortex-m4/float-abi-hard/fpuv4-sp-d16/libm.a(lib_a-s_finite.o)
 .comment       0x00000000       0x3b /opt/ARM/arm-linaro-eabi-4.6/lib/gcc/arm-none-eabi/4.7.3/../../../../arm-none-eabi/lib/thumb/cortex-m4/float-abi-hard/fpuv4-sp-d16/libm.a(lib_a-sf_nan.o)
 .comment       0x00000000       0x3b /opt/ARM/arm-linaro-eabi-4.6/lib/gcc/arm-none-eabi/4.7.3/../../../../arm-none-eabi/lib/thumb/cortex-m4/float-abi-hard/fpuv4-sp-d16/libm.a(lib_a-s_fpclassify.o)
 .comment       0x00000000       0x3b /opt/ARM/arm-linaro-eabi-4.6/lib/gcc/arm-none-eabi/4.7.3/../../../../arm-none-eabi/lib/thumb/cortex-m4/float-abi-hard/fpuv4-sp-d16/libm.a(lib_a-sf_scalbn.o)
 .comment       0x00000000       0x3b /opt/ARM/arm-linaro-eabi-4.6/lib/gcc/arm-none-eabi/4.7.3/../../../../arm-none-eabi/lib/thumb/cortex-m4/float-abi-hard/fpuv4-sp-d16/libm.a(lib_a-s_lib_ver.o)
 .comment       0x00000000       0x3b /opt/ARM/arm-linaro-eabi-4.6/lib/gcc/arm-none-eabi/4.7.3/../../../../arm-none-eabi/lib/thumb/cortex-m4/float-abi-hard/fpuv4-sp-d16/libm.a(lib_a-s_matherr.o)
 .comment       0x00000000       0x3b /opt/ARM/arm-linaro-eabi-4.6/lib/gcc/arm-none-eabi/4.7.3/../../../../arm-none-eabi/lib/thumb/cortex-m4/float-abi-hard/fpuv4-sp-d16/libm.a(lib_a-s_nan.o)
 .comment       0x00000000       0x3b /opt/ARM/arm-linaro-eabi-4.6/lib/gcc/arm-none-eabi/4.7.3/../../../../arm-none-eabi/lib/thumb/cortex-m4/float-abi-hard/fpuv4-sp-d16/libm.a(lib_a-s_rint.o)
 .comment       0x00000000       0x3b /opt/ARM/arm-linaro-eabi-4.6/lib/gcc/arm-none-eabi/4.7.3/../../../../arm-none-eabi/lib/thumb/cortex-m4/float-abi-hard/fpuv4-sp-d16/libm.a(lib_a-s_scalbn.o)
 .comment       0x00000000       0x3b /opt/ARM/arm-linaro-eabi-4.6/lib/gcc/arm-none-eabi/4.7.3/../../../../arm-none-eabi/lib/thumb/cortex-m4/float-abi-hard/fpuv4-sp-d16/libm.a(lib_a-s_copysign.o)
 .comment       0x00000000       0x3b /opt/ARM/arm-linaro-eabi-4.6/lib/gcc/arm-none-eabi/4.7.3/../../../../arm-none-eabi/lib/thumb/cortex-m4/float-abi-hard/fpuv4-sp-d16/libm.a(lib_a-sf_copysign.o)
 .comment       0x00000000       0x3b /opt/ARM/arm-linaro-eabi-4.6/lib/gcc/arm-none-eabi/4.7.3/../../../../arm-none-eabi/lib/thumb/cortex-m4/float-abi-hard/fpuv4-sp-d16/libc.a(lib_a-errno.o)
 .comment       0x00000000       0x3b /opt/ARM/arm-linaro-eabi-4.6/lib/gcc/arm-none-eabi/4.7.3/../../../../arm-none-eabi/lib/thumb/cortex-m4/float-abi-hard/fpuv4-sp-d16/libc.a(lib_a-impure.o)
 .comment       0x00000000       0x3b /opt/ARM/arm-linaro-eabi-4.6/lib/gcc/arm-none-eabi/4.7.3/../../../../arm-none-eabi/lib/thumb/cortex-m4/float-abi-hard/fpuv4-sp-d16/libc.a(lib_a-malloc.o)
 .comment       0x00000000       0x3b /opt/ARM/arm-linaro-eabi-4.6/lib/gcc/arm-none-eabi/4.7.3/../../../../arm-none-eabi/lib/thumb/cortex-m4/float-abi-hard/fpuv4-sp-d16/libc.a(lib_a-mallocr.o)
 .comment       0x00000000       0x3b /opt/ARM/arm-linaro-eabi-4.6/lib/gcc/arm-none-eabi/4.7.3/../../../../arm-none-eabi/lib/thumb/cortex-m4/float-abi-hard/fpuv4-sp-d16/libc.a(lib_a-memcpy-stub.o)
 .comment       0x00000000       0x3b /opt/ARM/arm-linaro-eabi-4.6/lib/gcc/arm-none-eabi/4.7.3/../../../../arm-none-eabi/lib/thumb/cortex-m4/float-abi-hard/fpuv4-sp-d16/libc.a(lib_a-memset.o)
 .comment       0x00000000       0x3b /opt/ARM/arm-linaro-eabi-4.6/lib/gcc/arm-none-eabi/4.7.3/../../../../arm-none-eabi/lib/thumb/cortex-m4/float-abi-hard/fpuv4-sp-d16/libc.a(lib_a-mlock.o)
 .comment       0x00000000       0x3b /opt/ARM/arm-linaro-eabi-4.6/lib/gcc/arm-none-eabi/4.7.3/../../../../arm-none-eabi/lib/thumb/cortex-m4/float-abi-hard/fpuv4-sp-d16/libc.a(lib_a-printf.o)
 .comment       0x00000000       0x3b /opt/ARM/arm-linaro-eabi-4.6/lib/gcc/arm-none-eabi/4.7.3/../../../../arm-none-eabi/lib/thumb/cortex-m4/float-abi-hard/fpuv4-sp-d16/libc.a(lib_a-putchar.o)
 .comment       0x00000000       0x3b /opt/ARM/arm-linaro-eabi-4.6/lib/gcc/arm-none-eabi/4.7.3/../../../../arm-none-eabi/lib/thumb/cortex-m4/float-abi-hard/fpuv4-sp-d16/libc.a(lib_a-putc.o)
 .comment       0x00000000       0x3b /opt/ARM/arm-linaro-eabi-4.6/lib/gcc/arm-none-eabi/4.7.3/../../../../arm-none-eabi/lib/thumb/cortex-m4/float-abi-hard/fpuv4-sp-d16/libc.a(lib_a-puts.o)
 .comment       0x00000000       0x3b /opt/ARM/arm-linaro-eabi-4.6/lib/gcc/arm-none-eabi/4.7.3/../../../../arm-none-eabi/lib/thumb/cortex-m4/float-abi-hard/fpuv4-sp-d16/libc.a(lib_a-rand.o)
 .comment       0x00000000       0x3b /opt/ARM/arm-linaro-eabi-4.6/lib/gcc/arm-none-eabi/4.7.3/../../../../arm-none-eabi/lib/thumb/cortex-m4/float-abi-hard/fpuv4-sp-d16/libc.a(lib_a-sbrkr.o)
 .comment       0x00000000       0x3b /opt/ARM/arm-linaro-eabi-4.6/lib/gcc/arm-none-eabi/4.7.3/../../../../arm-none-eabi/lib/thumb/cortex-m4/float-abi-hard/fpuv4-sp-d16/libc.a(lib_a-strlen.o)
 .comment       0x00000000       0x3b /opt/ARM/arm-linaro-eabi-4.6/lib/gcc/arm-none-eabi/4.7.3/../../../../arm-none-eabi/lib/thumb/cortex-m4/float-abi-hard/fpuv4-sp-d16/libc.a(lib_a-vfprintf.o)
 .comment       0x00000000       0x3b /opt/ARM/arm-linaro-eabi-4.6/lib/gcc/arm-none-eabi/4.7.3/../../../../arm-none-eabi/lib/thumb/cortex-m4/float-abi-hard/fpuv4-sp-d16/libc.a(lib_a-wbuf.o)
 .comment       0x00000000       0x3b /opt/ARM/arm-linaro-eabi-4.6/lib/gcc/arm-none-eabi/4.7.3/../../../../arm-none-eabi/lib/thumb/cortex-m4/float-abi-hard/fpuv4-sp-d16/libc.a(lib_a-wsetup.o)
 .comment       0x00000000       0x3b /opt/ARM/arm-linaro-eabi-4.6/lib/gcc/arm-none-eabi/4.7.3/../../../../arm-none-eabi/lib/thumb/cortex-m4/float-abi-hard/fpuv4-sp-d16/libc.a(lib_a-dtoa.o)
 .comment       0x00000000       0x3b /opt/ARM/arm-linaro-eabi-4.6/lib/gcc/arm-none-eabi/4.7.3/../../../../arm-none-eabi/lib/thumb/cortex-m4/float-abi-hard/fpuv4-sp-d16/libc.a(lib_a-fflush.o)
 .comment       0x00000000       0x3b /opt/ARM/arm-linaro-eabi-4.6/lib/gcc/arm-none-eabi/4.7.3/../../../../arm-none-eabi/lib/thumb/cortex-m4/float-abi-hard/fpuv4-sp-d16/libc.a(lib_a-findfp.o)
 .comment       0x00000000       0x3b /opt/ARM/arm-linaro-eabi-4.6/lib/gcc/arm-none-eabi/4.7.3/../../../../arm-none-eabi/lib/thumb/cortex-m4/float-abi-hard/fpuv4-sp-d16/libc.a(lib_a-freer.o)
 .comment       0x00000000       0x3b /opt/ARM/arm-linaro-eabi-4.6/lib/gcc/arm-none-eabi/4.7.3/../../../../arm-none-eabi/lib/thumb/cortex-m4/float-abi-hard/fpuv4-sp-d16/libc.a(lib_a-fvwrite.o)
 .comment       0x00000000       0x3b /opt/ARM/arm-linaro-eabi-4.6/lib/gcc/arm-none-eabi/4.7.3/../../../../arm-none-eabi/lib/thumb/cortex-m4/float-abi-hard/fpuv4-sp-d16/libc.a(lib_a-fwalk.o)
 .comment       0x00000000       0x3b /opt/ARM/arm-linaro-eabi-4.6/lib/gcc/arm-none-eabi/4.7.3/../../../../arm-none-eabi/lib/thumb/cortex-m4/float-abi-hard/fpuv4-sp-d16/libc.a(lib_a-locale.o)
 .comment       0x00000000       0x3b /opt/ARM/arm-linaro-eabi-4.6/lib/gcc/arm-none-eabi/4.7.3/../../../../arm-none-eabi/lib/thumb/cortex-m4/float-abi-hard/fpuv4-sp-d16/libc.a(lib_a-makebuf.o)
 .comment       0x00000000       0x3b /opt/ARM/arm-linaro-eabi-4.6/lib/gcc/arm-none-eabi/4.7.3/../../../../arm-none-eabi/lib/thumb/cortex-m4/float-abi-hard/fpuv4-sp-d16/libc.a(lib_a-memchr-stub.o)
 .comment       0x00000000       0x3b /opt/ARM/arm-linaro-eabi-4.6/lib/gcc/arm-none-eabi/4.7.3/../../../../arm-none-eabi/lib/thumb/cortex-m4/float-abi-hard/fpuv4-sp-d16/libc.a(lib_a-memmove.o)
 .comment       0x00000000       0x3b /opt/ARM/arm-linaro-eabi-4.6/lib/gcc/arm-none-eabi/4.7.3/../../../../arm-none-eabi/lib/thumb/cortex-m4/float-abi-hard/fpuv4-sp-d16/libc.a(lib_a-mprec.o)
 .comment       0x00000000       0x3b /opt/ARM/arm-linaro-eabi-4.6/lib/gcc/arm-none-eabi/4.7.3/../../../../arm-none-eabi/lib/thumb/cortex-m4/float-abi-hard/fpuv4-sp-d16/libc.a(lib_a-reallocr.o)
 .comment       0x00000000       0x3b /opt/ARM/arm-linaro-eabi-4.6/lib/gcc/arm-none-eabi/4.7.3/../../../../arm-none-eabi/lib/thumb/cortex-m4/float-abi-hard/fpuv4-sp-d16/libc.a(lib_a-reent.o)
 .comment       0x00000000       0x3b /opt/ARM/arm-linaro-eabi-4.6/lib/gcc/arm-none-eabi/4.7.3/../../../../arm-none-eabi/lib/thumb/cortex-m4/float-abi-hard/fpuv4-sp-d16/libc.a(lib_a-stdio.o)
 .comment       0x00000000       0x3b /opt/ARM/arm-linaro-eabi-4.6/lib/gcc/arm-none-eabi/4.7.3/../../../../arm-none-eabi/lib/thumb/cortex-m4/float-abi-hard/fpuv4-sp-d16/libc.a(lib_a-vfiprintf.o)
 .comment       0x00000000       0x3b /opt/ARM/arm-linaro-eabi-4.6/lib/gcc/arm-none-eabi/4.7.3/../../../../arm-none-eabi/lib/thumb/cortex-m4/float-abi-hard/fpuv4-sp-d16/libc.a(lib_a-writer.o)
 .comment       0x00000000       0x3b /opt/ARM/arm-linaro-eabi-4.6/lib/gcc/arm-none-eabi/4.7.3/../../../../arm-none-eabi/lib/thumb/cortex-m4/float-abi-hard/fpuv4-sp-d16/libc.a(lib_a-callocr.o)
 .comment       0x00000000       0x3b /opt/ARM/arm-linaro-eabi-4.6/lib/gcc/arm-none-eabi/4.7.3/../../../../arm-none-eabi/lib/thumb/cortex-m4/float-abi-hard/fpuv4-sp-d16/libc.a(lib_a-closer.o)
 .comment       0x00000000       0x3b /opt/ARM/arm-linaro-eabi-4.6/lib/gcc/arm-none-eabi/4.7.3/../../../../arm-none-eabi/lib/thumb/cortex-m4/float-abi-hard/fpuv4-sp-d16/libc.a(lib_a-fclose.o)
 .comment       0x00000000       0x3b /opt/ARM/arm-linaro-eabi-4.6/lib/gcc/arm-none-eabi/4.7.3/../../../../arm-none-eabi/lib/thumb/cortex-m4/float-abi-hard/fpuv4-sp-d16/libc.a(lib_a-fputwc.o)
 .comment       0x00000000       0x3b /opt/ARM/arm-linaro-eabi-4.6/lib/gcc/arm-none-eabi/4.7.3/../../../../arm-none-eabi/lib/thumb/cortex-m4/float-abi-hard/fpuv4-sp-d16/libc.a(lib_a-fstatr.o)
 .comment       0x00000000       0x3b /opt/ARM/arm-linaro-eabi-4.6/lib/gcc/arm-none-eabi/4.7.3/../../../../arm-none-eabi/lib/thumb/cortex-m4/float-abi-hard/fpuv4-sp-d16/libc.a(lib_a-isattyr.o)
 .comment       0x00000000       0x3b /opt/ARM/arm-linaro-eabi-4.6/lib/gcc/arm-none-eabi/4.7.3/../../../../arm-none-eabi/lib/thumb/cortex-m4/float-abi-hard/fpuv4-sp-d16/libc.a(lib_a-lseekr.o)
 .comment       0x00000000       0x3b /opt/ARM/arm-linaro-eabi-4.6/lib/gcc/arm-none-eabi/4.7.3/../../../../arm-none-eabi/lib/thumb/cortex-m4/float-abi-hard/fpuv4-sp-d16/libc.a(lib_a-readr.o)
 .comment       0x00000000       0x3b /opt/ARM/arm-linaro-eabi-4.6/lib/gcc/arm-none-eabi/4.7.3/../../../../arm-none-eabi/lib/thumb/cortex-m4/float-abi-hard/fpuv4-sp-d16/libc.a(lib_a-wcrtomb.o)
 .comment       0x00000000       0x3b /opt/ARM/arm-linaro-eabi-4.6/lib/gcc/arm-none-eabi/4.7.3/../../../../arm-none-eabi/lib/thumb/cortex-m4/float-abi-hard/fpuv4-sp-d16/libc.a(lib_a-wctomb_r.o)
 .comment       0x00000000       0x3b /opt/ARM/arm-linaro-eabi-4.6/lib/gcc/arm-none-eabi/4.7.3/thumb/cortex-m4/float-abi-hard/fpuv4-sp-d16/crtend.o

.debug_info     0x00000000    0x38397
 .debug_info    0x00000000      0x614 system_stm32f4xx.o
 .debug_info    0x00000614      0x616 main.o
 .debug_info    0x00000c2a      0xfa2 codec.o
 .debug_info    0x00001bcc      0xc0b i2s.o
 .debug_info    0x000027d7     0x112a adc.o
 .debug_info    0x00003901      0x815 stm32f4xx_gpio.o
 .debug_info    0x00004116      0xc68 stm32f4xx_i2c.o
 .debug_info    0x00004d7e      0xdd2 stm32f4xx_rcc.o
 .debug_info    0x00005b50      0xc92 stm32f4xx_spi.o
 .debug_info    0x000067e2      0x7a4 stm32f4xx_dma.o
 .debug_info    0x00006f86      0xd49 stm32f4xx_adc.o
 .debug_info    0x00007ccf      0xd96 syscalls.o
 .debug_info    0x00008a65     0x127d audio.o
 .debug_info    0x00009ce2      0x52a vosim.o
 .debug_info    0x0000a20c      0x3e1 mdavoc.o
 .debug_info    0x0000a5ed      0x479 mdavocoder.o
 .debug_info    0x0000aa66     0x1824 effect.o
 .debug_info    0x0000c28a      0x4f4 vocode.o
 .debug_info    0x0000c77e      0x1f5 klatt_phoneme.o
 .debug_info    0x0000c973      0xd44 sam.o
 .debug_info    0x0000d6b7      0xc6d render.o
 .debug_info    0x0000e324      0x8bc LPC/lpc.o
 .debug_info    0x0000ebe0      0x63b vocoder/vocode.o
 .debug_info    0x0000f21b      0x864 vocoder/fftn.o
 .debug_info    0x0000fa7f      0x276 scformant.o
 .debug_info    0x0000fcf5     0x12fa ./rsynth-2.0-port/holmes.o
 .debug_info    0x00010fef      0x250 ./rsynth-2.0-port/elements.o
 .debug_info    0x0001123f     0x280f ./rsynth-2.0-port/nsynth.o
 .debug_info    0x00013a4e      0x4d2 ./rsynth-2.0-port/say.o
 .debug_info    0x00013f20      0x355 ./rsynth-2.0-port/darray.o
 .debug_info    0x00014275      0x3d0 ./rsynth-2.0-port/def_pars.o
 .debug_info    0x00014645      0x1a3 /root/CMSIS/CMSIS/Lib/GCC/libarm_cortexM4lf_math.a(arm_biquad_cascade_df1_init_f32.o)
 .debug_info    0x000147e8      0x250 /root/CMSIS/CMSIS/Lib/GCC/libarm_cortexM4lf_math.a(arm_biquad_cascade_df1_f32.o)
 .debug_info    0x00014a38      0x24d /opt/ARM/arm-linaro-eabi-4.6/lib/gcc/arm-none-eabi/4.7.3/../../../../arm-none-eabi/lib/thumb/cortex-m4/float-abi-hard/fpuv4-sp-d16/libm.a(lib_a-s_cos.o)
 .debug_info    0x00014c85      0x1d7 /opt/ARM/arm-linaro-eabi-4.6/lib/gcc/arm-none-eabi/4.7.3/../../../../arm-none-eabi/lib/thumb/cortex-m4/float-abi-hard/fpuv4-sp-d16/libm.a(lib_a-sf_cos.o)
 .debug_info    0x00014e5c      0x1b2 /opt/ARM/arm-linaro-eabi-4.6/lib/gcc/arm-none-eabi/4.7.3/../../../../arm-none-eabi/lib/thumb/cortex-m4/float-abi-hard/fpuv4-sp-d16/libm.a(lib_a-s_floor.o)
 .debug_info    0x0001500e      0x1d5 /opt/ARM/arm-linaro-eabi-4.6/lib/gcc/arm-none-eabi/4.7.3/../../../../arm-none-eabi/lib/thumb/cortex-m4/float-abi-hard/fpuv4-sp-d16/libm.a(lib_a-sf_sin.o)
 .debug_info    0x000151e3      0x185 /opt/ARM/arm-linaro-eabi-4.6/lib/gcc/arm-none-eabi/4.7.3/../../../../arm-none-eabi/lib/thumb/cortex-m4/float-abi-hard/fpuv4-sp-d16/libm.a(lib_a-sf_tan.o)
 .debug_info    0x00015368      0x260 /opt/ARM/arm-linaro-eabi-4.6/lib/gcc/arm-none-eabi/4.7.3/../../../../arm-none-eabi/lib/thumb/cortex-m4/float-abi-hard/fpuv4-sp-d16/libm.a(lib_a-s_sin.o)
 .debug_info    0x000155c8      0x268 /opt/ARM/arm-linaro-eabi-4.6/lib/gcc/arm-none-eabi/4.7.3/../../../../arm-none-eabi/lib/thumb/cortex-m4/float-abi-hard/fpuv4-sp-d16/libm.a(lib_a-w_exp.o)
 .debug_info    0x00015830      0x298 /opt/ARM/arm-linaro-eabi-4.6/lib/gcc/arm-none-eabi/4.7.3/../../../../arm-none-eabi/lib/thumb/cortex-m4/float-abi-hard/fpuv4-sp-d16/libm.a(lib_a-wf_acos.o)
 .debug_info    0x00015ac8      0x254 /opt/ARM/arm-linaro-eabi-4.6/lib/gcc/arm-none-eabi/4.7.3/../../../../arm-none-eabi/lib/thumb/cortex-m4/float-abi-hard/fpuv4-sp-d16/libm.a(lib_a-wf_exp.o)
 .debug_info    0x00015d1c      0x3b2 /opt/ARM/arm-linaro-eabi-4.6/lib/gcc/arm-none-eabi/4.7.3/../../../../arm-none-eabi/lib/thumb/cortex-m4/float-abi-hard/fpuv4-sp-d16/libm.a(lib_a-wf_pow.o)
 .debug_info    0x000160ce      0x22e /opt/ARM/arm-linaro-eabi-4.6/lib/gcc/arm-none-eabi/4.7.3/../../../../arm-none-eabi/lib/thumb/cortex-m4/float-abi-hard/fpuv4-sp-d16/libm.a(lib_a-wf_sqrt.o)
 .debug_info    0x000162fc      0x291 /opt/ARM/arm-linaro-eabi-4.6/lib/gcc/arm-none-eabi/4.7.3/../../../../arm-none-eabi/lib/thumb/cortex-m4/float-abi-hard/fpuv4-sp-d16/libm.a(lib_a-w_log10.o)
 .debug_info    0x0001658d      0x34d /opt/ARM/arm-linaro-eabi-4.6/lib/gcc/arm-none-eabi/4.7.3/../../../../arm-none-eabi/lib/thumb/cortex-m4/float-abi-hard/fpuv4-sp-d16/libm.a(lib_a-e_exp.o)
 .debug_info    0x000168da      0x301 /opt/ARM/arm-linaro-eabi-4.6/lib/gcc/arm-none-eabi/4.7.3/../../../../arm-none-eabi/lib/thumb/cortex-m4/float-abi-hard/fpuv4-sp-d16/libm.a(lib_a-ef_acos.o)
 .debug_info    0x00016bdb      0x2c4 /opt/ARM/arm-linaro-eabi-4.6/lib/gcc/arm-none-eabi/4.7.3/../../../../arm-none-eabi/lib/thumb/cortex-m4/float-abi-hard/fpuv4-sp-d16/libm.a(lib_a-ef_exp.o)
 .debug_info    0x00016e9f      0x670 /opt/ARM/arm-linaro-eabi-4.6/lib/gcc/arm-none-eabi/4.7.3/../../../../arm-none-eabi/lib/thumb/cortex-m4/float-abi-hard/fpuv4-sp-d16/libm.a(lib_a-ef_pow.o)
 .debug_info    0x0001750f      0x37b /opt/ARM/arm-linaro-eabi-4.6/lib/gcc/arm-none-eabi/4.7.3/../../../../arm-none-eabi/lib/thumb/cortex-m4/float-abi-hard/fpuv4-sp-d16/libm.a(lib_a-ef_rem_pio2.o)
 .debug_info    0x0001788a      0x1b4 /opt/ARM/arm-linaro-eabi-4.6/lib/gcc/arm-none-eabi/4.7.3/../../../../arm-none-eabi/lib/thumb/cortex-m4/float-abi-hard/fpuv4-sp-d16/libm.a(lib_a-ef_sqrt.o)
 .debug_info    0x00017a3e      0x262 /opt/ARM/arm-linaro-eabi-4.6/lib/gcc/arm-none-eabi/4.7.3/../../../../arm-none-eabi/lib/thumb/cortex-m4/float-abi-hard/fpuv4-sp-d16/libm.a(lib_a-e_log10.o)
 .debug_info    0x00017ca0      0x300 /opt/ARM/arm-linaro-eabi-4.6/lib/gcc/arm-none-eabi/4.7.3/../../../../arm-none-eabi/lib/thumb/cortex-m4/float-abi-hard/fpuv4-sp-d16/libm.a(lib_a-e_log.o)
 .debug_info    0x00017fa0      0x410 /opt/ARM/arm-linaro-eabi-4.6/lib/gcc/arm-none-eabi/4.7.3/../../../../arm-none-eabi/lib/thumb/cortex-m4/float-abi-hard/fpuv4-sp-d16/libm.a(lib_a-e_rem_pio2.o)
 .debug_info    0x000183b0      0x229 /opt/ARM/arm-linaro-eabi-4.6/lib/gcc/arm-none-eabi/4.7.3/../../../../arm-none-eabi/lib/thumb/cortex-m4/float-abi-hard/fpuv4-sp-d16/libm.a(lib_a-k_cos.o)
 .debug_info    0x000185d9      0x192 /opt/ARM/arm-linaro-eabi-4.6/lib/gcc/arm-none-eabi/4.7.3/../../../../arm-none-eabi/lib/thumb/cortex-m4/float-abi-hard/fpuv4-sp-d16/libm.a(lib_a-kf_cos.o)
 .debug_info    0x0001876b      0x39b /opt/ARM/arm-linaro-eabi-4.6/lib/gcc/arm-none-eabi/4.7.3/../../../../arm-none-eabi/lib/thumb/cortex-m4/float-abi-hard/fpuv4-sp-d16/libm.a(lib_a-kf_rem_pio2.o)
 .debug_info    0x00018b06      0x182 /opt/ARM/arm-linaro-eabi-4.6/lib/gcc/arm-none-eabi/4.7.3/../../../../arm-none-eabi/lib/thumb/cortex-m4/float-abi-hard/fpuv4-sp-d16/libm.a(lib_a-kf_sin.o)
 .debug_info    0x00018c88      0x236 /opt/ARM/arm-linaro-eabi-4.6/lib/gcc/arm-none-eabi/4.7.3/../../../../arm-none-eabi/lib/thumb/cortex-m4/float-abi-hard/fpuv4-sp-d16/libm.a(lib_a-kf_tan.o)
 .debug_info    0x00018ebe      0x3c1 /opt/ARM/arm-linaro-eabi-4.6/lib/gcc/arm-none-eabi/4.7.3/../../../../arm-none-eabi/lib/thumb/cortex-m4/float-abi-hard/fpuv4-sp-d16/libm.a(lib_a-k_rem_pio2.o)
 .debug_info    0x0001927f      0x19d /opt/ARM/arm-linaro-eabi-4.6/lib/gcc/arm-none-eabi/4.7.3/../../../../arm-none-eabi/lib/thumb/cortex-m4/float-abi-hard/fpuv4-sp-d16/libm.a(lib_a-k_sin.o)
 .debug_info    0x0001941c      0x15d /opt/ARM/arm-linaro-eabi-4.6/lib/gcc/arm-none-eabi/4.7.3/../../../../arm-none-eabi/lib/thumb/cortex-m4/float-abi-hard/fpuv4-sp-d16/libm.a(lib_a-s_fabs.o)
 .debug_info    0x00019579       0xd0 /opt/ARM/arm-linaro-eabi-4.6/lib/gcc/arm-none-eabi/4.7.3/../../../../arm-none-eabi/lib/thumb/cortex-m4/float-abi-hard/fpuv4-sp-d16/libm.a(lib_a-sf_fabs.o)
 .debug_info    0x00019649       0xcf /opt/ARM/arm-linaro-eabi-4.6/lib/gcc/arm-none-eabi/4.7.3/../../../../arm-none-eabi/lib/thumb/cortex-m4/float-abi-hard/fpuv4-sp-d16/libm.a(lib_a-sf_finite.o)
 .debug_info    0x00019718      0x160 /opt/ARM/arm-linaro-eabi-4.6/lib/gcc/arm-none-eabi/4.7.3/../../../../arm-none-eabi/lib/thumb/cortex-m4/float-abi-hard/fpuv4-sp-d16/libm.a(lib_a-sf_floor.o)
 .debug_info    0x00019878       0xcc /opt/ARM/arm-linaro-eabi-4.6/lib/gcc/arm-none-eabi/4.7.3/../../../../arm-none-eabi/lib/thumb/cortex-m4/float-abi-hard/fpuv4-sp-d16/libm.a(lib_a-sf_fpclassify.o)
 .debug_info    0x00019944      0x150 /opt/ARM/arm-linaro-eabi-4.6/lib/gcc/arm-none-eabi/4.7.3/../../../../arm-none-eabi/lib/thumb/cortex-m4/float-abi-hard/fpuv4-sp-d16/libm.a(lib_a-s_finite.o)
 .debug_info    0x00019a94       0xd0 /opt/ARM/arm-linaro-eabi-4.6/lib/gcc/arm-none-eabi/4.7.3/../../../../arm-none-eabi/lib/thumb/cortex-m4/float-abi-hard/fpuv4-sp-d16/libm.a(lib_a-sf_nan.o)
 .debug_info    0x00019b64      0x153 /opt/ARM/arm-linaro-eabi-4.6/lib/gcc/arm-none-eabi/4.7.3/../../../../arm-none-eabi/lib/thumb/cortex-m4/float-abi-hard/fpuv4-sp-d16/libm.a(lib_a-s_fpclassify.o)
 .debug_info    0x00019cb7      0x22d /opt/ARM/arm-linaro-eabi-4.6/lib/gcc/arm-none-eabi/4.7.3/../../../../arm-none-eabi/lib/thumb/cortex-m4/float-abi-hard/fpuv4-sp-d16/libm.a(lib_a-sf_scalbn.o)
 .debug_info    0x00019ee4       0xc0 /opt/ARM/arm-linaro-eabi-4.6/lib/gcc/arm-none-eabi/4.7.3/../../../../arm-none-eabi/lib/thumb/cortex-m4/float-abi-hard/fpuv4-sp-d16/libm.a(lib_a-s_lib_ver.o)
 .debug_info    0x00019fa4      0x139 /opt/ARM/arm-linaro-eabi-4.6/lib/gcc/arm-none-eabi/4.7.3/../../../../arm-none-eabi/lib/thumb/cortex-m4/float-abi-hard/fpuv4-sp-d16/libm.a(lib_a-s_matherr.o)
 .debug_info    0x0001a0dd       0xd4 /opt/ARM/arm-linaro-eabi-4.6/lib/gcc/arm-none-eabi/4.7.3/../../../../arm-none-eabi/lib/thumb/cortex-m4/float-abi-hard/fpuv4-sp-d16/libm.a(lib_a-s_nan.o)
 .debug_info    0x0001a1b1      0x21d /opt/ARM/arm-linaro-eabi-4.6/lib/gcc/arm-none-eabi/4.7.3/../../../../arm-none-eabi/lib/thumb/cortex-m4/float-abi-hard/fpuv4-sp-d16/libm.a(lib_a-s_rint.o)
 .debug_info    0x0001a3ce      0x279 /opt/ARM/arm-linaro-eabi-4.6/lib/gcc/arm-none-eabi/4.7.3/../../../../arm-none-eabi/lib/thumb/cortex-m4/float-abi-hard/fpuv4-sp-d16/libm.a(lib_a-s_scalbn.o)
 .debug_info    0x0001a647      0x19b /opt/ARM/arm-linaro-eabi-4.6/lib/gcc/arm-none-eabi/4.7.3/../../../../arm-none-eabi/lib/thumb/cortex-m4/float-abi-hard/fpuv4-sp-d16/libm.a(lib_a-s_copysign.o)
 .debug_info    0x0001a7e2      0x130 /opt/ARM/arm-linaro-eabi-4.6/lib/gcc/arm-none-eabi/4.7.3/../../../../arm-none-eabi/lib/thumb/cortex-m4/float-abi-hard/fpuv4-sp-d16/libm.a(lib_a-sf_copysign.o)
 .debug_info    0x0001a912      0x969 /opt/ARM/arm-linaro-eabi-4.6/lib/gcc/arm-none-eabi/4.7.3/../../../../arm-none-eabi/lib/thumb/cortex-m4/float-abi-hard/fpuv4-sp-d16/libc.a(lib_a-errno.o)
 .debug_info    0x0001b27b      0x970 /opt/ARM/arm-linaro-eabi-4.6/lib/gcc/arm-none-eabi/4.7.3/../../../../arm-none-eabi/lib/thumb/cortex-m4/float-abi-hard/fpuv4-sp-d16/libc.a(lib_a-impure.o)
 .debug_info    0x0001bbeb      0xa01 /opt/ARM/arm-linaro-eabi-4.6/lib/gcc/arm-none-eabi/4.7.3/../../../../arm-none-eabi/lib/thumb/cortex-m4/float-abi-hard/fpuv4-sp-d16/libc.a(lib_a-malloc.o)
 .debug_info    0x0001c5ec      0xe90 /opt/ARM/arm-linaro-eabi-4.6/lib/gcc/arm-none-eabi/4.7.3/../../../../arm-none-eabi/lib/thumb/cortex-m4/float-abi-hard/fpuv4-sp-d16/libc.a(lib_a-mallocr.o)
 .debug_info    0x0001d47c      0x136 /opt/ARM/arm-linaro-eabi-4.6/lib/gcc/arm-none-eabi/4.7.3/../../../../arm-none-eabi/lib/thumb/cortex-m4/float-abi-hard/fpuv4-sp-d16/libc.a(lib_a-memcpy-stub.o)
 .debug_info    0x0001d5b2      0x11c /opt/ARM/arm-linaro-eabi-4.6/lib/gcc/arm-none-eabi/4.7.3/../../../../arm-none-eabi/lib/thumb/cortex-m4/float-abi-hard/fpuv4-sp-d16/libc.a(lib_a-memset.o)
 .debug_info    0x0001d6ce      0x994 /opt/ARM/arm-linaro-eabi-4.6/lib/gcc/arm-none-eabi/4.7.3/../../../../arm-none-eabi/lib/thumb/cortex-m4/float-abi-hard/fpuv4-sp-d16/libc.a(lib_a-mlock.o)
 .debug_info    0x0001e062      0xa97 /opt/ARM/arm-linaro-eabi-4.6/lib/gcc/arm-none-eabi/4.7.3/../../../../arm-none-eabi/lib/thumb/cortex-m4/float-abi-hard/fpuv4-sp-d16/libc.a(lib_a-printf.o)
 .debug_info    0x0001eaf9      0xa0f /opt/ARM/arm-linaro-eabi-4.6/lib/gcc/arm-none-eabi/4.7.3/../../../../arm-none-eabi/lib/thumb/cortex-m4/float-abi-hard/fpuv4-sp-d16/libc.a(lib_a-putchar.o)
 .debug_info    0x0001f508      0xaa6 /opt/ARM/arm-linaro-eabi-4.6/lib/gcc/arm-none-eabi/4.7.3/../../../../arm-none-eabi/lib/thumb/cortex-m4/float-abi-hard/fpuv4-sp-d16/libc.a(lib_a-putc.o)
 .debug_info    0x0001ffae      0xb0c /opt/ARM/arm-linaro-eabi-4.6/lib/gcc/arm-none-eabi/4.7.3/../../../../arm-none-eabi/lib/thumb/cortex-m4/float-abi-hard/fpuv4-sp-d16/libc.a(lib_a-puts.o)
 .debug_info    0x00020aba      0x98b /opt/ARM/arm-linaro-eabi-4.6/lib/gcc/arm-none-eabi/4.7.3/../../../../arm-none-eabi/lib/thumb/cortex-m4/float-abi-hard/fpuv4-sp-d16/libc.a(lib_a-rand.o)
 .debug_info    0x00021445      0x9db /opt/ARM/arm-linaro-eabi-4.6/lib/gcc/arm-none-eabi/4.7.3/../../../../arm-none-eabi/lib/thumb/cortex-m4/float-abi-hard/fpuv4-sp-d16/libc.a(lib_a-sbrkr.o)
 .debug_info    0x00021e20       0xf1 /opt/ARM/arm-linaro-eabi-4.6/lib/gcc/arm-none-eabi/4.7.3/../../../../arm-none-eabi/lib/thumb/cortex-m4/float-abi-hard/fpuv4-sp-d16/libc.a(lib_a-strcmp.o)
 .debug_info    0x00021f11       0xb9 /opt/ARM/arm-linaro-eabi-4.6/lib/gcc/arm-none-eabi/4.7.3/../../../../arm-none-eabi/lib/thumb/cortex-m4/float-abi-hard/fpuv4-sp-d16/libc.a(lib_a-strlen.o)
 .debug_info    0x00021fca     0x193d /opt/ARM/arm-linaro-eabi-4.6/lib/gcc/arm-none-eabi/4.7.3/../../../../arm-none-eabi/lib/thumb/cortex-m4/float-abi-hard/fpuv4-sp-d16/libc.a(lib_a-vfprintf.o)
 .debug_info    0x00023907      0xaa6 /opt/ARM/arm-linaro-eabi-4.6/lib/gcc/arm-none-eabi/4.7.3/../../../../arm-none-eabi/lib/thumb/cortex-m4/float-abi-hard/fpuv4-sp-d16/libc.a(lib_a-wbuf.o)
 .debug_info    0x000243ad      0xa0c /opt/ARM/arm-linaro-eabi-4.6/lib/gcc/arm-none-eabi/4.7.3/../../../../arm-none-eabi/lib/thumb/cortex-m4/float-abi-hard/fpuv4-sp-d16/libc.a(lib_a-wsetup.o)
 .debug_info    0x00024db9     0x143c /opt/ARM/arm-linaro-eabi-4.6/lib/gcc/arm-none-eabi/4.7.3/../../../../arm-none-eabi/lib/thumb/cortex-m4/float-abi-hard/fpuv4-sp-d16/libc.a(lib_a-dtoa.o)
 .debug_info    0x000261f5      0xb8e /opt/ARM/arm-linaro-eabi-4.6/lib/gcc/arm-none-eabi/4.7.3/../../../../arm-none-eabi/lib/thumb/cortex-m4/float-abi-hard/fpuv4-sp-d16/libc.a(lib_a-fflush.o)
 .debug_info    0x00026d83      0xdc8 /opt/ARM/arm-linaro-eabi-4.6/lib/gcc/arm-none-eabi/4.7.3/../../../../arm-none-eabi/lib/thumb/cortex-m4/float-abi-hard/fpuv4-sp-d16/libc.a(lib_a-findfp.o)
 .debug_info    0x00027b4b      0xd1a /opt/ARM/arm-linaro-eabi-4.6/lib/gcc/arm-none-eabi/4.7.3/../../../../arm-none-eabi/lib/thumb/cortex-m4/float-abi-hard/fpuv4-sp-d16/libc.a(lib_a-freer.o)
 .debug_info    0x00028865      0xd70 /opt/ARM/arm-linaro-eabi-4.6/lib/gcc/arm-none-eabi/4.7.3/../../../../arm-none-eabi/lib/thumb/cortex-m4/float-abi-hard/fpuv4-sp-d16/libc.a(lib_a-fvwrite.o)
 .debug_info    0x000295d5      0xa82 /opt/ARM/arm-linaro-eabi-4.6/lib/gcc/arm-none-eabi/4.7.3/../../../../arm-none-eabi/lib/thumb/cortex-m4/float-abi-hard/fpuv4-sp-d16/libc.a(lib_a-fwalk.o)
 .debug_info    0x0002a057      0xd1a /opt/ARM/arm-linaro-eabi-4.6/lib/gcc/arm-none-eabi/4.7.3/../../../../arm-none-eabi/lib/thumb/cortex-m4/float-abi-hard/fpuv4-sp-d16/libc.a(lib_a-locale.o)
 .debug_info    0x0002ad71      0xbf0 /opt/ARM/arm-linaro-eabi-4.6/lib/gcc/arm-none-eabi/4.7.3/../../../../arm-none-eabi/lib/thumb/cortex-m4/float-abi-hard/fpuv4-sp-d16/libc.a(lib_a-makebuf.o)
 .debug_info    0x0002b961      0x12e /opt/ARM/arm-linaro-eabi-4.6/lib/gcc/arm-none-eabi/4.7.3/../../../../arm-none-eabi/lib/thumb/cortex-m4/float-abi-hard/fpuv4-sp-d16/libc.a(lib_a-memchr-stub.o)
 .debug_info    0x0002ba8f      0x136 /opt/ARM/arm-linaro-eabi-4.6/lib/gcc/arm-none-eabi/4.7.3/../../../../arm-none-eabi/lib/thumb/cortex-m4/float-abi-hard/fpuv4-sp-d16/libc.a(lib_a-memmove.o)
 .debug_info    0x0002bbc5     0x1770 /opt/ARM/arm-linaro-eabi-4.6/lib/gcc/arm-none-eabi/4.7.3/../../../../arm-none-eabi/lib/thumb/cortex-m4/float-abi-hard/fpuv4-sp-d16/libc.a(lib_a-mprec.o)
 .debug_info    0x0002d335      0xdda /opt/ARM/arm-linaro-eabi-4.6/lib/gcc/arm-none-eabi/4.7.3/../../../../arm-none-eabi/lib/thumb/cortex-m4/float-abi-hard/fpuv4-sp-d16/libc.a(lib_a-reallocr.o)
 .debug_info    0x0002e10f      0xb38 /opt/ARM/arm-linaro-eabi-4.6/lib/gcc/arm-none-eabi/4.7.3/../../../../arm-none-eabi/lib/thumb/cortex-m4/float-abi-hard/fpuv4-sp-d16/libc.a(lib_a-reent.o)
 .debug_info    0x0002ec47      0xc7b /opt/ARM/arm-linaro-eabi-4.6/lib/gcc/arm-none-eabi/4.7.3/../../../../arm-none-eabi/lib/thumb/cortex-m4/float-abi-hard/fpuv4-sp-d16/libc.a(lib_a-stdio.o)
 .debug_info    0x0002f8c2     0x12bc /opt/ARM/arm-linaro-eabi-4.6/lib/gcc/arm-none-eabi/4.7.3/../../../../arm-none-eabi/lib/thumb/cortex-m4/float-abi-hard/fpuv4-sp-d16/libc.a(lib_a-vfiprintf.o)
 .debug_info    0x00030b7e      0xa0e /opt/ARM/arm-linaro-eabi-4.6/lib/gcc/arm-none-eabi/4.7.3/../../../../arm-none-eabi/lib/thumb/cortex-m4/float-abi-hard/fpuv4-sp-d16/libc.a(lib_a-writer.o)
 .debug_info    0x0003158c      0xacd /opt/ARM/arm-linaro-eabi-4.6/lib/gcc/arm-none-eabi/4.7.3/../../../../arm-none-eabi/lib/thumb/cortex-m4/float-abi-hard/fpuv4-sp-d16/libc.a(lib_a-callocr.o)
 .debug_info    0x00032059      0x9c5 /opt/ARM/arm-linaro-eabi-4.6/lib/gcc/arm-none-eabi/4.7.3/../../../../arm-none-eabi/lib/thumb/cortex-m4/float-abi-hard/fpuv4-sp-d16/libc.a(lib_a-closer.o)
 .debug_info    0x00032a1e      0xabb /opt/ARM/arm-linaro-eabi-4.6/lib/gcc/arm-none-eabi/4.7.3/../../../../arm-none-eabi/lib/thumb/cortex-m4/float-abi-hard/fpuv4-sp-d16/libc.a(lib_a-fclose.o)
 .debug_info    0x000334d9      0xb82 /opt/ARM/arm-linaro-eabi-4.6/lib/gcc/arm-none-eabi/4.7.3/../../../../arm-none-eabi/lib/thumb/cortex-m4/float-abi-hard/fpuv4-sp-d16/libc.a(lib_a-fputwc.o)
 .debug_info    0x0003405b      0xb65 /opt/ARM/arm-linaro-eabi-4.6/lib/gcc/arm-none-eabi/4.7.3/../../../../arm-none-eabi/lib/thumb/cortex-m4/float-abi-hard/fpuv4-sp-d16/libc.a(lib_a-fstatr.o)
 .debug_info    0x00034bc0      0x9c5 /opt/ARM/arm-linaro-eabi-4.6/lib/gcc/arm-none-eabi/4.7.3/../../../../arm-none-eabi/lib/thumb/cortex-m4/float-abi-hard/fpuv4-sp-d16/libc.a(lib_a-isattyr.o)
 .debug_info    0x00035585      0x9f1 /opt/ARM/arm-linaro-eabi-4.6/lib/gcc/arm-none-eabi/4.7.3/../../../../arm-none-eabi/lib/thumb/cortex-m4/float-abi-hard/fpuv4-sp-d16/libc.a(lib_a-lseekr.o)
 .debug_info    0x00035f76      0xa07 /opt/ARM/arm-linaro-eabi-4.6/lib/gcc/arm-none-eabi/4.7.3/../../../../arm-none-eabi/lib/thumb/cortex-m4/float-abi-hard/fpuv4-sp-d16/libc.a(lib_a-readr.o)
 .debug_info    0x0003697d      0xb54 /opt/ARM/arm-linaro-eabi-4.6/lib/gcc/arm-none-eabi/4.7.3/../../../../arm-none-eabi/lib/thumb/cortex-m4/float-abi-hard/fpuv4-sp-d16/libc.a(lib_a-wcrtomb.o)
 .debug_info    0x000374d1      0xa9d /opt/ARM/arm-linaro-eabi-4.6/lib/gcc/arm-none-eabi/4.7.3/../../../../arm-none-eabi/lib/thumb/cortex-m4/float-abi-hard/fpuv4-sp-d16/libc.a(lib_a-wctomb_r.o)
 .debug_info    0x00037f6e       0xd5 /opt/ARM/arm-linaro-eabi-4.6/lib/gcc/arm-none-eabi/4.7.3/thumb/cortex-m4/float-abi-hard/fpuv4-sp-d16/libgcc.a(_arm_addsubdf3.o)
 .debug_info    0x00038043       0xd5 /opt/ARM/arm-linaro-eabi-4.6/lib/gcc/arm-none-eabi/4.7.3/thumb/cortex-m4/float-abi-hard/fpuv4-sp-d16/libgcc.a(_arm_muldivdf3.o)
 .debug_info    0x00038118       0xd5 /opt/ARM/arm-linaro-eabi-4.6/lib/gcc/arm-none-eabi/4.7.3/thumb/cortex-m4/float-abi-hard/fpuv4-sp-d16/libgcc.a(_arm_cmpdf2.o)
 .debug_info    0x000381ed       0xd5 /opt/ARM/arm-linaro-eabi-4.6/lib/gcc/arm-none-eabi/4.7.3/thumb/cortex-m4/float-abi-hard/fpuv4-sp-d16/libgcc.a(_arm_fixdfsi.o)
 .debug_info    0x000382c2       0xd5 /opt/ARM/arm-linaro-eabi-4.6/lib/gcc/arm-none-eabi/4.7.3/thumb/cortex-m4/float-abi-hard/fpuv4-sp-d16/libgcc.a(_arm_truncdfsf2.o)

.debug_abbrev   0x00000000     0xc633
 .debug_abbrev  0x00000000      0x15f system_stm32f4xx.o
 .debug_abbrev  0x0000015f      0x20e main.o
 .debug_abbrev  0x0000036d      0x29e codec.o
 .debug_abbrev  0x0000060b      0x251 i2s.o
 .debug_abbrev  0x0000085c      0x245 adc.o
 .debug_abbrev  0x00000aa1      0x22c stm32f4xx_gpio.o
 .debug_abbrev  0x00000ccd      0x216 stm32f4xx_i2c.o
 .debug_abbrev  0x00000ee3      0x2b6 stm32f4xx_rcc.o
 .debug_abbrev  0x00001199      0x21d stm32f4xx_spi.o
 .debug_abbrev  0x000013b6      0x1ab stm32f4xx_dma.o
 .debug_abbrev  0x00001561      0x204 stm32f4xx_adc.o
 .debug_abbrev  0x00001765      0x22a syscalls.o
 .debug_abbrev  0x0000198f      0x30d audio.o
 .debug_abbrev  0x00001c9c      0x212 vosim.o
 .debug_abbrev  0x00001eae      0x187 mdavoc.o
 .debug_abbrev  0x00002035      0x1d6 mdavocoder.o
 .debug_abbrev  0x0000220b      0x3a1 effect.o
 .debug_abbrev  0x000025ac      0x257 vocode.o
 .debug_abbrev  0x00002803      0x122 klatt_phoneme.o
 .debug_abbrev  0x00002925      0x316 sam.o
 .debug_abbrev  0x00002c3b      0x31c render.o
 .debug_abbrev  0x00002f57      0x216 LPC/lpc.o
 .debug_abbrev  0x0000316d      0x1e3 vocoder/vocode.o
 .debug_abbrev  0x00003350      0x27c vocoder/fftn.o
 .debug_abbrev  0x000035cc      0x124 scformant.o
 .debug_abbrev  0x000036f0      0x3c2 ./rsynth-2.0-port/holmes.o
 .debug_abbrev  0x00003ab2       0xba ./rsynth-2.0-port/elements.o
 .debug_abbrev  0x00003b6c      0x30e ./rsynth-2.0-port/nsynth.o
 .debug_abbrev  0x00003e7a      0x1d3 ./rsynth-2.0-port/say.o
 .debug_abbrev  0x0000404d      0x1be ./rsynth-2.0-port/darray.o
 .debug_abbrev  0x0000420b       0xab ./rsynth-2.0-port/def_pars.o
 .debug_abbrev  0x000042b6       0xd9 /root/CMSIS/CMSIS/Lib/GCC/libarm_cortexM4lf_math.a(arm_biquad_cascade_df1_init_f32.o)
 .debug_abbrev  0x0000438f       0xe6 /root/CMSIS/CMSIS/Lib/GCC/libarm_cortexM4lf_math.a(arm_biquad_cascade_df1_f32.o)
 .debug_abbrev  0x00004475      0x165 /opt/ARM/arm-linaro-eabi-4.6/lib/gcc/arm-none-eabi/4.7.3/../../../../arm-none-eabi/lib/thumb/cortex-m4/float-abi-hard/fpuv4-sp-d16/libm.a(lib_a-s_cos.o)
 .debug_abbrev  0x000045da      0x10f /opt/ARM/arm-linaro-eabi-4.6/lib/gcc/arm-none-eabi/4.7.3/../../../../arm-none-eabi/lib/thumb/cortex-m4/float-abi-hard/fpuv4-sp-d16/libm.a(lib_a-sf_cos.o)
 .debug_abbrev  0x000046e9       0xe9 /opt/ARM/arm-linaro-eabi-4.6/lib/gcc/arm-none-eabi/4.7.3/../../../../arm-none-eabi/lib/thumb/cortex-m4/float-abi-hard/fpuv4-sp-d16/libm.a(lib_a-s_floor.o)
 .debug_abbrev  0x000047d2       0xfd /opt/ARM/arm-linaro-eabi-4.6/lib/gcc/arm-none-eabi/4.7.3/../../../../arm-none-eabi/lib/thumb/cortex-m4/float-abi-hard/fpuv4-sp-d16/libm.a(lib_a-sf_sin.o)
 .debug_abbrev  0x000048cf      0x108 /opt/ARM/arm-linaro-eabi-4.6/lib/gcc/arm-none-eabi/4.7.3/../../../../arm-none-eabi/lib/thumb/cortex-m4/float-abi-hard/fpuv4-sp-d16/libm.a(lib_a-sf_tan.o)
 .debug_abbrev  0x000049d7      0x15a /opt/ARM/arm-linaro-eabi-4.6/lib/gcc/arm-none-eabi/4.7.3/../../../../arm-none-eabi/lib/thumb/cortex-m4/float-abi-hard/fpuv4-sp-d16/libm.a(lib_a-s_sin.o)
 .debug_abbrev  0x00004b31      0x150 /opt/ARM/arm-linaro-eabi-4.6/lib/gcc/arm-none-eabi/4.7.3/../../../../arm-none-eabi/lib/thumb/cortex-m4/float-abi-hard/fpuv4-sp-d16/libm.a(lib_a-w_exp.o)
 .debug_abbrev  0x00004c81      0x156 /opt/ARM/arm-linaro-eabi-4.6/lib/gcc/arm-none-eabi/4.7.3/../../../../arm-none-eabi/lib/thumb/cortex-m4/float-abi-hard/fpuv4-sp-d16/libm.a(lib_a-wf_acos.o)
 .debug_abbrev  0x00004dd7      0x150 /opt/ARM/arm-linaro-eabi-4.6/lib/gcc/arm-none-eabi/4.7.3/../../../../arm-none-eabi/lib/thumb/cortex-m4/float-abi-hard/fpuv4-sp-d16/libm.a(lib_a-wf_exp.o)
 .debug_abbrev  0x00004f27      0x158 /opt/ARM/arm-linaro-eabi-4.6/lib/gcc/arm-none-eabi/4.7.3/../../../../arm-none-eabi/lib/thumb/cortex-m4/float-abi-hard/fpuv4-sp-d16/libm.a(lib_a-wf_pow.o)
 .debug_abbrev  0x0000507f      0x13a /opt/ARM/arm-linaro-eabi-4.6/lib/gcc/arm-none-eabi/4.7.3/../../../../arm-none-eabi/lib/thumb/cortex-m4/float-abi-hard/fpuv4-sp-d16/libm.a(lib_a-wf_sqrt.o)
 .debug_abbrev  0x000051b9      0x156 /opt/ARM/arm-linaro-eabi-4.6/lib/gcc/arm-none-eabi/4.7.3/../../../../arm-none-eabi/lib/thumb/cortex-m4/float-abi-hard/fpuv4-sp-d16/libm.a(lib_a-w_log10.o)
 .debug_abbrev  0x0000530f      0x140 /opt/ARM/arm-linaro-eabi-4.6/lib/gcc/arm-none-eabi/4.7.3/../../../../arm-none-eabi/lib/thumb/cortex-m4/float-abi-hard/fpuv4-sp-d16/libm.a(lib_a-e_exp.o)
 .debug_abbrev  0x0000544f      0x122 /opt/ARM/arm-linaro-eabi-4.6/lib/gcc/arm-none-eabi/4.7.3/../../../../arm-none-eabi/lib/thumb/cortex-m4/float-abi-hard/fpuv4-sp-d16/libm.a(lib_a-ef_acos.o)
 .debug_abbrev  0x00005571      0x110 /opt/ARM/arm-linaro-eabi-4.6/lib/gcc/arm-none-eabi/4.7.3/../../../../arm-none-eabi/lib/thumb/cortex-m4/float-abi-hard/fpuv4-sp-d16/libm.a(lib_a-ef_exp.o)
 .debug_abbrev  0x00005681      0x1b5 /opt/ARM/arm-linaro-eabi-4.6/lib/gcc/arm-none-eabi/4.7.3/../../../../arm-none-eabi/lib/thumb/cortex-m4/float-abi-hard/fpuv4-sp-d16/libm.a(lib_a-ef_pow.o)
 .debug_abbrev  0x00005836      0x15d /opt/ARM/arm-linaro-eabi-4.6/lib/gcc/arm-none-eabi/4.7.3/../../../../arm-none-eabi/lib/thumb/cortex-m4/float-abi-hard/fpuv4-sp-d16/libm.a(lib_a-ef_rem_pio2.o)
 .debug_abbrev  0x00005993       0xd5 /opt/ARM/arm-linaro-eabi-4.6/lib/gcc/arm-none-eabi/4.7.3/../../../../arm-none-eabi/lib/thumb/cortex-m4/float-abi-hard/fpuv4-sp-d16/libm.a(lib_a-ef_sqrt.o)
 .debug_abbrev  0x00005a68      0x131 /opt/ARM/arm-linaro-eabi-4.6/lib/gcc/arm-none-eabi/4.7.3/../../../../arm-none-eabi/lib/thumb/cortex-m4/float-abi-hard/fpuv4-sp-d16/libm.a(lib_a-e_log10.o)
 .debug_abbrev  0x00005b99      0x112 /opt/ARM/arm-linaro-eabi-4.6/lib/gcc/arm-none-eabi/4.7.3/../../../../arm-none-eabi/lib/thumb/cortex-m4/float-abi-hard/fpuv4-sp-d16/libm.a(lib_a-e_log.o)
 .debug_abbrev  0x00005cab      0x193 /opt/ARM/arm-linaro-eabi-4.6/lib/gcc/arm-none-eabi/4.7.3/../../../../arm-none-eabi/lib/thumb/cortex-m4/float-abi-hard/fpuv4-sp-d16/libm.a(lib_a-e_rem_pio2.o)
 .debug_abbrev  0x00005e3e       0xe2 /opt/ARM/arm-linaro-eabi-4.6/lib/gcc/arm-none-eabi/4.7.3/../../../../arm-none-eabi/lib/thumb/cortex-m4/float-abi-hard/fpuv4-sp-d16/libm.a(lib_a-k_cos.o)
 .debug_abbrev  0x00005f20       0x87 /opt/ARM/arm-linaro-eabi-4.6/lib/gcc/arm-none-eabi/4.7.3/../../../../arm-none-eabi/lib/thumb/cortex-m4/float-abi-hard/fpuv4-sp-d16/libm.a(lib_a-kf_cos.o)
 .debug_abbrev  0x00005fa7      0x14d /opt/ARM/arm-linaro-eabi-4.6/lib/gcc/arm-none-eabi/4.7.3/../../../../arm-none-eabi/lib/thumb/cortex-m4/float-abi-hard/fpuv4-sp-d16/libm.a(lib_a-kf_rem_pio2.o)
 .debug_abbrev  0x000060f4       0xa5 /opt/ARM/arm-linaro-eabi-4.6/lib/gcc/arm-none-eabi/4.7.3/../../../../arm-none-eabi/lib/thumb/cortex-m4/float-abi-hard/fpuv4-sp-d16/libm.a(lib_a-kf_sin.o)
 .debug_abbrev  0x00006199      0x124 /opt/ARM/arm-linaro-eabi-4.6/lib/gcc/arm-none-eabi/4.7.3/../../../../arm-none-eabi/lib/thumb/cortex-m4/float-abi-hard/fpuv4-sp-d16/libm.a(lib_a-kf_tan.o)
 .debug_abbrev  0x000062bd      0x158 /opt/ARM/arm-linaro-eabi-4.6/lib/gcc/arm-none-eabi/4.7.3/../../../../arm-none-eabi/lib/thumb/cortex-m4/float-abi-hard/fpuv4-sp-d16/libm.a(lib_a-k_rem_pio2.o)
 .debug_abbrev  0x00006415       0xa3 /opt/ARM/arm-linaro-eabi-4.6/lib/gcc/arm-none-eabi/4.7.3/../../../../arm-none-eabi/lib/thumb/cortex-m4/float-abi-hard/fpuv4-sp-d16/libm.a(lib_a-k_sin.o)
 .debug_abbrev  0x000064b8       0xd5 /opt/ARM/arm-linaro-eabi-4.6/lib/gcc/arm-none-eabi/4.7.3/../../../../arm-none-eabi/lib/thumb/cortex-m4/float-abi-hard/fpuv4-sp-d16/libm.a(lib_a-s_fabs.o)
 .debug_abbrev  0x0000658d       0x6f /opt/ARM/arm-linaro-eabi-4.6/lib/gcc/arm-none-eabi/4.7.3/../../../../arm-none-eabi/lib/thumb/cortex-m4/float-abi-hard/fpuv4-sp-d16/libm.a(lib_a-sf_fabs.o)
 .debug_abbrev  0x000065fc       0x6f /opt/ARM/arm-linaro-eabi-4.6/lib/gcc/arm-none-eabi/4.7.3/../../../../arm-none-eabi/lib/thumb/cortex-m4/float-abi-hard/fpuv4-sp-d16/libm.a(lib_a-sf_finite.o)
 .debug_abbrev  0x0000666b       0xc4 /opt/ARM/arm-linaro-eabi-4.6/lib/gcc/arm-none-eabi/4.7.3/../../../../arm-none-eabi/lib/thumb/cortex-m4/float-abi-hard/fpuv4-sp-d16/libm.a(lib_a-sf_floor.o)
 .debug_abbrev  0x0000672f       0x6f /opt/ARM/arm-linaro-eabi-4.6/lib/gcc/arm-none-eabi/4.7.3/../../../../arm-none-eabi/lib/thumb/cortex-m4/float-abi-hard/fpuv4-sp-d16/libm.a(lib_a-sf_fpclassify.o)
 .debug_abbrev  0x0000679e       0xca /opt/ARM/arm-linaro-eabi-4.6/lib/gcc/arm-none-eabi/4.7.3/../../../../arm-none-eabi/lib/thumb/cortex-m4/float-abi-hard/fpuv4-sp-d16/libm.a(lib_a-s_finite.o)
 .debug_abbrev  0x00006868       0x72 /opt/ARM/arm-linaro-eabi-4.6/lib/gcc/arm-none-eabi/4.7.3/../../../../arm-none-eabi/lib/thumb/cortex-m4/float-abi-hard/fpuv4-sp-d16/libm.a(lib_a-sf_nan.o)
 .debug_abbrev  0x000068da       0xca /opt/ARM/arm-linaro-eabi-4.6/lib/gcc/arm-none-eabi/4.7.3/../../../../arm-none-eabi/lib/thumb/cortex-m4/float-abi-hard/fpuv4-sp-d16/libm.a(lib_a-s_fpclassify.o)
 .debug_abbrev  0x000069a4      0x113 /opt/ARM/arm-linaro-eabi-4.6/lib/gcc/arm-none-eabi/4.7.3/../../../../arm-none-eabi/lib/thumb/cortex-m4/float-abi-hard/fpuv4-sp-d16/libm.a(lib_a-sf_scalbn.o)
 .debug_abbrev  0x00006ab7       0x4f /opt/ARM/arm-linaro-eabi-4.6/lib/gcc/arm-none-eabi/4.7.3/../../../../arm-none-eabi/lib/thumb/cortex-m4/float-abi-hard/fpuv4-sp-d16/libm.a(lib_a-s_lib_ver.o)
 .debug_abbrev  0x00006b06       0x9a /opt/ARM/arm-linaro-eabi-4.6/lib/gcc/arm-none-eabi/4.7.3/../../../../arm-none-eabi/lib/thumb/cortex-m4/float-abi-hard/fpuv4-sp-d16/libm.a(lib_a-s_matherr.o)
 .debug_abbrev  0x00006ba0       0x72 /opt/ARM/arm-linaro-eabi-4.6/lib/gcc/arm-none-eabi/4.7.3/../../../../arm-none-eabi/lib/thumb/cortex-m4/float-abi-hard/fpuv4-sp-d16/libm.a(lib_a-s_nan.o)
 .debug_abbrev  0x00006c12      0x11e /opt/ARM/arm-linaro-eabi-4.6/lib/gcc/arm-none-eabi/4.7.3/../../../../arm-none-eabi/lib/thumb/cortex-m4/float-abi-hard/fpuv4-sp-d16/libm.a(lib_a-s_rint.o)
 .debug_abbrev  0x00006d30      0x138 /opt/ARM/arm-linaro-eabi-4.6/lib/gcc/arm-none-eabi/4.7.3/../../../../arm-none-eabi/lib/thumb/cortex-m4/float-abi-hard/fpuv4-sp-d16/libm.a(lib_a-s_scalbn.o)
 .debug_abbrev  0x00006e68      0x102 /opt/ARM/arm-linaro-eabi-4.6/lib/gcc/arm-none-eabi/4.7.3/../../../../arm-none-eabi/lib/thumb/cortex-m4/float-abi-hard/fpuv4-sp-d16/libm.a(lib_a-s_copysign.o)
 .debug_abbrev  0x00006f6a       0xcc /opt/ARM/arm-linaro-eabi-4.6/lib/gcc/arm-none-eabi/4.7.3/../../../../arm-none-eabi/lib/thumb/cortex-m4/float-abi-hard/fpuv4-sp-d16/libm.a(lib_a-sf_copysign.o)
 .debug_abbrev  0x00007036      0x171 /opt/ARM/arm-linaro-eabi-4.6/lib/gcc/arm-none-eabi/4.7.3/../../../../arm-none-eabi/lib/thumb/cortex-m4/float-abi-hard/fpuv4-sp-d16/libc.a(lib_a-errno.o)
 .debug_abbrev  0x000071a7      0x162 /opt/ARM/arm-linaro-eabi-4.6/lib/gcc/arm-none-eabi/4.7.3/../../../../arm-none-eabi/lib/thumb/cortex-m4/float-abi-hard/fpuv4-sp-d16/libc.a(lib_a-impure.o)
 .debug_abbrev  0x00007309      0x1dc /opt/ARM/arm-linaro-eabi-4.6/lib/gcc/arm-none-eabi/4.7.3/../../../../arm-none-eabi/lib/thumb/cortex-m4/float-abi-hard/fpuv4-sp-d16/libc.a(lib_a-malloc.o)
 .debug_abbrev  0x000074e5      0x284 /opt/ARM/arm-linaro-eabi-4.6/lib/gcc/arm-none-eabi/4.7.3/../../../../arm-none-eabi/lib/thumb/cortex-m4/float-abi-hard/fpuv4-sp-d16/libc.a(lib_a-mallocr.o)
 .debug_abbrev  0x00007769       0xab /opt/ARM/arm-linaro-eabi-4.6/lib/gcc/arm-none-eabi/4.7.3/../../../../arm-none-eabi/lib/thumb/cortex-m4/float-abi-hard/fpuv4-sp-d16/libc.a(lib_a-memcpy-stub.o)
 .debug_abbrev  0x00007814       0x9f /opt/ARM/arm-linaro-eabi-4.6/lib/gcc/arm-none-eabi/4.7.3/../../../../arm-none-eabi/lib/thumb/cortex-m4/float-abi-hard/fpuv4-sp-d16/libc.a(lib_a-memset.o)
 .debug_abbrev  0x000078b3      0x17c /opt/ARM/arm-linaro-eabi-4.6/lib/gcc/arm-none-eabi/4.7.3/../../../../arm-none-eabi/lib/thumb/cortex-m4/float-abi-hard/fpuv4-sp-d16/libc.a(lib_a-mlock.o)
 .debug_abbrev  0x00007a2f      0x209 /opt/ARM/arm-linaro-eabi-4.6/lib/gcc/arm-none-eabi/4.7.3/../../../../arm-none-eabi/lib/thumb/cortex-m4/float-abi-hard/fpuv4-sp-d16/libc.a(lib_a-printf.o)
 .debug_abbrev  0x00007c38      0x1cd /opt/ARM/arm-linaro-eabi-4.6/lib/gcc/arm-none-eabi/4.7.3/../../../../arm-none-eabi/lib/thumb/cortex-m4/float-abi-hard/fpuv4-sp-d16/libc.a(lib_a-putchar.o)
 .debug_abbrev  0x00007e05      0x208 /opt/ARM/arm-linaro-eabi-4.6/lib/gcc/arm-none-eabi/4.7.3/../../../../arm-none-eabi/lib/thumb/cortex-m4/float-abi-hard/fpuv4-sp-d16/libc.a(lib_a-putc.o)
 .debug_abbrev  0x0000800d      0x217 /opt/ARM/arm-linaro-eabi-4.6/lib/gcc/arm-none-eabi/4.7.3/../../../../arm-none-eabi/lib/thumb/cortex-m4/float-abi-hard/fpuv4-sp-d16/libc.a(lib_a-puts.o)
 .debug_abbrev  0x00008224      0x19a /opt/ARM/arm-linaro-eabi-4.6/lib/gcc/arm-none-eabi/4.7.3/../../../../arm-none-eabi/lib/thumb/cortex-m4/float-abi-hard/fpuv4-sp-d16/libc.a(lib_a-rand.o)
 .debug_abbrev  0x000083be      0x1df /opt/ARM/arm-linaro-eabi-4.6/lib/gcc/arm-none-eabi/4.7.3/../../../../arm-none-eabi/lib/thumb/cortex-m4/float-abi-hard/fpuv4-sp-d16/libc.a(lib_a-sbrkr.o)
 .debug_abbrev  0x0000859d       0x14 /opt/ARM/arm-linaro-eabi-4.6/lib/gcc/arm-none-eabi/4.7.3/../../../../arm-none-eabi/lib/thumb/cortex-m4/float-abi-hard/fpuv4-sp-d16/libc.a(lib_a-strcmp.o)
 .debug_abbrev  0x000085b1       0x70 /opt/ARM/arm-linaro-eabi-4.6/lib/gcc/arm-none-eabi/4.7.3/../../../../arm-none-eabi/lib/thumb/cortex-m4/float-abi-hard/fpuv4-sp-d16/libc.a(lib_a-strlen.o)
 .debug_abbrev  0x00008621      0x3c2 /opt/ARM/arm-linaro-eabi-4.6/lib/gcc/arm-none-eabi/4.7.3/../../../../arm-none-eabi/lib/thumb/cortex-m4/float-abi-hard/fpuv4-sp-d16/libc.a(lib_a-vfprintf.o)
 .debug_abbrev  0x000089e3      0x21a /opt/ARM/arm-linaro-eabi-4.6/lib/gcc/arm-none-eabi/4.7.3/../../../../arm-none-eabi/lib/thumb/cortex-m4/float-abi-hard/fpuv4-sp-d16/libc.a(lib_a-wbuf.o)
 .debug_abbrev  0x00008bfd      0x1d5 /opt/ARM/arm-linaro-eabi-4.6/lib/gcc/arm-none-eabi/4.7.3/../../../../arm-none-eabi/lib/thumb/cortex-m4/float-abi-hard/fpuv4-sp-d16/libc.a(lib_a-wsetup.o)
 .debug_abbrev  0x00008dd2      0x2a0 /opt/ARM/arm-linaro-eabi-4.6/lib/gcc/arm-none-eabi/4.7.3/../../../../arm-none-eabi/lib/thumb/cortex-m4/float-abi-hard/fpuv4-sp-d16/libc.a(lib_a-dtoa.o)
 .debug_abbrev  0x00009072      0x28c /opt/ARM/arm-linaro-eabi-4.6/lib/gcc/arm-none-eabi/4.7.3/../../../../arm-none-eabi/lib/thumb/cortex-m4/float-abi-hard/fpuv4-sp-d16/libc.a(lib_a-fflush.o)
 .debug_abbrev  0x000092fe      0x319 /opt/ARM/arm-linaro-eabi-4.6/lib/gcc/arm-none-eabi/4.7.3/../../../../arm-none-eabi/lib/thumb/cortex-m4/float-abi-hard/fpuv4-sp-d16/libc.a(lib_a-findfp.o)
 .debug_abbrev  0x00009617      0x25d /opt/ARM/arm-linaro-eabi-4.6/lib/gcc/arm-none-eabi/4.7.3/../../../../arm-none-eabi/lib/thumb/cortex-m4/float-abi-hard/fpuv4-sp-d16/libc.a(lib_a-freer.o)
 .debug_abbrev  0x00009874      0x22c /opt/ARM/arm-linaro-eabi-4.6/lib/gcc/arm-none-eabi/4.7.3/../../../../arm-none-eabi/lib/thumb/cortex-m4/float-abi-hard/fpuv4-sp-d16/libc.a(lib_a-fvwrite.o)
 .debug_abbrev  0x00009aa0      0x1b3 /opt/ARM/arm-linaro-eabi-4.6/lib/gcc/arm-none-eabi/4.7.3/../../../../arm-none-eabi/lib/thumb/cortex-m4/float-abi-hard/fpuv4-sp-d16/libc.a(lib_a-fwalk.o)
 .debug_abbrev  0x00009c53      0x2a1 /opt/ARM/arm-linaro-eabi-4.6/lib/gcc/arm-none-eabi/4.7.3/../../../../arm-none-eabi/lib/thumb/cortex-m4/float-abi-hard/fpuv4-sp-d16/libc.a(lib_a-locale.o)
 .debug_abbrev  0x00009ef4      0x1e8 /opt/ARM/arm-linaro-eabi-4.6/lib/gcc/arm-none-eabi/4.7.3/../../../../arm-none-eabi/lib/thumb/cortex-m4/float-abi-hard/fpuv4-sp-d16/libc.a(lib_a-makebuf.o)
 .debug_abbrev  0x0000a0dc       0xba /opt/ARM/arm-linaro-eabi-4.6/lib/gcc/arm-none-eabi/4.7.3/../../../../arm-none-eabi/lib/thumb/cortex-m4/float-abi-hard/fpuv4-sp-d16/libc.a(lib_a-memchr-stub.o)
 .debug_abbrev  0x0000a196       0xab /opt/ARM/arm-linaro-eabi-4.6/lib/gcc/arm-none-eabi/4.7.3/../../../../arm-none-eabi/lib/thumb/cortex-m4/float-abi-hard/fpuv4-sp-d16/libc.a(lib_a-memmove.o)
 .debug_abbrev  0x0000a241      0x378 /opt/ARM/arm-linaro-eabi-4.6/lib/gcc/arm-none-eabi/4.7.3/../../../../arm-none-eabi/lib/thumb/cortex-m4/float-abi-hard/fpuv4-sp-d16/libc.a(lib_a-mprec.o)
 .debug_abbrev  0x0000a5b9      0x24d /opt/ARM/arm-linaro-eabi-4.6/lib/gcc/arm-none-eabi/4.7.3/../../../../arm-none-eabi/lib/thumb/cortex-m4/float-abi-hard/fpuv4-sp-d16/libc.a(lib_a-reallocr.o)
 .debug_abbrev  0x0000a806      0x254 /opt/ARM/arm-linaro-eabi-4.6/lib/gcc/arm-none-eabi/4.7.3/../../../../arm-none-eabi/lib/thumb/cortex-m4/float-abi-hard/fpuv4-sp-d16/libc.a(lib_a-reent.o)
 .debug_abbrev  0x0000aa5a      0x244 /opt/ARM/arm-linaro-eabi-4.6/lib/gcc/arm-none-eabi/4.7.3/../../../../arm-none-eabi/lib/thumb/cortex-m4/float-abi-hard/fpuv4-sp-d16/libc.a(lib_a-stdio.o)
 .debug_abbrev  0x0000ac9e      0x36c /opt/ARM/arm-linaro-eabi-4.6/lib/gcc/arm-none-eabi/4.7.3/../../../../arm-none-eabi/lib/thumb/cortex-m4/float-abi-hard/fpuv4-sp-d16/libc.a(lib_a-vfiprintf.o)
 .debug_abbrev  0x0000b00a      0x1d6 /opt/ARM/arm-linaro-eabi-4.6/lib/gcc/arm-none-eabi/4.7.3/../../../../arm-none-eabi/lib/thumb/cortex-m4/float-abi-hard/fpuv4-sp-d16/libc.a(lib_a-writer.o)
 .debug_abbrev  0x0000b1e0      0x1f5 /opt/ARM/arm-linaro-eabi-4.6/lib/gcc/arm-none-eabi/4.7.3/../../../../arm-none-eabi/lib/thumb/cortex-m4/float-abi-hard/fpuv4-sp-d16/libc.a(lib_a-callocr.o)
 .debug_abbrev  0x0000b3d5      0x1d1 /opt/ARM/arm-linaro-eabi-4.6/lib/gcc/arm-none-eabi/4.7.3/../../../../arm-none-eabi/lib/thumb/cortex-m4/float-abi-hard/fpuv4-sp-d16/libc.a(lib_a-closer.o)
 .debug_abbrev  0x0000b5a6      0x24e /opt/ARM/arm-linaro-eabi-4.6/lib/gcc/arm-none-eabi/4.7.3/../../../../arm-none-eabi/lib/thumb/cortex-m4/float-abi-hard/fpuv4-sp-d16/libc.a(lib_a-fclose.o)
 .debug_abbrev  0x0000b7f4      0x274 /opt/ARM/arm-linaro-eabi-4.6/lib/gcc/arm-none-eabi/4.7.3/../../../../arm-none-eabi/lib/thumb/cortex-m4/float-abi-hard/fpuv4-sp-d16/libc.a(lib_a-fputwc.o)
 .debug_abbrev  0x0000ba68      0x1e0 /opt/ARM/arm-linaro-eabi-4.6/lib/gcc/arm-none-eabi/4.7.3/../../../../arm-none-eabi/lib/thumb/cortex-m4/float-abi-hard/fpuv4-sp-d16/libc.a(lib_a-fstatr.o)
 .debug_abbrev  0x0000bc48      0x1d1 /opt/ARM/arm-linaro-eabi-4.6/lib/gcc/arm-none-eabi/4.7.3/../../../../arm-none-eabi/lib/thumb/cortex-m4/float-abi-hard/fpuv4-sp-d16/libc.a(lib_a-isattyr.o)
 .debug_abbrev  0x0000be19      0x1e0 /opt/ARM/arm-linaro-eabi-4.6/lib/gcc/arm-none-eabi/4.7.3/../../../../arm-none-eabi/lib/thumb/cortex-m4/float-abi-hard/fpuv4-sp-d16/libc.a(lib_a-lseekr.o)
 .debug_abbrev  0x0000bff9      0x1d1 /opt/ARM/arm-linaro-eabi-4.6/lib/gcc/arm-none-eabi/4.7.3/../../../../arm-none-eabi/lib/thumb/cortex-m4/float-abi-hard/fpuv4-sp-d16/libc.a(lib_a-readr.o)
 .debug_abbrev  0x0000c1ca      0x1f5 /opt/ARM/arm-linaro-eabi-4.6/lib/gcc/arm-none-eabi/4.7.3/../../../../arm-none-eabi/lib/thumb/cortex-m4/float-abi-hard/fpuv4-sp-d16/libc.a(lib_a-wcrtomb.o)
 .debug_abbrev  0x0000c3bf      0x210 /opt/ARM/arm-linaro-eabi-4.6/lib/gcc/arm-none-eabi/4.7.3/../../../../arm-none-eabi/lib/thumb/cortex-m4/float-abi-hard/fpuv4-sp-d16/libc.a(lib_a-wctomb_r.o)
 .debug_abbrev  0x0000c5cf       0x14 /opt/ARM/arm-linaro-eabi-4.6/lib/gcc/arm-none-eabi/4.7.3/thumb/cortex-m4/float-abi-hard/fpuv4-sp-d16/libgcc.a(_arm_addsubdf3.o)
 .debug_abbrev  0x0000c5e3       0x14 /opt/ARM/arm-linaro-eabi-4.6/lib/gcc/arm-none-eabi/4.7.3/thumb/cortex-m4/float-abi-hard/fpuv4-sp-d16/libgcc.a(_arm_muldivdf3.o)
 .debug_abbrev  0x0000c5f7       0x14 /opt/ARM/arm-linaro-eabi-4.6/lib/gcc/arm-none-eabi/4.7.3/thumb/cortex-m4/float-abi-hard/fpuv4-sp-d16/libgcc.a(_arm_cmpdf2.o)
 .debug_abbrev  0x0000c60b       0x14 /opt/ARM/arm-linaro-eabi-4.6/lib/gcc/arm-none-eabi/4.7.3/thumb/cortex-m4/float-abi-hard/fpuv4-sp-d16/libgcc.a(_arm_fixdfsi.o)
 .debug_abbrev  0x0000c61f       0x14 /opt/ARM/arm-linaro-eabi-4.6/lib/gcc/arm-none-eabi/4.7.3/thumb/cortex-m4/float-abi-hard/fpuv4-sp-d16/libgcc.a(_arm_truncdfsf2.o)

.debug_loc      0x00000000    0x61fba
 .debug_loc     0x00000000      0x168 system_stm32f4xx.o
 .debug_loc     0x00000168       0xf9 main.o
 .debug_loc     0x00000261      0x2cc codec.o
 .debug_loc     0x0000052d      0x17d i2s.o
 .debug_loc     0x000006aa       0xd3 adc.o
 .debug_loc     0x0000077d      0x426 stm32f4xx_gpio.o
 .debug_loc     0x00000ba3      0x828 stm32f4xx_i2c.o
 .debug_loc     0x000013cb      0xb55 stm32f4xx_rcc.o
 .debug_loc     0x00001f20      0x647 stm32f4xx_spi.o
 .debug_loc     0x00002567      0x4dc stm32f4xx_dma.o
 .debug_loc     0x00002a43      0xa5b stm32f4xx_adc.o
 .debug_loc     0x0000349e      0x1c2 syscalls.o
 .debug_loc     0x00003660      0x94c audio.o
 .debug_loc     0x00003fac      0x390 vosim.o
 .debug_loc     0x0000433c      0x263 mdavoc.o
 .debug_loc     0x0000459f      0xeae mdavocoder.o
 .debug_loc     0x0000544d     0x1a06 effect.o
 .debug_loc     0x00006e53      0x9b1 vocode.o
 .debug_loc     0x00007804       0xab klatt_phoneme.o
 .debug_loc     0x000078af      0xf01 sam.o
 .debug_loc     0x000087b0     0x2bc5 render.o
 .debug_loc     0x0000b375    0x3e84d LPC/lpc.o
 .debug_loc     0x00049bc2      0x44e vocoder/vocode.o
 .debug_loc     0x0004a010      0xc47 vocoder/fftn.o
 .debug_loc     0x0004ac57      0x192 scformant.o
 .debug_loc     0x0004ade9     0x107b ./rsynth-2.0-port/holmes.o
 .debug_loc     0x0004be64     0x2f73 ./rsynth-2.0-port/nsynth.o
 .debug_loc     0x0004edd7       0xdd ./rsynth-2.0-port/say.o
 .debug_loc     0x0004eeb4      0x293 ./rsynth-2.0-port/darray.o
 .debug_loc     0x0004f147       0x20 ./rsynth-2.0-port/def_pars.o
 .debug_loc     0x0004f167       0xb6 /root/CMSIS/CMSIS/Lib/GCC/libarm_cortexM4lf_math.a(arm_biquad_cascade_df1_init_f32.o)
 .debug_loc     0x0004f21d      0x496 /root/CMSIS/CMSIS/Lib/GCC/libarm_cortexM4lf_math.a(arm_biquad_cascade_df1_f32.o)
 .debug_loc     0x0004f6b3       0xf9 /opt/ARM/arm-linaro-eabi-4.6/lib/gcc/arm-none-eabi/4.7.3/../../../../arm-none-eabi/lib/thumb/cortex-m4/float-abi-hard/fpuv4-sp-d16/libm.a(lib_a-s_cos.o)
 .debug_loc     0x0004f7ac       0xb4 /opt/ARM/arm-linaro-eabi-4.6/lib/gcc/arm-none-eabi/4.7.3/../../../../arm-none-eabi/lib/thumb/cortex-m4/float-abi-hard/fpuv4-sp-d16/libm.a(lib_a-sf_cos.o)
 .debug_loc     0x0004f860      0x22d /opt/ARM/arm-linaro-eabi-4.6/lib/gcc/arm-none-eabi/4.7.3/../../../../arm-none-eabi/lib/thumb/cortex-m4/float-abi-hard/fpuv4-sp-d16/libm.a(lib_a-s_floor.o)
 .debug_loc     0x0004fa8d       0xb4 /opt/ARM/arm-linaro-eabi-4.6/lib/gcc/arm-none-eabi/4.7.3/../../../../arm-none-eabi/lib/thumb/cortex-m4/float-abi-hard/fpuv4-sp-d16/libm.a(lib_a-sf_sin.o)
 .debug_loc     0x0004fb41       0xb4 /opt/ARM/arm-linaro-eabi-4.6/lib/gcc/arm-none-eabi/4.7.3/../../../../arm-none-eabi/lib/thumb/cortex-m4/float-abi-hard/fpuv4-sp-d16/libm.a(lib_a-sf_tan.o)
 .debug_loc     0x0004fbf5       0xf9 /opt/ARM/arm-linaro-eabi-4.6/lib/gcc/arm-none-eabi/4.7.3/../../../../arm-none-eabi/lib/thumb/cortex-m4/float-abi-hard/fpuv4-sp-d16/libm.a(lib_a-s_sin.o)
 .debug_loc     0x0004fcee       0xa3 /opt/ARM/arm-linaro-eabi-4.6/lib/gcc/arm-none-eabi/4.7.3/../../../../arm-none-eabi/lib/thumb/cortex-m4/float-abi-hard/fpuv4-sp-d16/libm.a(lib_a-w_exp.o)
 .debug_loc     0x0004fd91       0x90 /opt/ARM/arm-linaro-eabi-4.6/lib/gcc/arm-none-eabi/4.7.3/../../../../arm-none-eabi/lib/thumb/cortex-m4/float-abi-hard/fpuv4-sp-d16/libm.a(lib_a-wf_acos.o)
 .debug_loc     0x0004fe21       0x84 /opt/ARM/arm-linaro-eabi-4.6/lib/gcc/arm-none-eabi/4.7.3/../../../../arm-none-eabi/lib/thumb/cortex-m4/float-abi-hard/fpuv4-sp-d16/libm.a(lib_a-wf_exp.o)
 .debug_loc     0x0004fea5      0x12f /opt/ARM/arm-linaro-eabi-4.6/lib/gcc/arm-none-eabi/4.7.3/../../../../arm-none-eabi/lib/thumb/cortex-m4/float-abi-hard/fpuv4-sp-d16/libm.a(lib_a-wf_pow.o)
 .debug_loc     0x0004ffd4       0x90 /opt/ARM/arm-linaro-eabi-4.6/lib/gcc/arm-none-eabi/4.7.3/../../../../arm-none-eabi/lib/thumb/cortex-m4/float-abi-hard/fpuv4-sp-d16/libm.a(lib_a-wf_sqrt.o)
 .debug_loc     0x00050064       0xb5 /opt/ARM/arm-linaro-eabi-4.6/lib/gcc/arm-none-eabi/4.7.3/../../../../arm-none-eabi/lib/thumb/cortex-m4/float-abi-hard/fpuv4-sp-d16/libm.a(lib_a-w_log10.o)
 .debug_loc     0x00050119      0x407 /opt/ARM/arm-linaro-eabi-4.6/lib/gcc/arm-none-eabi/4.7.3/../../../../arm-none-eabi/lib/thumb/cortex-m4/float-abi-hard/fpuv4-sp-d16/libm.a(lib_a-e_exp.o)
 .debug_loc     0x00050520      0x3ad /opt/ARM/arm-linaro-eabi-4.6/lib/gcc/arm-none-eabi/4.7.3/../../../../arm-none-eabi/lib/thumb/cortex-m4/float-abi-hard/fpuv4-sp-d16/libm.a(lib_a-ef_acos.o)
 .debug_loc     0x000508cd      0x5a7 /opt/ARM/arm-linaro-eabi-4.6/lib/gcc/arm-none-eabi/4.7.3/../../../../arm-none-eabi/lib/thumb/cortex-m4/float-abi-hard/fpuv4-sp-d16/libm.a(lib_a-ef_exp.o)
 .debug_loc     0x00050e74      0x8d2 /opt/ARM/arm-linaro-eabi-4.6/lib/gcc/arm-none-eabi/4.7.3/../../../../arm-none-eabi/lib/thumb/cortex-m4/float-abi-hard/fpuv4-sp-d16/libm.a(lib_a-ef_pow.o)
 .debug_loc     0x00051746      0x50a /opt/ARM/arm-linaro-eabi-4.6/lib/gcc/arm-none-eabi/4.7.3/../../../../arm-none-eabi/lib/thumb/cortex-m4/float-abi-hard/fpuv4-sp-d16/libm.a(lib_a-ef_rem_pio2.o)
 .debug_loc     0x00051c50      0x257 /opt/ARM/arm-linaro-eabi-4.6/lib/gcc/arm-none-eabi/4.7.3/../../../../arm-none-eabi/lib/thumb/cortex-m4/float-abi-hard/fpuv4-sp-d16/libm.a(lib_a-ef_sqrt.o)
 .debug_loc     0x00051ea7      0x1bc /opt/ARM/arm-linaro-eabi-4.6/lib/gcc/arm-none-eabi/4.7.3/../../../../arm-none-eabi/lib/thumb/cortex-m4/float-abi-hard/fpuv4-sp-d16/libm.a(lib_a-e_log10.o)
 .debug_loc     0x00052063      0x54b /opt/ARM/arm-linaro-eabi-4.6/lib/gcc/arm-none-eabi/4.7.3/../../../../arm-none-eabi/lib/thumb/cortex-m4/float-abi-hard/fpuv4-sp-d16/libm.a(lib_a-e_log.o)
 .debug_loc     0x000525ae      0x687 /opt/ARM/arm-linaro-eabi-4.6/lib/gcc/arm-none-eabi/4.7.3/../../../../arm-none-eabi/lib/thumb/cortex-m4/float-abi-hard/fpuv4-sp-d16/libm.a(lib_a-e_rem_pio2.o)
 .debug_loc     0x00052c35      0x229 /opt/ARM/arm-linaro-eabi-4.6/lib/gcc/arm-none-eabi/4.7.3/../../../../arm-none-eabi/lib/thumb/cortex-m4/float-abi-hard/fpuv4-sp-d16/libm.a(lib_a-k_cos.o)
 .debug_loc     0x00052e5e      0x19a /opt/ARM/arm-linaro-eabi-4.6/lib/gcc/arm-none-eabi/4.7.3/../../../../arm-none-eabi/lib/thumb/cortex-m4/float-abi-hard/fpuv4-sp-d16/libm.a(lib_a-kf_cos.o)
 .debug_loc     0x00052ff8      0x679 /opt/ARM/arm-linaro-eabi-4.6/lib/gcc/arm-none-eabi/4.7.3/../../../../arm-none-eabi/lib/thumb/cortex-m4/float-abi-hard/fpuv4-sp-d16/libm.a(lib_a-kf_rem_pio2.o)
 .debug_loc     0x00053671      0x130 /opt/ARM/arm-linaro-eabi-4.6/lib/gcc/arm-none-eabi/4.7.3/../../../../arm-none-eabi/lib/thumb/cortex-m4/float-abi-hard/fpuv4-sp-d16/libm.a(lib_a-kf_sin.o)
 .debug_loc     0x000537a1      0x408 /opt/ARM/arm-linaro-eabi-4.6/lib/gcc/arm-none-eabi/4.7.3/../../../../arm-none-eabi/lib/thumb/cortex-m4/float-abi-hard/fpuv4-sp-d16/libm.a(lib_a-kf_tan.o)
 .debug_loc     0x00053ba9      0x684 /opt/ARM/arm-linaro-eabi-4.6/lib/gcc/arm-none-eabi/4.7.3/../../../../arm-none-eabi/lib/thumb/cortex-m4/float-abi-hard/fpuv4-sp-d16/libm.a(lib_a-k_rem_pio2.o)
 .debug_loc     0x0005422d      0x185 /opt/ARM/arm-linaro-eabi-4.6/lib/gcc/arm-none-eabi/4.7.3/../../../../arm-none-eabi/lib/thumb/cortex-m4/float-abi-hard/fpuv4-sp-d16/libm.a(lib_a-k_sin.o)
 .debug_loc     0x000543b2       0x42 /opt/ARM/arm-linaro-eabi-4.6/lib/gcc/arm-none-eabi/4.7.3/../../../../arm-none-eabi/lib/thumb/cortex-m4/float-abi-hard/fpuv4-sp-d16/libm.a(lib_a-s_fabs.o)
 .debug_loc     0x000543f4       0x5e /opt/ARM/arm-linaro-eabi-4.6/lib/gcc/arm-none-eabi/4.7.3/../../../../arm-none-eabi/lib/thumb/cortex-m4/float-abi-hard/fpuv4-sp-d16/libm.a(lib_a-sf_fabs.o)
 .debug_loc     0x00054452       0x3b /opt/ARM/arm-linaro-eabi-4.6/lib/gcc/arm-none-eabi/4.7.3/../../../../arm-none-eabi/lib/thumb/cortex-m4/float-abi-hard/fpuv4-sp-d16/libm.a(lib_a-sf_finite.o)
 .debug_loc     0x0005448d      0x1bd /opt/ARM/arm-linaro-eabi-4.6/lib/gcc/arm-none-eabi/4.7.3/../../../../arm-none-eabi/lib/thumb/cortex-m4/float-abi-hard/fpuv4-sp-d16/libm.a(lib_a-sf_floor.o)
 .debug_loc     0x0005464a       0x3e /opt/ARM/arm-linaro-eabi-4.6/lib/gcc/arm-none-eabi/4.7.3/../../../../arm-none-eabi/lib/thumb/cortex-m4/float-abi-hard/fpuv4-sp-d16/libm.a(lib_a-s_fpclassify.o)
 .debug_loc     0x00054688      0x3ef /opt/ARM/arm-linaro-eabi-4.6/lib/gcc/arm-none-eabi/4.7.3/../../../../arm-none-eabi/lib/thumb/cortex-m4/float-abi-hard/fpuv4-sp-d16/libm.a(lib_a-sf_scalbn.o)
 .debug_loc     0x00054a77       0x21 /opt/ARM/arm-linaro-eabi-4.6/lib/gcc/arm-none-eabi/4.7.3/../../../../arm-none-eabi/lib/thumb/cortex-m4/float-abi-hard/fpuv4-sp-d16/libm.a(lib_a-s_matherr.o)
 .debug_loc     0x00054a98      0x34e /opt/ARM/arm-linaro-eabi-4.6/lib/gcc/arm-none-eabi/4.7.3/../../../../arm-none-eabi/lib/thumb/cortex-m4/float-abi-hard/fpuv4-sp-d16/libm.a(lib_a-s_rint.o)
 .debug_loc     0x00054de6      0x235 /opt/ARM/arm-linaro-eabi-4.6/lib/gcc/arm-none-eabi/4.7.3/../../../../arm-none-eabi/lib/thumb/cortex-m4/float-abi-hard/fpuv4-sp-d16/libm.a(lib_a-s_scalbn.o)
 .debug_loc     0x0005501b       0x8d /opt/ARM/arm-linaro-eabi-4.6/lib/gcc/arm-none-eabi/4.7.3/../../../../arm-none-eabi/lib/thumb/cortex-m4/float-abi-hard/fpuv4-sp-d16/libm.a(lib_a-s_copysign.o)
 .debug_loc     0x000550a8       0xb9 /opt/ARM/arm-linaro-eabi-4.6/lib/gcc/arm-none-eabi/4.7.3/../../../../arm-none-eabi/lib/thumb/cortex-m4/float-abi-hard/fpuv4-sp-d16/libm.a(lib_a-sf_copysign.o)
 .debug_loc     0x00055161       0x58 /opt/ARM/arm-linaro-eabi-4.6/lib/gcc/arm-none-eabi/4.7.3/../../../../arm-none-eabi/lib/thumb/cortex-m4/float-abi-hard/fpuv4-sp-d16/libc.a(lib_a-malloc.o)
 .debug_loc     0x000551b9      0xe7b /opt/ARM/arm-linaro-eabi-4.6/lib/gcc/arm-none-eabi/4.7.3/../../../../arm-none-eabi/lib/thumb/cortex-m4/float-abi-hard/fpuv4-sp-d16/libc.a(lib_a-mallocr.o)
 .debug_loc     0x00056034      0x1f5 /opt/ARM/arm-linaro-eabi-4.6/lib/gcc/arm-none-eabi/4.7.3/../../../../arm-none-eabi/lib/thumb/cortex-m4/float-abi-hard/fpuv4-sp-d16/libc.a(lib_a-memcpy-stub.o)
 .debug_loc     0x00056229      0x1c1 /opt/ARM/arm-linaro-eabi-4.6/lib/gcc/arm-none-eabi/4.7.3/../../../../arm-none-eabi/lib/thumb/cortex-m4/float-abi-hard/fpuv4-sp-d16/libc.a(lib_a-memset.o)
 .debug_loc     0x000563ea       0xa4 /opt/ARM/arm-linaro-eabi-4.6/lib/gcc/arm-none-eabi/4.7.3/../../../../arm-none-eabi/lib/thumb/cortex-m4/float-abi-hard/fpuv4-sp-d16/libc.a(lib_a-printf.o)
 .debug_loc     0x0005648e       0x6e /opt/ARM/arm-linaro-eabi-4.6/lib/gcc/arm-none-eabi/4.7.3/../../../../arm-none-eabi/lib/thumb/cortex-m4/float-abi-hard/fpuv4-sp-d16/libc.a(lib_a-putchar.o)
 .debug_loc     0x000564fc      0x16a /opt/ARM/arm-linaro-eabi-4.6/lib/gcc/arm-none-eabi/4.7.3/../../../../arm-none-eabi/lib/thumb/cortex-m4/float-abi-hard/fpuv4-sp-d16/libc.a(lib_a-putc.o)
 .debug_loc     0x00056666      0x10a /opt/ARM/arm-linaro-eabi-4.6/lib/gcc/arm-none-eabi/4.7.3/../../../../arm-none-eabi/lib/thumb/cortex-m4/float-abi-hard/fpuv4-sp-d16/libc.a(lib_a-puts.o)
 .debug_loc     0x00056770       0x20 /opt/ARM/arm-linaro-eabi-4.6/lib/gcc/arm-none-eabi/4.7.3/../../../../arm-none-eabi/lib/thumb/cortex-m4/float-abi-hard/fpuv4-sp-d16/libc.a(lib_a-rand.o)
 .debug_loc     0x00056790       0x5f /opt/ARM/arm-linaro-eabi-4.6/lib/gcc/arm-none-eabi/4.7.3/../../../../arm-none-eabi/lib/thumb/cortex-m4/float-abi-hard/fpuv4-sp-d16/libc.a(lib_a-sbrkr.o)
 .debug_loc     0x000567ef       0x21 /opt/ARM/arm-linaro-eabi-4.6/lib/gcc/arm-none-eabi/4.7.3/../../../../arm-none-eabi/lib/thumb/cortex-m4/float-abi-hard/fpuv4-sp-d16/libc.a(lib_a-strlen.o)
 .debug_loc     0x00056810     0x20d0 /opt/ARM/arm-linaro-eabi-4.6/lib/gcc/arm-none-eabi/4.7.3/../../../../arm-none-eabi/lib/thumb/cortex-m4/float-abi-hard/fpuv4-sp-d16/libc.a(lib_a-vfprintf.o)
 .debug_loc     0x000588e0      0x153 /opt/ARM/arm-linaro-eabi-4.6/lib/gcc/arm-none-eabi/4.7.3/../../../../arm-none-eabi/lib/thumb/cortex-m4/float-abi-hard/fpuv4-sp-d16/libc.a(lib_a-wbuf.o)
 .debug_loc     0x00058a33       0x88 /opt/ARM/arm-linaro-eabi-4.6/lib/gcc/arm-none-eabi/4.7.3/../../../../arm-none-eabi/lib/thumb/cortex-m4/float-abi-hard/fpuv4-sp-d16/libc.a(lib_a-wsetup.o)
 .debug_loc     0x00058abb     0x24ea /opt/ARM/arm-linaro-eabi-4.6/lib/gcc/arm-none-eabi/4.7.3/../../../../arm-none-eabi/lib/thumb/cortex-m4/float-abi-hard/fpuv4-sp-d16/libc.a(lib_a-dtoa.o)
 .debug_loc     0x0005afa5      0x2e2 /opt/ARM/arm-linaro-eabi-4.6/lib/gcc/arm-none-eabi/4.7.3/../../../../arm-none-eabi/lib/thumb/cortex-m4/float-abi-hard/fpuv4-sp-d16/libc.a(lib_a-fflush.o)
 .debug_loc     0x0005b287      0x2bd /opt/ARM/arm-linaro-eabi-4.6/lib/gcc/arm-none-eabi/4.7.3/../../../../arm-none-eabi/lib/thumb/cortex-m4/float-abi-hard/fpuv4-sp-d16/libc.a(lib_a-findfp.o)
 .debug_loc     0x0005b544      0x509 /opt/ARM/arm-linaro-eabi-4.6/lib/gcc/arm-none-eabi/4.7.3/../../../../arm-none-eabi/lib/thumb/cortex-m4/float-abi-hard/fpuv4-sp-d16/libc.a(lib_a-freer.o)
 .debug_loc     0x0005ba4d      0x567 /opt/ARM/arm-linaro-eabi-4.6/lib/gcc/arm-none-eabi/4.7.3/../../../../arm-none-eabi/lib/thumb/cortex-m4/float-abi-hard/fpuv4-sp-d16/libc.a(lib_a-fvwrite.o)
 .debug_loc     0x0005bfb4      0x223 /opt/ARM/arm-linaro-eabi-4.6/lib/gcc/arm-none-eabi/4.7.3/../../../../arm-none-eabi/lib/thumb/cortex-m4/float-abi-hard/fpuv4-sp-d16/libc.a(lib_a-fwalk.o)
 .debug_loc     0x0005c1d7       0xf9 /opt/ARM/arm-linaro-eabi-4.6/lib/gcc/arm-none-eabi/4.7.3/../../../../arm-none-eabi/lib/thumb/cortex-m4/float-abi-hard/fpuv4-sp-d16/libc.a(lib_a-locale.o)
 .debug_loc     0x0005c2d0      0x139 /opt/ARM/arm-linaro-eabi-4.6/lib/gcc/arm-none-eabi/4.7.3/../../../../arm-none-eabi/lib/thumb/cortex-m4/float-abi-hard/fpuv4-sp-d16/libc.a(lib_a-makebuf.o)
 .debug_loc     0x0005c409      0x167 /opt/ARM/arm-linaro-eabi-4.6/lib/gcc/arm-none-eabi/4.7.3/../../../../arm-none-eabi/lib/thumb/cortex-m4/float-abi-hard/fpuv4-sp-d16/libc.a(lib_a-memchr-stub.o)
 .debug_loc     0x0005c570      0x268 /opt/ARM/arm-linaro-eabi-4.6/lib/gcc/arm-none-eabi/4.7.3/../../../../arm-none-eabi/lib/thumb/cortex-m4/float-abi-hard/fpuv4-sp-d16/libc.a(lib_a-memmove.o)
 .debug_loc     0x0005c7d8     0x24e8 /opt/ARM/arm-linaro-eabi-4.6/lib/gcc/arm-none-eabi/4.7.3/../../../../arm-none-eabi/lib/thumb/cortex-m4/float-abi-hard/fpuv4-sp-d16/libc.a(lib_a-mprec.o)
 .debug_loc     0x0005ecc0      0xf51 /opt/ARM/arm-linaro-eabi-4.6/lib/gcc/arm-none-eabi/4.7.3/../../../../arm-none-eabi/lib/thumb/cortex-m4/float-abi-hard/fpuv4-sp-d16/libc.a(lib_a-reallocr.o)
 .debug_loc     0x0005fc11      0x1ae /opt/ARM/arm-linaro-eabi-4.6/lib/gcc/arm-none-eabi/4.7.3/../../../../arm-none-eabi/lib/thumb/cortex-m4/float-abi-hard/fpuv4-sp-d16/libc.a(lib_a-reent.o)
 .debug_loc     0x0005fdbf      0x297 /opt/ARM/arm-linaro-eabi-4.6/lib/gcc/arm-none-eabi/4.7.3/../../../../arm-none-eabi/lib/thumb/cortex-m4/float-abi-hard/fpuv4-sp-d16/libc.a(lib_a-stdio.o)
 .debug_loc     0x00060056     0x13a6 /opt/ARM/arm-linaro-eabi-4.6/lib/gcc/arm-none-eabi/4.7.3/../../../../arm-none-eabi/lib/thumb/cortex-m4/float-abi-hard/fpuv4-sp-d16/libc.a(lib_a-vfiprintf.o)
 .debug_loc     0x000613fc       0xb7 /opt/ARM/arm-linaro-eabi-4.6/lib/gcc/arm-none-eabi/4.7.3/../../../../arm-none-eabi/lib/thumb/cortex-m4/float-abi-hard/fpuv4-sp-d16/libc.a(lib_a-writer.o)
 .debug_loc     0x000614b3      0x22a /opt/ARM/arm-linaro-eabi-4.6/lib/gcc/arm-none-eabi/4.7.3/../../../../arm-none-eabi/lib/thumb/cortex-m4/float-abi-hard/fpuv4-sp-d16/libc.a(lib_a-callocr.o)
 .debug_loc     0x000616dd       0x5f /opt/ARM/arm-linaro-eabi-4.6/lib/gcc/arm-none-eabi/4.7.3/../../../../arm-none-eabi/lib/thumb/cortex-m4/float-abi-hard/fpuv4-sp-d16/libc.a(lib_a-closer.o)
 .debug_loc     0x0006173c       0xdd /opt/ARM/arm-linaro-eabi-4.6/lib/gcc/arm-none-eabi/4.7.3/../../../../arm-none-eabi/lib/thumb/cortex-m4/float-abi-hard/fpuv4-sp-d16/libc.a(lib_a-fclose.o)
 .debug_loc     0x00061819      0x203 /opt/ARM/arm-linaro-eabi-4.6/lib/gcc/arm-none-eabi/4.7.3/../../../../arm-none-eabi/lib/thumb/cortex-m4/float-abi-hard/fpuv4-sp-d16/libc.a(lib_a-fputwc.o)
 .debug_loc     0x00061a1c       0x8b /opt/ARM/arm-linaro-eabi-4.6/lib/gcc/arm-none-eabi/4.7.3/../../../../arm-none-eabi/lib/thumb/cortex-m4/float-abi-hard/fpuv4-sp-d16/libc.a(lib_a-fstatr.o)
 .debug_loc     0x00061aa7       0x5f /opt/ARM/arm-linaro-eabi-4.6/lib/gcc/arm-none-eabi/4.7.3/../../../../arm-none-eabi/lib/thumb/cortex-m4/float-abi-hard/fpuv4-sp-d16/libc.a(lib_a-isattyr.o)
 .debug_loc     0x00061b06       0xb7 /opt/ARM/arm-linaro-eabi-4.6/lib/gcc/arm-none-eabi/4.7.3/../../../../arm-none-eabi/lib/thumb/cortex-m4/float-abi-hard/fpuv4-sp-d16/libc.a(lib_a-lseekr.o)
 .debug_loc     0x00061bbd       0xb7 /opt/ARM/arm-linaro-eabi-4.6/lib/gcc/arm-none-eabi/4.7.3/../../../../arm-none-eabi/lib/thumb/cortex-m4/float-abi-hard/fpuv4-sp-d16/libc.a(lib_a-readr.o)
 .debug_loc     0x00061c74      0x23c /opt/ARM/arm-linaro-eabi-4.6/lib/gcc/arm-none-eabi/4.7.3/../../../../arm-none-eabi/lib/thumb/cortex-m4/float-abi-hard/fpuv4-sp-d16/libc.a(lib_a-wcrtomb.o)
 .debug_loc     0x00061eb0      0x10a /opt/ARM/arm-linaro-eabi-4.6/lib/gcc/arm-none-eabi/4.7.3/../../../../arm-none-eabi/lib/thumb/cortex-m4/float-abi-hard/fpuv4-sp-d16/libc.a(lib_a-wctomb_r.o)

.debug_aranges  0x00000000      0xfb0
 .debug_aranges
                0x00000000       0x20 system_stm32f4xx.o
 .debug_aranges
                0x00000020       0x28 main.o
 .debug_aranges
                0x00000048       0x20 codec.o
 .debug_aranges
                0x00000068       0x20 i2s.o
 .debug_aranges
                0x00000088       0x20 adc.o
 .debug_aranges
                0x000000a8       0x20 stm32f4xx_gpio.o
 .debug_aranges
                0x000000c8       0x20 stm32f4xx_i2c.o
 .debug_aranges
                0x000000e8       0x20 stm32f4xx_rcc.o
 .debug_aranges
                0x00000108       0x20 stm32f4xx_spi.o
 .debug_aranges
                0x00000128       0x20 stm32f4xx_dma.o
 .debug_aranges
                0x00000148       0x20 stm32f4xx_adc.o
 .debug_aranges
                0x00000168       0x20 syscalls.o
 .debug_aranges
                0x00000188       0x20 audio.o
 .debug_aranges
                0x000001a8       0x20 vosim.o
 .debug_aranges
                0x000001c8       0x20 mdavoc.o
 .debug_aranges
                0x000001e8       0x20 mdavocoder.o
 .debug_aranges
                0x00000208       0x20 effect.o
 .debug_aranges
                0x00000228       0x20 vocode.o
 .debug_aranges
                0x00000248       0x20 klatt_phoneme.o
 .debug_aranges
                0x00000268       0x20 sam.o
 .debug_aranges
                0x00000288       0x20 render.o
 .debug_aranges
                0x000002a8       0x20 LPC/lpc.o
 .debug_aranges
                0x000002c8       0x20 vocoder/vocode.o
 .debug_aranges
                0x000002e8       0x20 vocoder/fftn.o
 .debug_aranges
                0x00000308       0x20 scformant.o
 .debug_aranges
                0x00000328       0x20 ./rsynth-2.0-port/holmes.o
 .debug_aranges
                0x00000348       0x18 ./rsynth-2.0-port/elements.o
 .debug_aranges
                0x00000360       0x20 ./rsynth-2.0-port/nsynth.o
 .debug_aranges
                0x00000380       0x20 ./rsynth-2.0-port/say.o
 .debug_aranges
                0x000003a0       0x20 ./rsynth-2.0-port/darray.o
 .debug_aranges
                0x000003c0       0x20 ./rsynth-2.0-port/def_pars.o
 .debug_aranges
                0x000003e0       0x20 /root/CMSIS/CMSIS/Lib/GCC/libarm_cortexM4lf_math.a(arm_biquad_cascade_df1_init_f32.o)
 .debug_aranges
                0x00000400       0x20 /root/CMSIS/CMSIS/Lib/GCC/libarm_cortexM4lf_math.a(arm_biquad_cascade_df1_f32.o)
 .debug_aranges
                0x00000420       0x20 /opt/ARM/arm-linaro-eabi-4.6/lib/gcc/arm-none-eabi/4.7.3/../../../../arm-none-eabi/lib/thumb/cortex-m4/float-abi-hard/fpuv4-sp-d16/libm.a(lib_a-s_cos.o)
 .debug_aranges
                0x00000440       0x20 /opt/ARM/arm-linaro-eabi-4.6/lib/gcc/arm-none-eabi/4.7.3/../../../../arm-none-eabi/lib/thumb/cortex-m4/float-abi-hard/fpuv4-sp-d16/libm.a(lib_a-sf_cos.o)
 .debug_aranges
                0x00000460       0x20 /opt/ARM/arm-linaro-eabi-4.6/lib/gcc/arm-none-eabi/4.7.3/../../../../arm-none-eabi/lib/thumb/cortex-m4/float-abi-hard/fpuv4-sp-d16/libm.a(lib_a-s_floor.o)
 .debug_aranges
                0x00000480       0x20 /opt/ARM/arm-linaro-eabi-4.6/lib/gcc/arm-none-eabi/4.7.3/../../../../arm-none-eabi/lib/thumb/cortex-m4/float-abi-hard/fpuv4-sp-d16/libm.a(lib_a-sf_sin.o)
 .debug_aranges
                0x000004a0       0x20 /opt/ARM/arm-linaro-eabi-4.6/lib/gcc/arm-none-eabi/4.7.3/../../../../arm-none-eabi/lib/thumb/cortex-m4/float-abi-hard/fpuv4-sp-d16/libm.a(lib_a-sf_tan.o)
 .debug_aranges
                0x000004c0       0x20 /opt/ARM/arm-linaro-eabi-4.6/lib/gcc/arm-none-eabi/4.7.3/../../../../arm-none-eabi/lib/thumb/cortex-m4/float-abi-hard/fpuv4-sp-d16/libm.a(lib_a-s_sin.o)
 .debug_aranges
                0x000004e0       0x20 /opt/ARM/arm-linaro-eabi-4.6/lib/gcc/arm-none-eabi/4.7.3/../../../../arm-none-eabi/lib/thumb/cortex-m4/float-abi-hard/fpuv4-sp-d16/libm.a(lib_a-w_exp.o)
 .debug_aranges
                0x00000500       0x20 /opt/ARM/arm-linaro-eabi-4.6/lib/gcc/arm-none-eabi/4.7.3/../../../../arm-none-eabi/lib/thumb/cortex-m4/float-abi-hard/fpuv4-sp-d16/libm.a(lib_a-wf_acos.o)
 .debug_aranges
                0x00000520       0x20 /opt/ARM/arm-linaro-eabi-4.6/lib/gcc/arm-none-eabi/4.7.3/../../../../arm-none-eabi/lib/thumb/cortex-m4/float-abi-hard/fpuv4-sp-d16/libm.a(lib_a-wf_exp.o)
 .debug_aranges
                0x00000540       0x20 /opt/ARM/arm-linaro-eabi-4.6/lib/gcc/arm-none-eabi/4.7.3/../../../../arm-none-eabi/lib/thumb/cortex-m4/float-abi-hard/fpuv4-sp-d16/libm.a(lib_a-wf_pow.o)
 .debug_aranges
                0x00000560       0x20 /opt/ARM/arm-linaro-eabi-4.6/lib/gcc/arm-none-eabi/4.7.3/../../../../arm-none-eabi/lib/thumb/cortex-m4/float-abi-hard/fpuv4-sp-d16/libm.a(lib_a-wf_sqrt.o)
 .debug_aranges
                0x00000580       0x20 /opt/ARM/arm-linaro-eabi-4.6/lib/gcc/arm-none-eabi/4.7.3/../../../../arm-none-eabi/lib/thumb/cortex-m4/float-abi-hard/fpuv4-sp-d16/libm.a(lib_a-w_log10.o)
 .debug_aranges
                0x000005a0       0x20 /opt/ARM/arm-linaro-eabi-4.6/lib/gcc/arm-none-eabi/4.7.3/../../../../arm-none-eabi/lib/thumb/cortex-m4/float-abi-hard/fpuv4-sp-d16/libm.a(lib_a-e_exp.o)
 .debug_aranges
                0x000005c0       0x20 /opt/ARM/arm-linaro-eabi-4.6/lib/gcc/arm-none-eabi/4.7.3/../../../../arm-none-eabi/lib/thumb/cortex-m4/float-abi-hard/fpuv4-sp-d16/libm.a(lib_a-ef_acos.o)
 .debug_aranges
                0x000005e0       0x20 /opt/ARM/arm-linaro-eabi-4.6/lib/gcc/arm-none-eabi/4.7.3/../../../../arm-none-eabi/lib/thumb/cortex-m4/float-abi-hard/fpuv4-sp-d16/libm.a(lib_a-ef_exp.o)
 .debug_aranges
                0x00000600       0x20 /opt/ARM/arm-linaro-eabi-4.6/lib/gcc/arm-none-eabi/4.7.3/../../../../arm-none-eabi/lib/thumb/cortex-m4/float-abi-hard/fpuv4-sp-d16/libm.a(lib_a-ef_pow.o)
 .debug_aranges
                0x00000620       0x20 /opt/ARM/arm-linaro-eabi-4.6/lib/gcc/arm-none-eabi/4.7.3/../../../../arm-none-eabi/lib/thumb/cortex-m4/float-abi-hard/fpuv4-sp-d16/libm.a(lib_a-ef_rem_pio2.o)
 .debug_aranges
                0x00000640       0x20 /opt/ARM/arm-linaro-eabi-4.6/lib/gcc/arm-none-eabi/4.7.3/../../../../arm-none-eabi/lib/thumb/cortex-m4/float-abi-hard/fpuv4-sp-d16/libm.a(lib_a-ef_sqrt.o)
 .debug_aranges
                0x00000660       0x20 /opt/ARM/arm-linaro-eabi-4.6/lib/gcc/arm-none-eabi/4.7.3/../../../../arm-none-eabi/lib/thumb/cortex-m4/float-abi-hard/fpuv4-sp-d16/libm.a(lib_a-e_log10.o)
 .debug_aranges
                0x00000680       0x20 /opt/ARM/arm-linaro-eabi-4.6/lib/gcc/arm-none-eabi/4.7.3/../../../../arm-none-eabi/lib/thumb/cortex-m4/float-abi-hard/fpuv4-sp-d16/libm.a(lib_a-e_log.o)
 .debug_aranges
                0x000006a0       0x20 /opt/ARM/arm-linaro-eabi-4.6/lib/gcc/arm-none-eabi/4.7.3/../../../../arm-none-eabi/lib/thumb/cortex-m4/float-abi-hard/fpuv4-sp-d16/libm.a(lib_a-e_rem_pio2.o)
 .debug_aranges
                0x000006c0       0x20 /opt/ARM/arm-linaro-eabi-4.6/lib/gcc/arm-none-eabi/4.7.3/../../../../arm-none-eabi/lib/thumb/cortex-m4/float-abi-hard/fpuv4-sp-d16/libm.a(lib_a-k_cos.o)
 .debug_aranges
                0x000006e0       0x20 /opt/ARM/arm-linaro-eabi-4.6/lib/gcc/arm-none-eabi/4.7.3/../../../../arm-none-eabi/lib/thumb/cortex-m4/float-abi-hard/fpuv4-sp-d16/libm.a(lib_a-kf_cos.o)
 .debug_aranges
                0x00000700       0x20 /opt/ARM/arm-linaro-eabi-4.6/lib/gcc/arm-none-eabi/4.7.3/../../../../arm-none-eabi/lib/thumb/cortex-m4/float-abi-hard/fpuv4-sp-d16/libm.a(lib_a-kf_rem_pio2.o)
 .debug_aranges
                0x00000720       0x20 /opt/ARM/arm-linaro-eabi-4.6/lib/gcc/arm-none-eabi/4.7.3/../../../../arm-none-eabi/lib/thumb/cortex-m4/float-abi-hard/fpuv4-sp-d16/libm.a(lib_a-kf_sin.o)
 .debug_aranges
                0x00000740       0x20 /opt/ARM/arm-linaro-eabi-4.6/lib/gcc/arm-none-eabi/4.7.3/../../../../arm-none-eabi/lib/thumb/cortex-m4/float-abi-hard/fpuv4-sp-d16/libm.a(lib_a-kf_tan.o)
 .debug_aranges
                0x00000760       0x20 /opt/ARM/arm-linaro-eabi-4.6/lib/gcc/arm-none-eabi/4.7.3/../../../../arm-none-eabi/lib/thumb/cortex-m4/float-abi-hard/fpuv4-sp-d16/libm.a(lib_a-k_rem_pio2.o)
 .debug_aranges
                0x00000780       0x20 /opt/ARM/arm-linaro-eabi-4.6/lib/gcc/arm-none-eabi/4.7.3/../../../../arm-none-eabi/lib/thumb/cortex-m4/float-abi-hard/fpuv4-sp-d16/libm.a(lib_a-k_sin.o)
 .debug_aranges
                0x000007a0       0x20 /opt/ARM/arm-linaro-eabi-4.6/lib/gcc/arm-none-eabi/4.7.3/../../../../arm-none-eabi/lib/thumb/cortex-m4/float-abi-hard/fpuv4-sp-d16/libm.a(lib_a-s_fabs.o)
 .debug_aranges
                0x000007c0       0x20 /opt/ARM/arm-linaro-eabi-4.6/lib/gcc/arm-none-eabi/4.7.3/../../../../arm-none-eabi/lib/thumb/cortex-m4/float-abi-hard/fpuv4-sp-d16/libm.a(lib_a-sf_fabs.o)
 .debug_aranges
                0x000007e0       0x20 /opt/ARM/arm-linaro-eabi-4.6/lib/gcc/arm-none-eabi/4.7.3/../../../../arm-none-eabi/lib/thumb/cortex-m4/float-abi-hard/fpuv4-sp-d16/libm.a(lib_a-sf_finite.o)
 .debug_aranges
                0x00000800       0x20 /opt/ARM/arm-linaro-eabi-4.6/lib/gcc/arm-none-eabi/4.7.3/../../../../arm-none-eabi/lib/thumb/cortex-m4/float-abi-hard/fpuv4-sp-d16/libm.a(lib_a-sf_floor.o)
 .debug_aranges
                0x00000820       0x20 /opt/ARM/arm-linaro-eabi-4.6/lib/gcc/arm-none-eabi/4.7.3/../../../../arm-none-eabi/lib/thumb/cortex-m4/float-abi-hard/fpuv4-sp-d16/libm.a(lib_a-sf_fpclassify.o)
 .debug_aranges
                0x00000840       0x20 /opt/ARM/arm-linaro-eabi-4.6/lib/gcc/arm-none-eabi/4.7.3/../../../../arm-none-eabi/lib/thumb/cortex-m4/float-abi-hard/fpuv4-sp-d16/libm.a(lib_a-s_finite.o)
 .debug_aranges
                0x00000860       0x20 /opt/ARM/arm-linaro-eabi-4.6/lib/gcc/arm-none-eabi/4.7.3/../../../../arm-none-eabi/lib/thumb/cortex-m4/float-abi-hard/fpuv4-sp-d16/libm.a(lib_a-sf_nan.o)
 .debug_aranges
                0x00000880       0x20 /opt/ARM/arm-linaro-eabi-4.6/lib/gcc/arm-none-eabi/4.7.3/../../../../arm-none-eabi/lib/thumb/cortex-m4/float-abi-hard/fpuv4-sp-d16/libm.a(lib_a-s_fpclassify.o)
 .debug_aranges
                0x000008a0       0x20 /opt/ARM/arm-linaro-eabi-4.6/lib/gcc/arm-none-eabi/4.7.3/../../../../arm-none-eabi/lib/thumb/cortex-m4/float-abi-hard/fpuv4-sp-d16/libm.a(lib_a-sf_scalbn.o)
 .debug_aranges
                0x000008c0       0x18 /opt/ARM/arm-linaro-eabi-4.6/lib/gcc/arm-none-eabi/4.7.3/../../../../arm-none-eabi/lib/thumb/cortex-m4/float-abi-hard/fpuv4-sp-d16/libm.a(lib_a-s_lib_ver.o)
 .debug_aranges
                0x000008d8       0x20 /opt/ARM/arm-linaro-eabi-4.6/lib/gcc/arm-none-eabi/4.7.3/../../../../arm-none-eabi/lib/thumb/cortex-m4/float-abi-hard/fpuv4-sp-d16/libm.a(lib_a-s_matherr.o)
 .debug_aranges
                0x000008f8       0x20 /opt/ARM/arm-linaro-eabi-4.6/lib/gcc/arm-none-eabi/4.7.3/../../../../arm-none-eabi/lib/thumb/cortex-m4/float-abi-hard/fpuv4-sp-d16/libm.a(lib_a-s_nan.o)
 .debug_aranges
                0x00000918       0x20 /opt/ARM/arm-linaro-eabi-4.6/lib/gcc/arm-none-eabi/4.7.3/../../../../arm-none-eabi/lib/thumb/cortex-m4/float-abi-hard/fpuv4-sp-d16/libm.a(lib_a-s_rint.o)
 .debug_aranges
                0x00000938       0x20 /opt/ARM/arm-linaro-eabi-4.6/lib/gcc/arm-none-eabi/4.7.3/../../../../arm-none-eabi/lib/thumb/cortex-m4/float-abi-hard/fpuv4-sp-d16/libm.a(lib_a-s_scalbn.o)
 .debug_aranges
                0x00000958       0x20 /opt/ARM/arm-linaro-eabi-4.6/lib/gcc/arm-none-eabi/4.7.3/../../../../arm-none-eabi/lib/thumb/cortex-m4/float-abi-hard/fpuv4-sp-d16/libm.a(lib_a-s_copysign.o)
 .debug_aranges
                0x00000978       0x20 /opt/ARM/arm-linaro-eabi-4.6/lib/gcc/arm-none-eabi/4.7.3/../../../../arm-none-eabi/lib/thumb/cortex-m4/float-abi-hard/fpuv4-sp-d16/libm.a(lib_a-sf_copysign.o)
 .debug_aranges
                0x00000998       0x20 /opt/ARM/arm-linaro-eabi-4.6/lib/gcc/arm-none-eabi/4.7.3/../../../../arm-none-eabi/lib/thumb/cortex-m4/float-abi-hard/fpuv4-sp-d16/libc.a(lib_a-errno.o)
 .debug_aranges
                0x000009b8       0x18 /opt/ARM/arm-linaro-eabi-4.6/lib/gcc/arm-none-eabi/4.7.3/../../../../arm-none-eabi/lib/thumb/cortex-m4/float-abi-hard/fpuv4-sp-d16/libc.a(lib_a-impure.o)
 .debug_aranges
                0x000009d0       0x20 /opt/ARM/arm-linaro-eabi-4.6/lib/gcc/arm-none-eabi/4.7.3/../../../../arm-none-eabi/lib/thumb/cortex-m4/float-abi-hard/fpuv4-sp-d16/libc.a(lib_a-malloc.o)
 .debug_aranges
                0x000009f0       0x20 /opt/ARM/arm-linaro-eabi-4.6/lib/gcc/arm-none-eabi/4.7.3/../../../../arm-none-eabi/lib/thumb/cortex-m4/float-abi-hard/fpuv4-sp-d16/libc.a(lib_a-mallocr.o)
 .debug_aranges
                0x00000a10       0x20 /opt/ARM/arm-linaro-eabi-4.6/lib/gcc/arm-none-eabi/4.7.3/../../../../arm-none-eabi/lib/thumb/cortex-m4/float-abi-hard/fpuv4-sp-d16/libc.a(lib_a-memcpy-stub.o)
 .debug_aranges
                0x00000a30       0x20 /opt/ARM/arm-linaro-eabi-4.6/lib/gcc/arm-none-eabi/4.7.3/../../../../arm-none-eabi/lib/thumb/cortex-m4/float-abi-hard/fpuv4-sp-d16/libc.a(lib_a-memset.o)
 .debug_aranges
                0x00000a50       0x20 /opt/ARM/arm-linaro-eabi-4.6/lib/gcc/arm-none-eabi/4.7.3/../../../../arm-none-eabi/lib/thumb/cortex-m4/float-abi-hard/fpuv4-sp-d16/libc.a(lib_a-mlock.o)
 .debug_aranges
                0x00000a70       0x20 /opt/ARM/arm-linaro-eabi-4.6/lib/gcc/arm-none-eabi/4.7.3/../../../../arm-none-eabi/lib/thumb/cortex-m4/float-abi-hard/fpuv4-sp-d16/libc.a(lib_a-printf.o)
 .debug_aranges
                0x00000a90       0x20 /opt/ARM/arm-linaro-eabi-4.6/lib/gcc/arm-none-eabi/4.7.3/../../../../arm-none-eabi/lib/thumb/cortex-m4/float-abi-hard/fpuv4-sp-d16/libc.a(lib_a-putchar.o)
 .debug_aranges
                0x00000ab0       0x20 /opt/ARM/arm-linaro-eabi-4.6/lib/gcc/arm-none-eabi/4.7.3/../../../../arm-none-eabi/lib/thumb/cortex-m4/float-abi-hard/fpuv4-sp-d16/libc.a(lib_a-putc.o)
 .debug_aranges
                0x00000ad0       0x20 /opt/ARM/arm-linaro-eabi-4.6/lib/gcc/arm-none-eabi/4.7.3/../../../../arm-none-eabi/lib/thumb/cortex-m4/float-abi-hard/fpuv4-sp-d16/libc.a(lib_a-puts.o)
 .debug_aranges
                0x00000af0       0x20 /opt/ARM/arm-linaro-eabi-4.6/lib/gcc/arm-none-eabi/4.7.3/../../../../arm-none-eabi/lib/thumb/cortex-m4/float-abi-hard/fpuv4-sp-d16/libc.a(lib_a-rand.o)
 .debug_aranges
                0x00000b10       0x20 /opt/ARM/arm-linaro-eabi-4.6/lib/gcc/arm-none-eabi/4.7.3/../../../../arm-none-eabi/lib/thumb/cortex-m4/float-abi-hard/fpuv4-sp-d16/libc.a(lib_a-sbrkr.o)
 .debug_aranges
                0x00000b30       0x20 /opt/ARM/arm-linaro-eabi-4.6/lib/gcc/arm-none-eabi/4.7.3/../../../../arm-none-eabi/lib/thumb/cortex-m4/float-abi-hard/fpuv4-sp-d16/libc.a(lib_a-strcmp.o)
 .debug_aranges
                0x00000b50       0x20 /opt/ARM/arm-linaro-eabi-4.6/lib/gcc/arm-none-eabi/4.7.3/../../../../arm-none-eabi/lib/thumb/cortex-m4/float-abi-hard/fpuv4-sp-d16/libc.a(lib_a-strlen.o)
 .debug_aranges
                0x00000b70       0x20 /opt/ARM/arm-linaro-eabi-4.6/lib/gcc/arm-none-eabi/4.7.3/../../../../arm-none-eabi/lib/thumb/cortex-m4/float-abi-hard/fpuv4-sp-d16/libc.a(lib_a-vfprintf.o)
 .debug_aranges
                0x00000b90       0x20 /opt/ARM/arm-linaro-eabi-4.6/lib/gcc/arm-none-eabi/4.7.3/../../../../arm-none-eabi/lib/thumb/cortex-m4/float-abi-hard/fpuv4-sp-d16/libc.a(lib_a-wbuf.o)
 .debug_aranges
                0x00000bb0       0x20 /opt/ARM/arm-linaro-eabi-4.6/lib/gcc/arm-none-eabi/4.7.3/../../../../arm-none-eabi/lib/thumb/cortex-m4/float-abi-hard/fpuv4-sp-d16/libc.a(lib_a-wsetup.o)
 .debug_aranges
                0x00000bd0       0x20 /opt/ARM/arm-linaro-eabi-4.6/lib/gcc/arm-none-eabi/4.7.3/../../../../arm-none-eabi/lib/thumb/cortex-m4/float-abi-hard/fpuv4-sp-d16/libc.a(lib_a-dtoa.o)
 .debug_aranges
                0x00000bf0       0x20 /opt/ARM/arm-linaro-eabi-4.6/lib/gcc/arm-none-eabi/4.7.3/../../../../arm-none-eabi/lib/thumb/cortex-m4/float-abi-hard/fpuv4-sp-d16/libc.a(lib_a-fflush.o)
 .debug_aranges
                0x00000c10       0x20 /opt/ARM/arm-linaro-eabi-4.6/lib/gcc/arm-none-eabi/4.7.3/../../../../arm-none-eabi/lib/thumb/cortex-m4/float-abi-hard/fpuv4-sp-d16/libc.a(lib_a-findfp.o)
 .debug_aranges
                0x00000c30       0x20 /opt/ARM/arm-linaro-eabi-4.6/lib/gcc/arm-none-eabi/4.7.3/../../../../arm-none-eabi/lib/thumb/cortex-m4/float-abi-hard/fpuv4-sp-d16/libc.a(lib_a-freer.o)
 .debug_aranges
                0x00000c50       0x20 /opt/ARM/arm-linaro-eabi-4.6/lib/gcc/arm-none-eabi/4.7.3/../../../../arm-none-eabi/lib/thumb/cortex-m4/float-abi-hard/fpuv4-sp-d16/libc.a(lib_a-fvwrite.o)
 .debug_aranges
                0x00000c70       0x20 /opt/ARM/arm-linaro-eabi-4.6/lib/gcc/arm-none-eabi/4.7.3/../../../../arm-none-eabi/lib/thumb/cortex-m4/float-abi-hard/fpuv4-sp-d16/libc.a(lib_a-fwalk.o)
 .debug_aranges
                0x00000c90       0x20 /opt/ARM/arm-linaro-eabi-4.6/lib/gcc/arm-none-eabi/4.7.3/../../../../arm-none-eabi/lib/thumb/cortex-m4/float-abi-hard/fpuv4-sp-d16/libc.a(lib_a-locale.o)
 .debug_aranges
                0x00000cb0       0x20 /opt/ARM/arm-linaro-eabi-4.6/lib/gcc/arm-none-eabi/4.7.3/../../../../arm-none-eabi/lib/thumb/cortex-m4/float-abi-hard/fpuv4-sp-d16/libc.a(lib_a-makebuf.o)
 .debug_aranges
                0x00000cd0       0x20 /opt/ARM/arm-linaro-eabi-4.6/lib/gcc/arm-none-eabi/4.7.3/../../../../arm-none-eabi/lib/thumb/cortex-m4/float-abi-hard/fpuv4-sp-d16/libc.a(lib_a-memchr-stub.o)
 .debug_aranges
                0x00000cf0       0x20 /opt/ARM/arm-linaro-eabi-4.6/lib/gcc/arm-none-eabi/4.7.3/../../../../arm-none-eabi/lib/thumb/cortex-m4/float-abi-hard/fpuv4-sp-d16/libc.a(lib_a-memmove.o)
 .debug_aranges
                0x00000d10       0x20 /opt/ARM/arm-linaro-eabi-4.6/lib/gcc/arm-none-eabi/4.7.3/../../../../arm-none-eabi/lib/thumb/cortex-m4/float-abi-hard/fpuv4-sp-d16/libc.a(lib_a-mprec.o)
 .debug_aranges
                0x00000d30       0x20 /opt/ARM/arm-linaro-eabi-4.6/lib/gcc/arm-none-eabi/4.7.3/../../../../arm-none-eabi/lib/thumb/cortex-m4/float-abi-hard/fpuv4-sp-d16/libc.a(lib_a-reallocr.o)
 .debug_aranges
                0x00000d50       0x20 /opt/ARM/arm-linaro-eabi-4.6/lib/gcc/arm-none-eabi/4.7.3/../../../../arm-none-eabi/lib/thumb/cortex-m4/float-abi-hard/fpuv4-sp-d16/libc.a(lib_a-reent.o)
 .debug_aranges
                0x00000d70       0x20 /opt/ARM/arm-linaro-eabi-4.6/lib/gcc/arm-none-eabi/4.7.3/../../../../arm-none-eabi/lib/thumb/cortex-m4/float-abi-hard/fpuv4-sp-d16/libc.a(lib_a-stdio.o)
 .debug_aranges
                0x00000d90       0x20 /opt/ARM/arm-linaro-eabi-4.6/lib/gcc/arm-none-eabi/4.7.3/../../../../arm-none-eabi/lib/thumb/cortex-m4/float-abi-hard/fpuv4-sp-d16/libc.a(lib_a-vfiprintf.o)
 .debug_aranges
                0x00000db0       0x20 /opt/ARM/arm-linaro-eabi-4.6/lib/gcc/arm-none-eabi/4.7.3/../../../../arm-none-eabi/lib/thumb/cortex-m4/float-abi-hard/fpuv4-sp-d16/libc.a(lib_a-writer.o)
 .debug_aranges
                0x00000dd0       0x20 /opt/ARM/arm-linaro-eabi-4.6/lib/gcc/arm-none-eabi/4.7.3/../../../../arm-none-eabi/lib/thumb/cortex-m4/float-abi-hard/fpuv4-sp-d16/libc.a(lib_a-callocr.o)
 .debug_aranges
                0x00000df0       0x20 /opt/ARM/arm-linaro-eabi-4.6/lib/gcc/arm-none-eabi/4.7.3/../../../../arm-none-eabi/lib/thumb/cortex-m4/float-abi-hard/fpuv4-sp-d16/libc.a(lib_a-closer.o)
 .debug_aranges
                0x00000e10       0x20 /opt/ARM/arm-linaro-eabi-4.6/lib/gcc/arm-none-eabi/4.7.3/../../../../arm-none-eabi/lib/thumb/cortex-m4/float-abi-hard/fpuv4-sp-d16/libc.a(lib_a-fclose.o)
 .debug_aranges
                0x00000e30       0x20 /opt/ARM/arm-linaro-eabi-4.6/lib/gcc/arm-none-eabi/4.7.3/../../../../arm-none-eabi/lib/thumb/cortex-m4/float-abi-hard/fpuv4-sp-d16/libc.a(lib_a-fputwc.o)
 .debug_aranges
                0x00000e50       0x20 /opt/ARM/arm-linaro-eabi-4.6/lib/gcc/arm-none-eabi/4.7.3/../../../../arm-none-eabi/lib/thumb/cortex-m4/float-abi-hard/fpuv4-sp-d16/libc.a(lib_a-fstatr.o)
 .debug_aranges
                0x00000e70       0x20 /opt/ARM/arm-linaro-eabi-4.6/lib/gcc/arm-none-eabi/4.7.3/../../../../arm-none-eabi/lib/thumb/cortex-m4/float-abi-hard/fpuv4-sp-d16/libc.a(lib_a-isattyr.o)
 .debug_aranges
                0x00000e90       0x20 /opt/ARM/arm-linaro-eabi-4.6/lib/gcc/arm-none-eabi/4.7.3/../../../../arm-none-eabi/lib/thumb/cortex-m4/float-abi-hard/fpuv4-sp-d16/libc.a(lib_a-lseekr.o)
 .debug_aranges
                0x00000eb0       0x20 /opt/ARM/arm-linaro-eabi-4.6/lib/gcc/arm-none-eabi/4.7.3/../../../../arm-none-eabi/lib/thumb/cortex-m4/float-abi-hard/fpuv4-sp-d16/libc.a(lib_a-readr.o)
 .debug_aranges
                0x00000ed0       0x20 /opt/ARM/arm-linaro-eabi-4.6/lib/gcc/arm-none-eabi/4.7.3/../../../../arm-none-eabi/lib/thumb/cortex-m4/float-abi-hard/fpuv4-sp-d16/libc.a(lib_a-wcrtomb.o)
 .debug_aranges
                0x00000ef0       0x20 /opt/ARM/arm-linaro-eabi-4.6/lib/gcc/arm-none-eabi/4.7.3/../../../../arm-none-eabi/lib/thumb/cortex-m4/float-abi-hard/fpuv4-sp-d16/libc.a(lib_a-wctomb_r.o)
 .debug_aranges
                0x00000f10       0x20 /opt/ARM/arm-linaro-eabi-4.6/lib/gcc/arm-none-eabi/4.7.3/thumb/cortex-m4/float-abi-hard/fpuv4-sp-d16/libgcc.a(_arm_addsubdf3.o)
 .debug_aranges
                0x00000f30       0x20 /opt/ARM/arm-linaro-eabi-4.6/lib/gcc/arm-none-eabi/4.7.3/thumb/cortex-m4/float-abi-hard/fpuv4-sp-d16/libgcc.a(_arm_muldivdf3.o)
 .debug_aranges
                0x00000f50       0x20 /opt/ARM/arm-linaro-eabi-4.6/lib/gcc/arm-none-eabi/4.7.3/thumb/cortex-m4/float-abi-hard/fpuv4-sp-d16/libgcc.a(_arm_cmpdf2.o)
 .debug_aranges
                0x00000f70       0x20 /opt/ARM/arm-linaro-eabi-4.6/lib/gcc/arm-none-eabi/4.7.3/thumb/cortex-m4/float-abi-hard/fpuv4-sp-d16/libgcc.a(_arm_fixdfsi.o)
 .debug_aranges
                0x00000f90       0x20 /opt/ARM/arm-linaro-eabi-4.6/lib/gcc/arm-none-eabi/4.7.3/thumb/cortex-m4/float-abi-hard/fpuv4-sp-d16/libgcc.a(_arm_truncdfsf2.o)

.debug_ranges   0x00000000     0x4280
 .debug_ranges  0x00000000       0x30 system_stm32f4xx.o
 .debug_ranges  0x00000030       0x30 main.o
 .debug_ranges  0x00000060       0x18 i2s.o
 .debug_ranges  0x00000078       0x30 stm32f4xx_rcc.o
 .debug_ranges  0x000000a8       0x60 audio.o
 .debug_ranges  0x00000108       0xb0 vosim.o
 .debug_ranges  0x000001b8      0x280 effect.o
 .debug_ranges  0x00000438       0x90 vocode.o
 .debug_ranges  0x000004c8      0x498 sam.o
 .debug_ranges  0x00000960      0xa40 render.o
 .debug_ranges  0x000013a0      0x430 LPC/lpc.o
 .debug_ranges  0x000017d0      0x188 vocoder/vocode.o
 .debug_ranges  0x00001958      0x118 vocoder/fftn.o
 .debug_ranges  0x00001a70       0x18 scformant.o
 .debug_ranges  0x00001a88      0x460 ./rsynth-2.0-port/holmes.o
 .debug_ranges  0x00001ee8     0x1d98 ./rsynth-2.0-port/nsynth.o
 .debug_ranges  0x00003c80       0x68 ./rsynth-2.0-port/darray.o
 .debug_ranges  0x00003ce8       0x10 /root/CMSIS/CMSIS/Lib/GCC/libarm_cortexM4lf_math.a(arm_biquad_cascade_df1_init_f32.o)
 .debug_ranges  0x00003cf8       0x10 /root/CMSIS/CMSIS/Lib/GCC/libarm_cortexM4lf_math.a(arm_biquad_cascade_df1_f32.o)
 .debug_ranges  0x00003d08       0x30 /opt/ARM/arm-linaro-eabi-4.6/lib/gcc/arm-none-eabi/4.7.3/../../../../arm-none-eabi/lib/thumb/cortex-m4/float-abi-hard/fpuv4-sp-d16/libm.a(lib_a-s_floor.o)
 .debug_ranges  0x00003d38       0x20 /opt/ARM/arm-linaro-eabi-4.6/lib/gcc/arm-none-eabi/4.7.3/../../../../arm-none-eabi/lib/thumb/cortex-m4/float-abi-hard/fpuv4-sp-d16/libm.a(lib_a-e_exp.o)
 .debug_ranges  0x00003d58       0x50 /opt/ARM/arm-linaro-eabi-4.6/lib/gcc/arm-none-eabi/4.7.3/../../../../arm-none-eabi/lib/thumb/cortex-m4/float-abi-hard/fpuv4-sp-d16/libm.a(lib_a-ef_pow.o)
 .debug_ranges  0x00003da8       0x18 /opt/ARM/arm-linaro-eabi-4.6/lib/gcc/arm-none-eabi/4.7.3/../../../../arm-none-eabi/lib/thumb/cortex-m4/float-abi-hard/fpuv4-sp-d16/libm.a(lib_a-ef_rem_pio2.o)
 .debug_ranges  0x00003dc0       0x50 /opt/ARM/arm-linaro-eabi-4.6/lib/gcc/arm-none-eabi/4.7.3/../../../../arm-none-eabi/lib/thumb/cortex-m4/float-abi-hard/fpuv4-sp-d16/libm.a(lib_a-e_log.o)
 .debug_ranges  0x00003e10       0x38 /opt/ARM/arm-linaro-eabi-4.6/lib/gcc/arm-none-eabi/4.7.3/../../../../arm-none-eabi/lib/thumb/cortex-m4/float-abi-hard/fpuv4-sp-d16/libm.a(lib_a-e_rem_pio2.o)
 .debug_ranges  0x00003e48       0x28 /opt/ARM/arm-linaro-eabi-4.6/lib/gcc/arm-none-eabi/4.7.3/../../../../arm-none-eabi/lib/thumb/cortex-m4/float-abi-hard/fpuv4-sp-d16/libm.a(lib_a-kf_tan.o)
 .debug_ranges  0x00003e70       0x18 /opt/ARM/arm-linaro-eabi-4.6/lib/gcc/arm-none-eabi/4.7.3/../../../../arm-none-eabi/lib/thumb/cortex-m4/float-abi-hard/fpuv4-sp-d16/libm.a(lib_a-sf_floor.o)
 .debug_ranges  0x00003e88       0x38 /opt/ARM/arm-linaro-eabi-4.6/lib/gcc/arm-none-eabi/4.7.3/../../../../arm-none-eabi/lib/thumb/cortex-m4/float-abi-hard/fpuv4-sp-d16/libm.a(lib_a-s_rint.o)
 .debug_ranges  0x00003ec0       0x38 /opt/ARM/arm-linaro-eabi-4.6/lib/gcc/arm-none-eabi/4.7.3/../../../../arm-none-eabi/lib/thumb/cortex-m4/float-abi-hard/fpuv4-sp-d16/libm.a(lib_a-s_scalbn.o)
 .debug_ranges  0x00003ef8       0x50 /opt/ARM/arm-linaro-eabi-4.6/lib/gcc/arm-none-eabi/4.7.3/../../../../arm-none-eabi/lib/thumb/cortex-m4/float-abi-hard/fpuv4-sp-d16/libc.a(lib_a-mallocr.o)
 .debug_ranges  0x00003f48      0x160 /opt/ARM/arm-linaro-eabi-4.6/lib/gcc/arm-none-eabi/4.7.3/../../../../arm-none-eabi/lib/thumb/cortex-m4/float-abi-hard/fpuv4-sp-d16/libc.a(lib_a-vfprintf.o)
 .debug_ranges  0x000040a8       0x18 /opt/ARM/arm-linaro-eabi-4.6/lib/gcc/arm-none-eabi/4.7.3/../../../../arm-none-eabi/lib/thumb/cortex-m4/float-abi-hard/fpuv4-sp-d16/libc.a(lib_a-fflush.o)
 .debug_ranges  0x000040c0       0x20 /opt/ARM/arm-linaro-eabi-4.6/lib/gcc/arm-none-eabi/4.7.3/../../../../arm-none-eabi/lib/thumb/cortex-m4/float-abi-hard/fpuv4-sp-d16/libc.a(lib_a-fvwrite.o)
 .debug_ranges  0x000040e0       0x38 /opt/ARM/arm-linaro-eabi-4.6/lib/gcc/arm-none-eabi/4.7.3/../../../../arm-none-eabi/lib/thumb/cortex-m4/float-abi-hard/fpuv4-sp-d16/libc.a(lib_a-mprec.o)
 .debug_ranges  0x00004118       0x78 /opt/ARM/arm-linaro-eabi-4.6/lib/gcc/arm-none-eabi/4.7.3/../../../../arm-none-eabi/lib/thumb/cortex-m4/float-abi-hard/fpuv4-sp-d16/libc.a(lib_a-reallocr.o)
 .debug_ranges  0x00004190       0x90 /opt/ARM/arm-linaro-eabi-4.6/lib/gcc/arm-none-eabi/4.7.3/../../../../arm-none-eabi/lib/thumb/cortex-m4/float-abi-hard/fpuv4-sp-d16/libc.a(lib_a-vfiprintf.o)
 .debug_ranges  0x00004220       0x30 /opt/ARM/arm-linaro-eabi-4.6/lib/gcc/arm-none-eabi/4.7.3/../../../../arm-none-eabi/lib/thumb/cortex-m4/float-abi-hard/fpuv4-sp-d16/libc.a(lib_a-callocr.o)
 .debug_ranges  0x00004250       0x30 /opt/ARM/arm-linaro-eabi-4.6/lib/gcc/arm-none-eabi/4.7.3/../../../../arm-none-eabi/lib/thumb/cortex-m4/float-abi-hard/fpuv4-sp-d16/libc.a(lib_a-fputwc.o)

.debug_line     0x00000000    0x11472
 .debug_line    0x00000000      0x133 system_stm32f4xx.o
 .debug_line    0x00000133      0x1b2 main.o
 .debug_line    0x000002e5      0x1f2 codec.o
 .debug_line    0x000004d7      0x1bd i2s.o
 .debug_line    0x00000694      0x1d6 adc.o
 .debug_line    0x0000086a      0x1cf stm32f4xx_gpio.o
 .debug_line    0x00000a39      0x27a stm32f4xx_i2c.o
 .debug_line    0x00000cb3      0x259 stm32f4xx_rcc.o
 .debug_line    0x00000f0c      0x270 stm32f4xx_spi.o
 .debug_line    0x0000117c      0x246 stm32f4xx_dma.o
 .debug_line    0x000013c2      0x2b8 stm32f4xx_adc.o
 .debug_line    0x0000167a      0x148 syscalls.o
 .debug_line    0x000017c2      0x5ec audio.o
 .debug_line    0x00001dae      0x276 vosim.o
 .debug_line    0x00002024      0x1a9 mdavoc.o
 .debug_line    0x000021cd      0x314 mdavocoder.o
 .debug_line    0x000024e1      0x3f0 effect.o
 .debug_line    0x000028d1      0x78e vocode.o
 .debug_line    0x0000305f       0xfd klatt_phoneme.o
 .debug_line    0x0000315c      0x6a1 sam.o
 .debug_line    0x000037fd      0x9db render.o
 .debug_line    0x000041d8      0x425 LPC/lpc.o
 .debug_line    0x000045fd      0x1d2 vocoder/vocode.o
 .debug_line    0x000047cf      0x4be vocoder/fftn.o
 .debug_line    0x00004c8d      0x10a scformant.o
 .debug_line    0x00004d97      0x5ce ./rsynth-2.0-port/holmes.o
 .debug_line    0x00005365       0x49 ./rsynth-2.0-port/elements.o
 .debug_line    0x000053ae      0xb7f ./rsynth-2.0-port/nsynth.o
 .debug_line    0x00005f2d      0x12a ./rsynth-2.0-port/say.o
 .debug_line    0x00006057      0x183 ./rsynth-2.0-port/darray.o
 .debug_line    0x000061da       0x84 ./rsynth-2.0-port/def_pars.o
 .debug_line    0x0000625e      0x153 /root/CMSIS/CMSIS/Lib/GCC/libarm_cortexM4lf_math.a(arm_biquad_cascade_df1_init_f32.o)
 .debug_line    0x000063b1      0x1cb /root/CMSIS/CMSIS/Lib/GCC/libarm_cortexM4lf_math.a(arm_biquad_cascade_df1_f32.o)
 .debug_line    0x0000657c      0x1ad /opt/ARM/arm-linaro-eabi-4.6/lib/gcc/arm-none-eabi/4.7.3/../../../../arm-none-eabi/lib/thumb/cortex-m4/float-abi-hard/fpuv4-sp-d16/libm.a(lib_a-s_cos.o)
 .debug_line    0x00006729      0x1a5 /opt/ARM/arm-linaro-eabi-4.6/lib/gcc/arm-none-eabi/4.7.3/../../../../arm-none-eabi/lib/thumb/cortex-m4/float-abi-hard/fpuv4-sp-d16/libm.a(lib_a-sf_cos.o)
 .debug_line    0x000068ce      0x1ec /opt/ARM/arm-linaro-eabi-4.6/lib/gcc/arm-none-eabi/4.7.3/../../../../arm-none-eabi/lib/thumb/cortex-m4/float-abi-hard/fpuv4-sp-d16/libm.a(lib_a-s_floor.o)
 .debug_line    0x00006aba      0x1a5 /opt/ARM/arm-linaro-eabi-4.6/lib/gcc/arm-none-eabi/4.7.3/../../../../arm-none-eabi/lib/thumb/cortex-m4/float-abi-hard/fpuv4-sp-d16/libm.a(lib_a-sf_sin.o)
 .debug_line    0x00006c5f      0x199 /opt/ARM/arm-linaro-eabi-4.6/lib/gcc/arm-none-eabi/4.7.3/../../../../arm-none-eabi/lib/thumb/cortex-m4/float-abi-hard/fpuv4-sp-d16/libm.a(lib_a-sf_tan.o)
 .debug_line    0x00006df8      0x1ae /opt/ARM/arm-linaro-eabi-4.6/lib/gcc/arm-none-eabi/4.7.3/../../../../arm-none-eabi/lib/thumb/cortex-m4/float-abi-hard/fpuv4-sp-d16/libm.a(lib_a-s_sin.o)
 .debug_line    0x00006fa6      0x1aa /opt/ARM/arm-linaro-eabi-4.6/lib/gcc/arm-none-eabi/4.7.3/../../../../arm-none-eabi/lib/thumb/cortex-m4/float-abi-hard/fpuv4-sp-d16/libm.a(lib_a-w_exp.o)
 .debug_line    0x00007150      0x1a3 /opt/ARM/arm-linaro-eabi-4.6/lib/gcc/arm-none-eabi/4.7.3/../../../../arm-none-eabi/lib/thumb/cortex-m4/float-abi-hard/fpuv4-sp-d16/libm.a(lib_a-wf_acos.o)
 .debug_line    0x000072f3      0x1af /opt/ARM/arm-linaro-eabi-4.6/lib/gcc/arm-none-eabi/4.7.3/../../../../arm-none-eabi/lib/thumb/cortex-m4/float-abi-hard/fpuv4-sp-d16/libm.a(lib_a-wf_exp.o)
 .debug_line    0x000074a2      0x254 /opt/ARM/arm-linaro-eabi-4.6/lib/gcc/arm-none-eabi/4.7.3/../../../../arm-none-eabi/lib/thumb/cortex-m4/float-abi-hard/fpuv4-sp-d16/libm.a(lib_a-wf_pow.o)
 .debug_line    0x000076f6      0x1a7 /opt/ARM/arm-linaro-eabi-4.6/lib/gcc/arm-none-eabi/4.7.3/../../../../arm-none-eabi/lib/thumb/cortex-m4/float-abi-hard/fpuv4-sp-d16/libm.a(lib_a-wf_sqrt.o)
 .debug_line    0x0000789d      0x1b7 /opt/ARM/arm-linaro-eabi-4.6/lib/gcc/arm-none-eabi/4.7.3/../../../../arm-none-eabi/lib/thumb/cortex-m4/float-abi-hard/fpuv4-sp-d16/libm.a(lib_a-w_log10.o)
 .debug_line    0x00007a54      0x192 /opt/ARM/arm-linaro-eabi-4.6/lib/gcc/arm-none-eabi/4.7.3/../../../../arm-none-eabi/lib/thumb/cortex-m4/float-abi-hard/fpuv4-sp-d16/libm.a(lib_a-e_exp.o)
 .debug_line    0x00007be6      0x1cd /opt/ARM/arm-linaro-eabi-4.6/lib/gcc/arm-none-eabi/4.7.3/../../../../arm-none-eabi/lib/thumb/cortex-m4/float-abi-hard/fpuv4-sp-d16/libm.a(lib_a-ef_acos.o)
 .debug_line    0x00007db3      0x180 /opt/ARM/arm-linaro-eabi-4.6/lib/gcc/arm-none-eabi/4.7.3/../../../../arm-none-eabi/lib/thumb/cortex-m4/float-abi-hard/fpuv4-sp-d16/libm.a(lib_a-ef_exp.o)
 .debug_line    0x00007f33      0x324 /opt/ARM/arm-linaro-eabi-4.6/lib/gcc/arm-none-eabi/4.7.3/../../../../arm-none-eabi/lib/thumb/cortex-m4/float-abi-hard/fpuv4-sp-d16/libm.a(lib_a-ef_pow.o)
 .debug_line    0x00008257      0x221 /opt/ARM/arm-linaro-eabi-4.6/lib/gcc/arm-none-eabi/4.7.3/../../../../arm-none-eabi/lib/thumb/cortex-m4/float-abi-hard/fpuv4-sp-d16/libm.a(lib_a-ef_rem_pio2.o)
 .debug_line    0x00008478      0x175 /opt/ARM/arm-linaro-eabi-4.6/lib/gcc/arm-none-eabi/4.7.3/../../../../arm-none-eabi/lib/thumb/cortex-m4/float-abi-hard/fpuv4-sp-d16/libm.a(lib_a-ef_sqrt.o)
 .debug_line    0x000085ed      0x167 /opt/ARM/arm-linaro-eabi-4.6/lib/gcc/arm-none-eabi/4.7.3/../../../../arm-none-eabi/lib/thumb/cortex-m4/float-abi-hard/fpuv4-sp-d16/libm.a(lib_a-e_log10.o)
 .debug_line    0x00008754      0x1e9 /opt/ARM/arm-linaro-eabi-4.6/lib/gcc/arm-none-eabi/4.7.3/../../../../arm-none-eabi/lib/thumb/cortex-m4/float-abi-hard/fpuv4-sp-d16/libm.a(lib_a-e_log.o)
 .debug_line    0x0000893d      0x23f /opt/ARM/arm-linaro-eabi-4.6/lib/gcc/arm-none-eabi/4.7.3/../../../../arm-none-eabi/lib/thumb/cortex-m4/float-abi-hard/fpuv4-sp-d16/libm.a(lib_a-e_rem_pio2.o)
 .debug_line    0x00008b7c      0x15f /opt/ARM/arm-linaro-eabi-4.6/lib/gcc/arm-none-eabi/4.7.3/../../../../arm-none-eabi/lib/thumb/cortex-m4/float-abi-hard/fpuv4-sp-d16/libm.a(lib_a-k_cos.o)
 .debug_line    0x00008cdb      0x115 /opt/ARM/arm-linaro-eabi-4.6/lib/gcc/arm-none-eabi/4.7.3/../../../../arm-none-eabi/lib/thumb/cortex-m4/float-abi-hard/fpuv4-sp-d16/libm.a(lib_a-kf_cos.o)
 .debug_line    0x00008df0      0x391 /opt/ARM/arm-linaro-eabi-4.6/lib/gcc/arm-none-eabi/4.7.3/../../../../arm-none-eabi/lib/thumb/cortex-m4/float-abi-hard/fpuv4-sp-d16/libm.a(lib_a-kf_rem_pio2.o)
 .debug_line    0x00009181      0x106 /opt/ARM/arm-linaro-eabi-4.6/lib/gcc/arm-none-eabi/4.7.3/../../../../arm-none-eabi/lib/thumb/cortex-m4/float-abi-hard/fpuv4-sp-d16/libm.a(lib_a-kf_sin.o)
 .debug_line    0x00009287      0x1de /opt/ARM/arm-linaro-eabi-4.6/lib/gcc/arm-none-eabi/4.7.3/../../../../arm-none-eabi/lib/thumb/cortex-m4/float-abi-hard/fpuv4-sp-d16/libm.a(lib_a-kf_tan.o)
 .debug_line    0x00009465      0x3a3 /opt/ARM/arm-linaro-eabi-4.6/lib/gcc/arm-none-eabi/4.7.3/../../../../arm-none-eabi/lib/thumb/cortex-m4/float-abi-hard/fpuv4-sp-d16/libm.a(lib_a-k_rem_pio2.o)
 .debug_line    0x00009808       0xf6 /opt/ARM/arm-linaro-eabi-4.6/lib/gcc/arm-none-eabi/4.7.3/../../../../arm-none-eabi/lib/thumb/cortex-m4/float-abi-hard/fpuv4-sp-d16/libm.a(lib_a-k_sin.o)
 .debug_line    0x000098fe      0x18a /opt/ARM/arm-linaro-eabi-4.6/lib/gcc/arm-none-eabi/4.7.3/../../../../arm-none-eabi/lib/thumb/cortex-m4/float-abi-hard/fpuv4-sp-d16/libm.a(lib_a-s_fabs.o)
 .debug_line    0x00009a88      0x130 /opt/ARM/arm-linaro-eabi-4.6/lib/gcc/arm-none-eabi/4.7.3/../../../../arm-none-eabi/lib/thumb/cortex-m4/float-abi-hard/fpuv4-sp-d16/libm.a(lib_a-sf_fabs.o)
 .debug_line    0x00009bb8      0x134 /opt/ARM/arm-linaro-eabi-4.6/lib/gcc/arm-none-eabi/4.7.3/../../../../arm-none-eabi/lib/thumb/cortex-m4/float-abi-hard/fpuv4-sp-d16/libm.a(lib_a-sf_finite.o)
 .debug_line    0x00009cec      0x1d7 /opt/ARM/arm-linaro-eabi-4.6/lib/gcc/arm-none-eabi/4.7.3/../../../../arm-none-eabi/lib/thumb/cortex-m4/float-abi-hard/fpuv4-sp-d16/libm.a(lib_a-sf_floor.o)
 .debug_line    0x00009ec3      0x13e /opt/ARM/arm-linaro-eabi-4.6/lib/gcc/arm-none-eabi/4.7.3/../../../../arm-none-eabi/lib/thumb/cortex-m4/float-abi-hard/fpuv4-sp-d16/libm.a(lib_a-sf_fpclassify.o)
 .debug_line    0x0000a001      0x140 /opt/ARM/arm-linaro-eabi-4.6/lib/gcc/arm-none-eabi/4.7.3/../../../../arm-none-eabi/lib/thumb/cortex-m4/float-abi-hard/fpuv4-sp-d16/libm.a(lib_a-s_finite.o)
 .debug_line    0x0000a141       0xcc /opt/ARM/arm-linaro-eabi-4.6/lib/gcc/arm-none-eabi/4.7.3/../../../../arm-none-eabi/lib/thumb/cortex-m4/float-abi-hard/fpuv4-sp-d16/libm.a(lib_a-sf_nan.o)
 .debug_line    0x0000a20d      0x152 /opt/ARM/arm-linaro-eabi-4.6/lib/gcc/arm-none-eabi/4.7.3/../../../../arm-none-eabi/lib/thumb/cortex-m4/float-abi-hard/fpuv4-sp-d16/libm.a(lib_a-s_fpclassify.o)
 .debug_line    0x0000a35f      0x16b /opt/ARM/arm-linaro-eabi-4.6/lib/gcc/arm-none-eabi/4.7.3/../../../../arm-none-eabi/lib/thumb/cortex-m4/float-abi-hard/fpuv4-sp-d16/libm.a(lib_a-sf_scalbn.o)
 .debug_line    0x0000a4ca       0x6d /opt/ARM/arm-linaro-eabi-4.6/lib/gcc/arm-none-eabi/4.7.3/../../../../arm-none-eabi/lib/thumb/cortex-m4/float-abi-hard/fpuv4-sp-d16/libm.a(lib_a-s_lib_ver.o)
 .debug_line    0x0000a537       0xd2 /opt/ARM/arm-linaro-eabi-4.6/lib/gcc/arm-none-eabi/4.7.3/../../../../arm-none-eabi/lib/thumb/cortex-m4/float-abi-hard/fpuv4-sp-d16/libm.a(lib_a-s_matherr.o)
 .debug_line    0x0000a609       0xcd /opt/ARM/arm-linaro-eabi-4.6/lib/gcc/arm-none-eabi/4.7.3/../../../../arm-none-eabi/lib/thumb/cortex-m4/float-abi-hard/fpuv4-sp-d16/libm.a(lib_a-s_nan.o)
 .debug_line    0x0000a6d6      0x18c /opt/ARM/arm-linaro-eabi-4.6/lib/gcc/arm-none-eabi/4.7.3/../../../../arm-none-eabi/lib/thumb/cortex-m4/float-abi-hard/fpuv4-sp-d16/libm.a(lib_a-s_rint.o)
 .debug_line    0x0000a862      0x167 /opt/ARM/arm-linaro-eabi-4.6/lib/gcc/arm-none-eabi/4.7.3/../../../../arm-none-eabi/lib/thumb/cortex-m4/float-abi-hard/fpuv4-sp-d16/libm.a(lib_a-s_scalbn.o)
 .debug_line    0x0000a9c9      0x145 /opt/ARM/arm-linaro-eabi-4.6/lib/gcc/arm-none-eabi/4.7.3/../../../../arm-none-eabi/lib/thumb/cortex-m4/float-abi-hard/fpuv4-sp-d16/libm.a(lib_a-s_copysign.o)
 .debug_line    0x0000ab0e      0x143 /opt/ARM/arm-linaro-eabi-4.6/lib/gcc/arm-none-eabi/4.7.3/../../../../arm-none-eabi/lib/thumb/cortex-m4/float-abi-hard/fpuv4-sp-d16/libm.a(lib_a-sf_copysign.o)
 .debug_line    0x0000ac51      0x12e /opt/ARM/arm-linaro-eabi-4.6/lib/gcc/arm-none-eabi/4.7.3/../../../../arm-none-eabi/lib/thumb/cortex-m4/float-abi-hard/fpuv4-sp-d16/libc.a(lib_a-errno.o)
 .debug_line    0x0000ad7f      0x113 /opt/ARM/arm-linaro-eabi-4.6/lib/gcc/arm-none-eabi/4.7.3/../../../../arm-none-eabi/lib/thumb/cortex-m4/float-abi-hard/fpuv4-sp-d16/libc.a(lib_a-impure.o)
 .debug_line    0x0000ae92      0x181 /opt/ARM/arm-linaro-eabi-4.6/lib/gcc/arm-none-eabi/4.7.3/../../../../arm-none-eabi/lib/thumb/cortex-m4/float-abi-hard/fpuv4-sp-d16/libc.a(lib_a-malloc.o)
 .debug_line    0x0000b013      0x35d /opt/ARM/arm-linaro-eabi-4.6/lib/gcc/arm-none-eabi/4.7.3/../../../../arm-none-eabi/lib/thumb/cortex-m4/float-abi-hard/fpuv4-sp-d16/libc.a(lib_a-mallocr.o)
 .debug_line    0x0000b370      0x182 /opt/ARM/arm-linaro-eabi-4.6/lib/gcc/arm-none-eabi/4.7.3/../../../../arm-none-eabi/lib/thumb/cortex-m4/float-abi-hard/fpuv4-sp-d16/libc.a(lib_a-memcpy-stub.o)
 .debug_line    0x0000b4f2      0x180 /opt/ARM/arm-linaro-eabi-4.6/lib/gcc/arm-none-eabi/4.7.3/../../../../arm-none-eabi/lib/thumb/cortex-m4/float-abi-hard/fpuv4-sp-d16/libc.a(lib_a-memset.o)
 .debug_line    0x0000b672      0x125 /opt/ARM/arm-linaro-eabi-4.6/lib/gcc/arm-none-eabi/4.7.3/../../../../arm-none-eabi/lib/thumb/cortex-m4/float-abi-hard/fpuv4-sp-d16/libc.a(lib_a-mlock.o)
 .debug_line    0x0000b797      0x1a1 /opt/ARM/arm-linaro-eabi-4.6/lib/gcc/arm-none-eabi/4.7.3/../../../../arm-none-eabi/lib/thumb/cortex-m4/float-abi-hard/fpuv4-sp-d16/libc.a(lib_a-printf.o)
 .debug_line    0x0000b938      0x17e /opt/ARM/arm-linaro-eabi-4.6/lib/gcc/arm-none-eabi/4.7.3/../../../../arm-none-eabi/lib/thumb/cortex-m4/float-abi-hard/fpuv4-sp-d16/libc.a(lib_a-putchar.o)
 .debug_line    0x0000bab6      0x21f /opt/ARM/arm-linaro-eabi-4.6/lib/gcc/arm-none-eabi/4.7.3/../../../../arm-none-eabi/lib/thumb/cortex-m4/float-abi-hard/fpuv4-sp-d16/libc.a(lib_a-putc.o)
 .debug_line    0x0000bcd5      0x1ba /opt/ARM/arm-linaro-eabi-4.6/lib/gcc/arm-none-eabi/4.7.3/../../../../arm-none-eabi/lib/thumb/cortex-m4/float-abi-hard/fpuv4-sp-d16/libc.a(lib_a-puts.o)
 .debug_line    0x0000be8f      0x17a /opt/ARM/arm-linaro-eabi-4.6/lib/gcc/arm-none-eabi/4.7.3/../../../../arm-none-eabi/lib/thumb/cortex-m4/float-abi-hard/fpuv4-sp-d16/libc.a(lib_a-rand.o)
 .debug_line    0x0000c009      0x17f /opt/ARM/arm-linaro-eabi-4.6/lib/gcc/arm-none-eabi/4.7.3/../../../../arm-none-eabi/lib/thumb/cortex-m4/float-abi-hard/fpuv4-sp-d16/libc.a(lib_a-sbrkr.o)
 .debug_line    0x0000c188       0xde /opt/ARM/arm-linaro-eabi-4.6/lib/gcc/arm-none-eabi/4.7.3/../../../../arm-none-eabi/lib/thumb/cortex-m4/float-abi-hard/fpuv4-sp-d16/libc.a(lib_a-strcmp.o)
 .debug_line    0x0000c266      0x114 /opt/ARM/arm-linaro-eabi-4.6/lib/gcc/arm-none-eabi/4.7.3/../../../../arm-none-eabi/lib/thumb/cortex-m4/float-abi-hard/fpuv4-sp-d16/libc.a(lib_a-strlen.o)
 .debug_line    0x0000c37a      0x995 /opt/ARM/arm-linaro-eabi-4.6/lib/gcc/arm-none-eabi/4.7.3/../../../../arm-none-eabi/lib/thumb/cortex-m4/float-abi-hard/fpuv4-sp-d16/libc.a(lib_a-vfprintf.o)
 .debug_line    0x0000cd0f      0x1da /opt/ARM/arm-linaro-eabi-4.6/lib/gcc/arm-none-eabi/4.7.3/../../../../arm-none-eabi/lib/thumb/cortex-m4/float-abi-hard/fpuv4-sp-d16/libc.a(lib_a-wbuf.o)
 .debug_line    0x0000cee9      0x1db /opt/ARM/arm-linaro-eabi-4.6/lib/gcc/arm-none-eabi/4.7.3/../../../../arm-none-eabi/lib/thumb/cortex-m4/float-abi-hard/fpuv4-sp-d16/libc.a(lib_a-wsetup.o)
 .debug_line    0x0000d0c4      0x74a /opt/ARM/arm-linaro-eabi-4.6/lib/gcc/arm-none-eabi/4.7.3/../../../../arm-none-eabi/lib/thumb/cortex-m4/float-abi-hard/fpuv4-sp-d16/libc.a(lib_a-dtoa.o)
 .debug_line    0x0000d80e      0x255 /opt/ARM/arm-linaro-eabi-4.6/lib/gcc/arm-none-eabi/4.7.3/../../../../arm-none-eabi/lib/thumb/cortex-m4/float-abi-hard/fpuv4-sp-d16/libc.a(lib_a-fflush.o)
 .debug_line    0x0000da63      0x23e /opt/ARM/arm-linaro-eabi-4.6/lib/gcc/arm-none-eabi/4.7.3/../../../../arm-none-eabi/lib/thumb/cortex-m4/float-abi-hard/fpuv4-sp-d16/libc.a(lib_a-findfp.o)
 .debug_line    0x0000dca1      0x250 /opt/ARM/arm-linaro-eabi-4.6/lib/gcc/arm-none-eabi/4.7.3/../../../../arm-none-eabi/lib/thumb/cortex-m4/float-abi-hard/fpuv4-sp-d16/libc.a(lib_a-freer.o)
 .debug_line    0x0000def1      0x2d9 /opt/ARM/arm-linaro-eabi-4.6/lib/gcc/arm-none-eabi/4.7.3/../../../../arm-none-eabi/lib/thumb/cortex-m4/float-abi-hard/fpuv4-sp-d16/libc.a(lib_a-fvwrite.o)
 .debug_line    0x0000e1ca      0x1c9 /opt/ARM/arm-linaro-eabi-4.6/lib/gcc/arm-none-eabi/4.7.3/../../../../arm-none-eabi/lib/thumb/cortex-m4/float-abi-hard/fpuv4-sp-d16/libc.a(lib_a-fwalk.o)
 .debug_line    0x0000e393      0x1b7 /opt/ARM/arm-linaro-eabi-4.6/lib/gcc/arm-none-eabi/4.7.3/../../../../arm-none-eabi/lib/thumb/cortex-m4/float-abi-hard/fpuv4-sp-d16/libc.a(lib_a-locale.o)
 .debug_line    0x0000e54a      0x1f7 /opt/ARM/arm-linaro-eabi-4.6/lib/gcc/arm-none-eabi/4.7.3/../../../../arm-none-eabi/lib/thumb/cortex-m4/float-abi-hard/fpuv4-sp-d16/libc.a(lib_a-makebuf.o)
 .debug_line    0x0000e741      0x154 /opt/ARM/arm-linaro-eabi-4.6/lib/gcc/arm-none-eabi/4.7.3/../../../../arm-none-eabi/lib/thumb/cortex-m4/float-abi-hard/fpuv4-sp-d16/libc.a(lib_a-memchr-stub.o)
 .debug_line    0x0000e895      0x182 /opt/ARM/arm-linaro-eabi-4.6/lib/gcc/arm-none-eabi/4.7.3/../../../../arm-none-eabi/lib/thumb/cortex-m4/float-abi-hard/fpuv4-sp-d16/libc.a(lib_a-memmove.o)
 .debug_line    0x0000ea17      0x5e6 /opt/ARM/arm-linaro-eabi-4.6/lib/gcc/arm-none-eabi/4.7.3/../../../../arm-none-eabi/lib/thumb/cortex-m4/float-abi-hard/fpuv4-sp-d16/libc.a(lib_a-mprec.o)
 .debug_line    0x0000effd      0x286 /opt/ARM/arm-linaro-eabi-4.6/lib/gcc/arm-none-eabi/4.7.3/../../../../arm-none-eabi/lib/thumb/cortex-m4/float-abi-hard/fpuv4-sp-d16/libc.a(lib_a-reallocr.o)
 .debug_line    0x0000f283      0x1bd /opt/ARM/arm-linaro-eabi-4.6/lib/gcc/arm-none-eabi/4.7.3/../../../../arm-none-eabi/lib/thumb/cortex-m4/float-abi-hard/fpuv4-sp-d16/libc.a(lib_a-reent.o)
 .debug_line    0x0000f440      0x1b1 /opt/ARM/arm-linaro-eabi-4.6/lib/gcc/arm-none-eabi/4.7.3/../../../../arm-none-eabi/lib/thumb/cortex-m4/float-abi-hard/fpuv4-sp-d16/libc.a(lib_a-stdio.o)
 .debug_line    0x0000f5f1      0x67b /opt/ARM/arm-linaro-eabi-4.6/lib/gcc/arm-none-eabi/4.7.3/../../../../arm-none-eabi/lib/thumb/cortex-m4/float-abi-hard/fpuv4-sp-d16/libc.a(lib_a-vfiprintf.o)
 .debug_line    0x0000fc6c      0x181 /opt/ARM/arm-linaro-eabi-4.6/lib/gcc/arm-none-eabi/4.7.3/../../../../arm-none-eabi/lib/thumb/cortex-m4/float-abi-hard/fpuv4-sp-d16/libc.a(lib_a-writer.o)
 .debug_line    0x0000fded      0x152 /opt/ARM/arm-linaro-eabi-4.6/lib/gcc/arm-none-eabi/4.7.3/../../../../arm-none-eabi/lib/thumb/cortex-m4/float-abi-hard/fpuv4-sp-d16/libc.a(lib_a-callocr.o)
 .debug_line    0x0000ff3f      0x180 /opt/ARM/arm-linaro-eabi-4.6/lib/gcc/arm-none-eabi/4.7.3/../../../../arm-none-eabi/lib/thumb/cortex-m4/float-abi-hard/fpuv4-sp-d16/libc.a(lib_a-closer.o)
 .debug_line    0x000100bf      0x1d8 /opt/ARM/arm-linaro-eabi-4.6/lib/gcc/arm-none-eabi/4.7.3/../../../../arm-none-eabi/lib/thumb/cortex-m4/float-abi-hard/fpuv4-sp-d16/libc.a(lib_a-fclose.o)
 .debug_line    0x00010297      0x1d5 /opt/ARM/arm-linaro-eabi-4.6/lib/gcc/arm-none-eabi/4.7.3/../../../../arm-none-eabi/lib/thumb/cortex-m4/float-abi-hard/fpuv4-sp-d16/libc.a(lib_a-fputwc.o)
 .debug_line    0x0001046c      0x195 /opt/ARM/arm-linaro-eabi-4.6/lib/gcc/arm-none-eabi/4.7.3/../../../../arm-none-eabi/lib/thumb/cortex-m4/float-abi-hard/fpuv4-sp-d16/libc.a(lib_a-fstatr.o)
 .debug_line    0x00010601      0x181 /opt/ARM/arm-linaro-eabi-4.6/lib/gcc/arm-none-eabi/4.7.3/../../../../arm-none-eabi/lib/thumb/cortex-m4/float-abi-hard/fpuv4-sp-d16/libc.a(lib_a-isattyr.o)
 .debug_line    0x00010782      0x181 /opt/ARM/arm-linaro-eabi-4.6/lib/gcc/arm-none-eabi/4.7.3/../../../../arm-none-eabi/lib/thumb/cortex-m4/float-abi-hard/fpuv4-sp-d16/libc.a(lib_a-lseekr.o)
 .debug_line    0x00010903      0x180 /opt/ARM/arm-linaro-eabi-4.6/lib/gcc/arm-none-eabi/4.7.3/../../../../arm-none-eabi/lib/thumb/cortex-m4/float-abi-hard/fpuv4-sp-d16/libc.a(lib_a-readr.o)
 .debug_line    0x00010a83      0x1b1 /opt/ARM/arm-linaro-eabi-4.6/lib/gcc/arm-none-eabi/4.7.3/../../../../arm-none-eabi/lib/thumb/cortex-m4/float-abi-hard/fpuv4-sp-d16/libc.a(lib_a-wcrtomb.o)
 .debug_line    0x00010c34      0x1a1 /opt/ARM/arm-linaro-eabi-4.6/lib/gcc/arm-none-eabi/4.7.3/../../../../arm-none-eabi/lib/thumb/cortex-m4/float-abi-hard/fpuv4-sp-d16/libc.a(lib_a-wctomb_r.o)
 .debug_line    0x00010dd5      0x217 /opt/ARM/arm-linaro-eabi-4.6/lib/gcc/arm-none-eabi/4.7.3/thumb/cortex-m4/float-abi-hard/fpuv4-sp-d16/libgcc.a(_arm_addsubdf3.o)
 .debug_line    0x00010fec      0x233 /opt/ARM/arm-linaro-eabi-4.6/lib/gcc/arm-none-eabi/4.7.3/thumb/cortex-m4/float-abi-hard/fpuv4-sp-d16/libgcc.a(_arm_muldivdf3.o)
 .debug_line    0x0001121f      0x119 /opt/ARM/arm-linaro-eabi-4.6/lib/gcc/arm-none-eabi/4.7.3/thumb/cortex-m4/float-abi-hard/fpuv4-sp-d16/libgcc.a(_arm_cmpdf2.o)
 .debug_line    0x00011338       0x93 /opt/ARM/arm-linaro-eabi-4.6/lib/gcc/arm-none-eabi/4.7.3/thumb/cortex-m4/float-abi-hard/fpuv4-sp-d16/libgcc.a(_arm_fixdfsi.o)
 .debug_line    0x000113cb       0xa7 /opt/ARM/arm-linaro-eabi-4.6/lib/gcc/arm-none-eabi/4.7.3/thumb/cortex-m4/float-abi-hard/fpuv4-sp-d16/libgcc.a(_arm_truncdfsf2.o)

.debug_str      0x00000000     0x6ec2
 .debug_str     0x00000000      0x2ac system_stm32f4xx.o
                                0x317 (size before relaxing)
 .debug_str     0x000002ac      0x1ec main.o
                                0x315 (size before relaxing)
 .debug_str     0x00000498      0x4cd codec.o
                                0x65c (size before relaxing)
 .debug_str     0x00000965      0x7d2 i2s.o
                                0x9f4 (size before relaxing)
 .debug_str     0x00001137      0x2a7 adc.o
                                0xc99 (size before relaxing)
 .debug_str     0x000013de      0x15b stm32f4xx_gpio.o
                                0x431 (size before relaxing)
 .debug_str     0x00001539      0x31e stm32f4xx_i2c.o
                                0x5f5 (size before relaxing)
 .debug_str     0x00001857      0x43f stm32f4xx_rcc.o
                                0x7b7 (size before relaxing)
 .debug_str     0x00001c96      0x2a8 stm32f4xx_spi.o
                                0x61f (size before relaxing)
 .debug_str     0x00001f3e      0x1df stm32f4xx_dma.o
                                0x4b3 (size before relaxing)
 .debug_str     0x0000211d      0x3d7 stm32f4xx_adc.o
                                0x782 (size before relaxing)
 .debug_str     0x000024f4      0x4a6 syscalls.o
                                0x601 (size before relaxing)
 .debug_str     0x0000299a      0x449 audio.o
                                0x61e (size before relaxing)
 .debug_str     0x00002de3      0x106 vosim.o
                                0x297 (size before relaxing)
 .debug_str     0x00002ee9       0x2f mdavoc.o
                                0x1cf (size before relaxing)
 .debug_str     0x00002f18       0x2c mdavocoder.o
                                0x1c2 (size before relaxing)
 .debug_str     0x00002f44      0x1ec effect.o
                                0x483 (size before relaxing)
 .debug_str     0x00003130       0x34 vocode.o
                                0x248 (size before relaxing)
 .debug_str     0x00003164       0x28 klatt_phoneme.o
                                0x194 (size before relaxing)
 .debug_str     0x0000318c      0x289 sam.o
                                0x337 (size before relaxing)
 .debug_str     0x00003415      0x272 render.o
                                0x472 (size before relaxing)
 .debug_str     0x00003687      0x186 LPC/lpc.o
                                0x2fb (size before relaxing)
 .debug_str     0x0000380d      0x19f vocoder/vocode.o
                                0x339 (size before relaxing)
 .debug_str     0x000039ac       0x93 vocoder/fftn.o
                                0x1c6 (size before relaxing)
 .debug_str     0x00003a3f       0x47 scformant.o
                                0x1e0 (size before relaxing)
 .debug_str     0x00003a86      0x26a ./rsynth-2.0-port/holmes.o
                                0x401 (size before relaxing)
 .debug_str     0x00003cf0       0x28 ./rsynth-2.0-port/elements.o
                                0x171 (size before relaxing)
 .debug_str     0x00003d18      0x272 ./rsynth-2.0-port/nsynth.o
                                0x545 (size before relaxing)
 .debug_str     0x00003f8a       0x7d ./rsynth-2.0-port/say.o
                                0x291 (size before relaxing)
 .debug_str     0x00004007       0x4b ./rsynth-2.0-port/darray.o
                                0x18b (size before relaxing)
 .debug_str     0x00004052       0x41 ./rsynth-2.0-port/def_pars.o
                                0x265 (size before relaxing)
 .debug_str     0x00004093      0x15e /root/CMSIS/CMSIS/Lib/GCC/libarm_cortexM4lf_math.a(arm_biquad_cascade_df1_init_f32.o)
                                0x281 (size before relaxing)
 .debug_str     0x000041f1       0x52 /root/CMSIS/CMSIS/Lib/GCC/libarm_cortexM4lf_math.a(arm_biquad_cascade_df1_f32.o)
                                0x284 (size before relaxing)
 .debug_str     0x00004243      0x110 /opt/ARM/arm-linaro-eabi-4.6/lib/gcc/arm-none-eabi/4.7.3/../../../../arm-none-eabi/lib/thumb/cortex-m4/float-abi-hard/fpuv4-sp-d16/libm.a(lib_a-s_cos.o)
                                0x1ee (size before relaxing)
 .debug_str     0x00004353       0x7c /opt/ARM/arm-linaro-eabi-4.6/lib/gcc/arm-none-eabi/4.7.3/../../../../arm-none-eabi/lib/thumb/cortex-m4/float-abi-hard/fpuv4-sp-d16/libm.a(lib_a-sf_cos.o)
                                0x1c4 (size before relaxing)
 .debug_str     0x000043cf       0xd9 /opt/ARM/arm-linaro-eabi-4.6/lib/gcc/arm-none-eabi/4.7.3/../../../../arm-none-eabi/lib/thumb/cortex-m4/float-abi-hard/fpuv4-sp-d16/libm.a(lib_a-s_floor.o)
                                0x1e4 (size before relaxing)
 .debug_str     0x000044a8       0x4c /opt/ARM/arm-linaro-eabi-4.6/lib/gcc/arm-none-eabi/4.7.3/../../../../arm-none-eabi/lib/thumb/cortex-m4/float-abi-hard/fpuv4-sp-d16/libm.a(lib_a-sf_sin.o)
                                0x1c4 (size before relaxing)
 .debug_str     0x000044f4       0x5a /opt/ARM/arm-linaro-eabi-4.6/lib/gcc/arm-none-eabi/4.7.3/../../../../arm-none-eabi/lib/thumb/cortex-m4/float-abi-hard/fpuv4-sp-d16/libm.a(lib_a-sf_tan.o)
                                0x1b6 (size before relaxing)
 .debug_str     0x0000454e       0x4b /opt/ARM/arm-linaro-eabi-4.6/lib/gcc/arm-none-eabi/4.7.3/../../../../arm-none-eabi/lib/thumb/cortex-m4/float-abi-hard/fpuv4-sp-d16/libm.a(lib_a-s_sin.o)
                                0x1ee (size before relaxing)
 .debug_str     0x00004599       0xf6 /opt/ARM/arm-linaro-eabi-4.6/lib/gcc/arm-none-eabi/4.7.3/../../../../arm-none-eabi/lib/thumb/cortex-m4/float-abi-hard/fpuv4-sp-d16/libm.a(lib_a-w_exp.o)
                                0x241 (size before relaxing)
 .debug_str     0x0000468f       0x71 /opt/ARM/arm-linaro-eabi-4.6/lib/gcc/arm-none-eabi/4.7.3/../../../../arm-none-eabi/lib/thumb/cortex-m4/float-abi-hard/fpuv4-sp-d16/libm.a(lib_a-wf_acos.o)
                                0x240 (size before relaxing)
 .debug_str     0x00004700       0x63 /opt/ARM/arm-linaro-eabi-4.6/lib/gcc/arm-none-eabi/4.7.3/../../../../arm-none-eabi/lib/thumb/cortex-m4/float-abi-hard/fpuv4-sp-d16/libm.a(lib_a-wf_exp.o)
                                0x249 (size before relaxing)
 .debug_str     0x00004763       0x60 /opt/ARM/arm-linaro-eabi-4.6/lib/gcc/arm-none-eabi/4.7.3/../../../../arm-none-eabi/lib/thumb/cortex-m4/float-abi-hard/fpuv4-sp-d16/libm.a(lib_a-wf_pow.o)
                                0x244 (size before relaxing)
 .debug_str     0x000047c3       0x5d /opt/ARM/arm-linaro-eabi-4.6/lib/gcc/arm-none-eabi/4.7.3/../../../../arm-none-eabi/lib/thumb/cortex-m4/float-abi-hard/fpuv4-sp-d16/libm.a(lib_a-wf_sqrt.o)
                                0x23a (size before relaxing)
 .debug_str     0x00004820       0x6b /opt/ARM/arm-linaro-eabi-4.6/lib/gcc/arm-none-eabi/4.7.3/../../../../arm-none-eabi/lib/thumb/cortex-m4/float-abi-hard/fpuv4-sp-d16/libm.a(lib_a-w_log10.o)
                                0x23a (size before relaxing)
 .debug_str     0x0000488b       0x76 /opt/ARM/arm-linaro-eabi-4.6/lib/gcc/arm-none-eabi/4.7.3/../../../../arm-none-eabi/lib/thumb/cortex-m4/float-abi-hard/fpuv4-sp-d16/libm.a(lib_a-e_exp.o)
                                0x212 (size before relaxing)
 .debug_str     0x00004901       0x82 /opt/ARM/arm-linaro-eabi-4.6/lib/gcc/arm-none-eabi/4.7.3/../../../../arm-none-eabi/lib/thumb/cortex-m4/float-abi-hard/fpuv4-sp-d16/libm.a(lib_a-ef_acos.o)
                                0x1f6 (size before relaxing)
 .debug_str     0x00004983       0x54 /opt/ARM/arm-linaro-eabi-4.6/lib/gcc/arm-none-eabi/4.7.3/../../../../arm-none-eabi/lib/thumb/cortex-m4/float-abi-hard/fpuv4-sp-d16/libm.a(lib_a-ef_exp.o)
                                0x1f9 (size before relaxing)
 .debug_str     0x000049d7       0xa6 /opt/ARM/arm-linaro-eabi-4.6/lib/gcc/arm-none-eabi/4.7.3/../../../../arm-none-eabi/lib/thumb/cortex-m4/float-abi-hard/fpuv4-sp-d16/libm.a(lib_a-ef_pow.o)
                                0x249 (size before relaxing)
 .debug_str     0x00004a7d       0xb3 /opt/ARM/arm-linaro-eabi-4.6/lib/gcc/arm-none-eabi/4.7.3/../../../../arm-none-eabi/lib/thumb/cortex-m4/float-abi-hard/fpuv4-sp-d16/libm.a(lib_a-ef_rem_pio2.o)
                                0x250 (size before relaxing)
 .debug_str     0x00004b30       0x4d /opt/ARM/arm-linaro-eabi-4.6/lib/gcc/arm-none-eabi/4.7.3/../../../../arm-none-eabi/lib/thumb/cortex-m4/float-abi-hard/fpuv4-sp-d16/libm.a(lib_a-ef_sqrt.o)
                                0x1d6 (size before relaxing)
 .debug_str     0x00004b7d       0x7c /opt/ARM/arm-linaro-eabi-4.6/lib/gcc/arm-none-eabi/4.7.3/../../../../arm-none-eabi/lib/thumb/cortex-m4/float-abi-hard/fpuv4-sp-d16/libm.a(lib_a-e_log10.o)
                                0x211 (size before relaxing)
 .debug_str     0x00004bf9       0x5e /opt/ARM/arm-linaro-eabi-4.6/lib/gcc/arm-none-eabi/4.7.3/../../../../arm-none-eabi/lib/thumb/cortex-m4/float-abi-hard/fpuv4-sp-d16/libm.a(lib_a-e_log.o)
                                0x1f7 (size before relaxing)
 .debug_str     0x00004c57       0x67 /opt/ARM/arm-linaro-eabi-4.6/lib/gcc/arm-none-eabi/4.7.3/../../../../arm-none-eabi/lib/thumb/cortex-m4/float-abi-hard/fpuv4-sp-d16/libm.a(lib_a-e_rem_pio2.o)
                                0x259 (size before relaxing)
 .debug_str     0x00004cbe       0x4b /opt/ARM/arm-linaro-eabi-4.6/lib/gcc/arm-none-eabi/4.7.3/../../../../arm-none-eabi/lib/thumb/cortex-m4/float-abi-hard/fpuv4-sp-d16/libm.a(lib_a-k_cos.o)
                                0x1ce (size before relaxing)
 .debug_str     0x00004d09       0x4c /opt/ARM/arm-linaro-eabi-4.6/lib/gcc/arm-none-eabi/4.7.3/../../../../arm-none-eabi/lib/thumb/cortex-m4/float-abi-hard/fpuv4-sp-d16/libm.a(lib_a-kf_cos.o)
                                0x19d (size before relaxing)
 .debug_str     0x00004d55       0x7b /opt/ARM/arm-linaro-eabi-4.6/lib/gcc/arm-none-eabi/4.7.3/../../../../arm-none-eabi/lib/thumb/cortex-m4/float-abi-hard/fpuv4-sp-d16/libm.a(lib_a-kf_rem_pio2.o)
                                0x1ee (size before relaxing)
 .debug_str     0x00004dd0       0x4c /opt/ARM/arm-linaro-eabi-4.6/lib/gcc/arm-none-eabi/4.7.3/../../../../arm-none-eabi/lib/thumb/cortex-m4/float-abi-hard/fpuv4-sp-d16/libm.a(lib_a-kf_sin.o)
                                0x1a2 (size before relaxing)
 .debug_str     0x00004e1c       0x58 /opt/ARM/arm-linaro-eabi-4.6/lib/gcc/arm-none-eabi/4.7.3/../../../../arm-none-eabi/lib/thumb/cortex-m4/float-abi-hard/fpuv4-sp-d16/libm.a(lib_a-kf_tan.o)
                                0x1e0 (size before relaxing)
 .debug_str     0x00004e74       0x5e /opt/ARM/arm-linaro-eabi-4.6/lib/gcc/arm-none-eabi/4.7.3/../../../../arm-none-eabi/lib/thumb/cortex-m4/float-abi-hard/fpuv4-sp-d16/libm.a(lib_a-k_rem_pio2.o)
                                0x1ec (size before relaxing)
 .debug_str     0x00004ed2       0x4b /opt/ARM/arm-linaro-eabi-4.6/lib/gcc/arm-none-eabi/4.7.3/../../../../arm-none-eabi/lib/thumb/cortex-m4/float-abi-hard/fpuv4-sp-d16/libm.a(lib_a-k_sin.o)
                                0x1a0 (size before relaxing)
 .debug_str     0x00004f1d       0x4c /opt/ARM/arm-linaro-eabi-4.6/lib/gcc/arm-none-eabi/4.7.3/../../../../arm-none-eabi/lib/thumb/cortex-m4/float-abi-hard/fpuv4-sp-d16/libm.a(lib_a-s_fabs.o)
                                0x1c7 (size before relaxing)
 .debug_str     0x00004f69       0x4d /opt/ARM/arm-linaro-eabi-4.6/lib/gcc/arm-none-eabi/4.7.3/../../../../arm-none-eabi/lib/thumb/cortex-m4/float-abi-hard/fpuv4-sp-d16/libm.a(lib_a-sf_fabs.o)
                                0x197 (size before relaxing)
 .debug_str     0x00004fb6       0xbf /opt/ARM/arm-linaro-eabi-4.6/lib/gcc/arm-none-eabi/4.7.3/../../../../arm-none-eabi/lib/thumb/cortex-m4/float-abi-hard/fpuv4-sp-d16/libm.a(lib_a-sf_finite.o)
                                0x19e (size before relaxing)
 .debug_str     0x00005075       0x58 /opt/ARM/arm-linaro-eabi-4.6/lib/gcc/arm-none-eabi/4.7.3/../../../../arm-none-eabi/lib/thumb/cortex-m4/float-abi-hard/fpuv4-sp-d16/libm.a(lib_a-sf_floor.o)
                                0x1df (size before relaxing)
 .debug_str     0x000050cd       0x55 /opt/ARM/arm-linaro-eabi-4.6/lib/gcc/arm-none-eabi/4.7.3/../../../../arm-none-eabi/lib/thumb/cortex-m4/float-abi-hard/fpuv4-sp-d16/libm.a(lib_a-sf_fpclassify.o)
                                0x1a9 (size before relaxing)
 .debug_str     0x00005122       0x50 /opt/ARM/arm-linaro-eabi-4.6/lib/gcc/arm-none-eabi/4.7.3/../../../../arm-none-eabi/lib/thumb/cortex-m4/float-abi-hard/fpuv4-sp-d16/libm.a(lib_a-s_finite.o)
                                0x1cf (size before relaxing)
 .debug_str     0x00005172       0x4e /opt/ARM/arm-linaro-eabi-4.6/lib/gcc/arm-none-eabi/4.7.3/../../../../arm-none-eabi/lib/thumb/cortex-m4/float-abi-hard/fpuv4-sp-d16/libm.a(lib_a-sf_nan.o)
                                0x195 (size before relaxing)
 .debug_str     0x000051c0       0x54 /opt/ARM/arm-linaro-eabi-4.6/lib/gcc/arm-none-eabi/4.7.3/../../../../arm-none-eabi/lib/thumb/cortex-m4/float-abi-hard/fpuv4-sp-d16/libm.a(lib_a-s_fpclassify.o)
                                0x1d0 (size before relaxing)
 .debug_str     0x00005214       0x68 /opt/ARM/arm-linaro-eabi-4.6/lib/gcc/arm-none-eabi/4.7.3/../../../../arm-none-eabi/lib/thumb/cortex-m4/float-abi-hard/fpuv4-sp-d16/libm.a(lib_a-sf_scalbn.o)
                                0x1f5 (size before relaxing)
 .debug_str     0x0000527c       0x51 /opt/ARM/arm-linaro-eabi-4.6/lib/gcc/arm-none-eabi/4.7.3/../../../../arm-none-eabi/lib/thumb/cortex-m4/float-abi-hard/fpuv4-sp-d16/libm.a(lib_a-s_lib_ver.o)
                                0x1e7 (size before relaxing)
 .debug_str     0x000052cd       0x51 /opt/ARM/arm-linaro-eabi-4.6/lib/gcc/arm-none-eabi/4.7.3/../../../../arm-none-eabi/lib/thumb/cortex-m4/float-abi-hard/fpuv4-sp-d16/libm.a(lib_a-s_matherr.o)
                                0x1b9 (size before relaxing)
 .debug_str     0x0000531e       0x4d /opt/ARM/arm-linaro-eabi-4.6/lib/gcc/arm-none-eabi/4.7.3/../../../../arm-none-eabi/lib/thumb/cortex-m4/float-abi-hard/fpuv4-sp-d16/libm.a(lib_a-s_nan.o)
                                0x18f (size before relaxing)
 .debug_str     0x0000536b       0x5c /opt/ARM/arm-linaro-eabi-4.6/lib/gcc/arm-none-eabi/4.7.3/../../../../arm-none-eabi/lib/thumb/cortex-m4/float-abi-hard/fpuv4-sp-d16/libm.a(lib_a-s_rint.o)
                                0x1e8 (size before relaxing)
 .debug_str     0x000053c7       0x60 /opt/ARM/arm-linaro-eabi-4.6/lib/gcc/arm-none-eabi/4.7.3/../../../../arm-none-eabi/lib/thumb/cortex-m4/float-abi-hard/fpuv4-sp-d16/libm.a(lib_a-s_scalbn.o)
                                0x1f9 (size before relaxing)
 .debug_str     0x00005427       0x52 /opt/ARM/arm-linaro-eabi-4.6/lib/gcc/arm-none-eabi/4.7.3/../../../../arm-none-eabi/lib/thumb/cortex-m4/float-abi-hard/fpuv4-sp-d16/libm.a(lib_a-s_copysign.o)
                                0x1ce (size before relaxing)
 .debug_str     0x00005479       0x53 /opt/ARM/arm-linaro-eabi-4.6/lib/gcc/arm-none-eabi/4.7.3/../../../../arm-none-eabi/lib/thumb/cortex-m4/float-abi-hard/fpuv4-sp-d16/libm.a(lib_a-sf_copysign.o)
                                0x1c9 (size before relaxing)
 .debug_str     0x000054cc       0xb9 /opt/ARM/arm-linaro-eabi-4.6/lib/gcc/arm-none-eabi/4.7.3/../../../../arm-none-eabi/lib/thumb/cortex-m4/float-abi-hard/fpuv4-sp-d16/libc.a(lib_a-errno.o)
                                0x537 (size before relaxing)
 .debug_str     0x00005585       0xd9 /opt/ARM/arm-linaro-eabi-4.6/lib/gcc/arm-none-eabi/4.7.3/../../../../arm-none-eabi/lib/thumb/cortex-m4/float-abi-hard/fpuv4-sp-d16/libc.a(lib_a-impure.o)
                                0x54f (size before relaxing)
 .debug_str     0x0000565e       0xd5 /opt/ARM/arm-linaro-eabi-4.6/lib/gcc/arm-none-eabi/4.7.3/../../../../arm-none-eabi/lib/thumb/cortex-m4/float-abi-hard/fpuv4-sp-d16/libc.a(lib_a-malloc.o)
                                0x563 (size before relaxing)
 .debug_str     0x00005733      0x241 /opt/ARM/arm-linaro-eabi-4.6/lib/gcc/arm-none-eabi/4.7.3/../../../../arm-none-eabi/lib/thumb/cortex-m4/float-abi-hard/fpuv4-sp-d16/libc.a(lib_a-mallocr.o)
                                0x75e (size before relaxing)
 .debug_str     0x00005974       0xf5 /opt/ARM/arm-linaro-eabi-4.6/lib/gcc/arm-none-eabi/4.7.3/../../../../arm-none-eabi/lib/thumb/cortex-m4/float-abi-hard/fpuv4-sp-d16/libc.a(lib_a-memcpy-stub.o)
                                0x1b7 (size before relaxing)
 .debug_str     0x00005a69       0xc9 /opt/ARM/arm-linaro-eabi-4.6/lib/gcc/arm-none-eabi/4.7.3/../../../../arm-none-eabi/lib/thumb/cortex-m4/float-abi-hard/fpuv4-sp-d16/libc.a(lib_a-memset.o)
                                0x192 (size before relaxing)
 .debug_str     0x00005b32       0x62 /opt/ARM/arm-linaro-eabi-4.6/lib/gcc/arm-none-eabi/4.7.3/../../../../arm-none-eabi/lib/thumb/cortex-m4/float-abi-hard/fpuv4-sp-d16/libc.a(lib_a-mlock.o)
                                0x558 (size before relaxing)
 .debug_str     0x00005b94       0xee /opt/ARM/arm-linaro-eabi-4.6/lib/gcc/arm-none-eabi/4.7.3/../../../../arm-none-eabi/lib/thumb/cortex-m4/float-abi-hard/fpuv4-sp-d16/libc.a(lib_a-printf.o)
                                0x578 (size before relaxing)
 .debug_str     0x00005c82       0x61 /opt/ARM/arm-linaro-eabi-4.6/lib/gcc/arm-none-eabi/4.7.3/../../../../arm-none-eabi/lib/thumb/cortex-m4/float-abi-hard/fpuv4-sp-d16/libc.a(lib_a-putchar.o)
                                0x551 (size before relaxing)
 .debug_str     0x00005ce3       0x62 /opt/ARM/arm-linaro-eabi-4.6/lib/gcc/arm-none-eabi/4.7.3/../../../../arm-none-eabi/lib/thumb/cortex-m4/float-abi-hard/fpuv4-sp-d16/libc.a(lib_a-putc.o)
                                0x559 (size before relaxing)
 .debug_str     0x00005d45       0x9c /opt/ARM/arm-linaro-eabi-4.6/lib/gcc/arm-none-eabi/4.7.3/../../../../arm-none-eabi/lib/thumb/cortex-m4/float-abi-hard/fpuv4-sp-d16/libc.a(lib_a-puts.o)
                                0x59e (size before relaxing)
 .debug_str     0x00005de1       0x52 /opt/ARM/arm-linaro-eabi-4.6/lib/gcc/arm-none-eabi/4.7.3/../../../../arm-none-eabi/lib/thumb/cortex-m4/float-abi-hard/fpuv4-sp-d16/libc.a(lib_a-rand.o)
                                0x540 (size before relaxing)
 .debug_str     0x00005e33       0x4c /opt/ARM/arm-linaro-eabi-4.6/lib/gcc/arm-none-eabi/4.7.3/../../../../arm-none-eabi/lib/thumb/cortex-m4/float-abi-hard/fpuv4-sp-d16/libc.a(lib_a-sbrkr.o)
                                0x546 (size before relaxing)
 .debug_str     0x00005e7f       0x56 /opt/ARM/arm-linaro-eabi-4.6/lib/gcc/arm-none-eabi/4.7.3/../../../../arm-none-eabi/lib/thumb/cortex-m4/float-abi-hard/fpuv4-sp-d16/libc.a(lib_a-strlen.o)
                                0x18b (size before relaxing)
 .debug_str     0x00005ed5      0x29a /opt/ARM/arm-linaro-eabi-4.6/lib/gcc/arm-none-eabi/4.7.3/../../../../arm-none-eabi/lib/thumb/cortex-m4/float-abi-hard/fpuv4-sp-d16/libc.a(lib_a-vfprintf.o)
                                0x907 (size before relaxing)
 .debug_str     0x0000616f       0x53 /opt/ARM/arm-linaro-eabi-4.6/lib/gcc/arm-none-eabi/4.7.3/../../../../arm-none-eabi/lib/thumb/cortex-m4/float-abi-hard/fpuv4-sp-d16/libc.a(lib_a-wbuf.o)
                                0x563 (size before relaxing)
 .debug_str     0x000061c2       0x5a /opt/ARM/arm-linaro-eabi-4.6/lib/gcc/arm-none-eabi/4.7.3/../../../../arm-none-eabi/lib/thumb/cortex-m4/float-abi-hard/fpuv4-sp-d16/libc.a(lib_a-wsetup.o)
                                0x55e (size before relaxing)
 .debug_str     0x0000621c      0x164 /opt/ARM/arm-linaro-eabi-4.6/lib/gcc/arm-none-eabi/4.7.3/../../../../arm-none-eabi/lib/thumb/cortex-m4/float-abi-hard/fpuv4-sp-d16/libc.a(lib_a-dtoa.o)
                                0x6a1 (size before relaxing)
 .debug_str     0x00006380       0x7d /opt/ARM/arm-linaro-eabi-4.6/lib/gcc/arm-none-eabi/4.7.3/../../../../arm-none-eabi/lib/thumb/cortex-m4/float-abi-hard/fpuv4-sp-d16/libc.a(lib_a-fflush.o)
                                0x599 (size before relaxing)
 .debug_str     0x000063fd      0x114 /opt/ARM/arm-linaro-eabi-4.6/lib/gcc/arm-none-eabi/4.7.3/../../../../arm-none-eabi/lib/thumb/cortex-m4/float-abi-hard/fpuv4-sp-d16/libc.a(lib_a-findfp.o)
                                0x648 (size before relaxing)
 .debug_str     0x00006511       0x34 /opt/ARM/arm-linaro-eabi-4.6/lib/gcc/arm-none-eabi/4.7.3/../../../../arm-none-eabi/lib/thumb/cortex-m4/float-abi-hard/fpuv4-sp-d16/libc.a(lib_a-freer.o)
                                0x6a8 (size before relaxing)
 .debug_str     0x00006545       0x7f /opt/ARM/arm-linaro-eabi-4.6/lib/gcc/arm-none-eabi/4.7.3/../../../../arm-none-eabi/lib/thumb/cortex-m4/float-abi-hard/fpuv4-sp-d16/libc.a(lib_a-fvwrite.o)
                                0x5e1 (size before relaxing)
 .debug_str     0x000065c4       0x5b /opt/ARM/arm-linaro-eabi-4.6/lib/gcc/arm-none-eabi/4.7.3/../../../../arm-none-eabi/lib/thumb/cortex-m4/float-abi-hard/fpuv4-sp-d16/libc.a(lib_a-fwalk.o)
                                0x554 (size before relaxing)
 .debug_str     0x0000661f      0x1a3 /opt/ARM/arm-linaro-eabi-4.6/lib/gcc/arm-none-eabi/4.7.3/../../../../arm-none-eabi/lib/thumb/cortex-m4/float-abi-hard/fpuv4-sp-d16/libc.a(lib_a-locale.o)
                                0x7ac (size before relaxing)
 .debug_str     0x000067c2       0x6c /opt/ARM/arm-linaro-eabi-4.6/lib/gcc/arm-none-eabi/4.7.3/../../../../arm-none-eabi/lib/thumb/cortex-m4/float-abi-hard/fpuv4-sp-d16/libc.a(lib_a-makebuf.o)
                                0x651 (size before relaxing)
 .debug_str     0x0000682e       0x69 /opt/ARM/arm-linaro-eabi-4.6/lib/gcc/arm-none-eabi/4.7.3/../../../../arm-none-eabi/lib/thumb/cortex-m4/float-abi-hard/fpuv4-sp-d16/libc.a(lib_a-memchr-stub.o)
                                0x1aa (size before relaxing)
 .debug_str     0x00006897       0x58 /opt/ARM/arm-linaro-eabi-4.6/lib/gcc/arm-none-eabi/4.7.3/../../../../arm-none-eabi/lib/thumb/cortex-m4/float-abi-hard/fpuv4-sp-d16/libc.a(lib_a-memmove.o)
                                0x1b1 (size before relaxing)
 .debug_str     0x000068ef       0xb8 /opt/ARM/arm-linaro-eabi-4.6/lib/gcc/arm-none-eabi/4.7.3/../../../../arm-none-eabi/lib/thumb/cortex-m4/float-abi-hard/fpuv4-sp-d16/libc.a(lib_a-mprec.o)
                                0x65b (size before relaxing)
 .debug_str     0x000069a7       0x4e /opt/ARM/arm-linaro-eabi-4.6/lib/gcc/arm-none-eabi/4.7.3/../../../../arm-none-eabi/lib/thumb/cortex-m4/float-abi-hard/fpuv4-sp-d16/libc.a(lib_a-reallocr.o)
                                0x630 (size before relaxing)
 .debug_str     0x000069f5       0x86 /opt/ARM/arm-linaro-eabi-4.6/lib/gcc/arm-none-eabi/4.7.3/../../../../arm-none-eabi/lib/thumb/cortex-m4/float-abi-hard/fpuv4-sp-d16/libc.a(lib_a-reent.o)
                                0x57c (size before relaxing)
 .debug_str     0x00006a7b       0xac /opt/ARM/arm-linaro-eabi-4.6/lib/gcc/arm-none-eabi/4.7.3/../../../../arm-none-eabi/lib/thumb/cortex-m4/float-abi-hard/fpuv4-sp-d16/libc.a(lib_a-stdio.o)
                                0x5a2 (size before relaxing)
 .debug_str     0x00006b27       0x29 /opt/ARM/arm-linaro-eabi-4.6/lib/gcc/arm-none-eabi/4.7.3/../../../../arm-none-eabi/lib/thumb/cortex-m4/float-abi-hard/fpuv4-sp-d16/libc.a(lib_a-vfiprintf.o)
                                0x6f9 (size before relaxing)
 .debug_str     0x00006b50       0x4d /opt/ARM/arm-linaro-eabi-4.6/lib/gcc/arm-none-eabi/4.7.3/../../../../arm-none-eabi/lib/thumb/cortex-m4/float-abi-hard/fpuv4-sp-d16/libc.a(lib_a-writer.o)
                                0x543 (size before relaxing)
 .debug_str     0x00006b9d        0xf /opt/ARM/arm-linaro-eabi-4.6/lib/gcc/arm-none-eabi/4.7.3/../../../../arm-none-eabi/lib/thumb/cortex-m4/float-abi-hard/fpuv4-sp-d16/libc.a(lib_a-callocr.o)
                                0x588 (size before relaxing)
 .debug_str     0x00006bac       0x4d /opt/ARM/arm-linaro-eabi-4.6/lib/gcc/arm-none-eabi/4.7.3/../../../../arm-none-eabi/lib/thumb/cortex-m4/float-abi-hard/fpuv4-sp-d16/libc.a(lib_a-closer.o)
                                0x533 (size before relaxing)
 .debug_str     0x00006bf9       0x5e /opt/ARM/arm-linaro-eabi-4.6/lib/gcc/arm-none-eabi/4.7.3/../../../../arm-none-eabi/lib/thumb/cortex-m4/float-abi-hard/fpuv4-sp-d16/libc.a(lib_a-fclose.o)
                                0x58b (size before relaxing)
 .debug_str     0x00006c57       0x61 /opt/ARM/arm-linaro-eabi-4.6/lib/gcc/arm-none-eabi/4.7.3/../../../../arm-none-eabi/lib/thumb/cortex-m4/float-abi-hard/fpuv4-sp-d16/libc.a(lib_a-fputwc.o)
                                0x599 (size before relaxing)
 .debug_str     0x00006cb8       0x53 /opt/ARM/arm-linaro-eabi-4.6/lib/gcc/arm-none-eabi/4.7.3/../../../../arm-none-eabi/lib/thumb/cortex-m4/float-abi-hard/fpuv4-sp-d16/libc.a(lib_a-fstatr.o)
                                0x626 (size before relaxing)
 .debug_str     0x00006d0b       0x4e /opt/ARM/arm-linaro-eabi-4.6/lib/gcc/arm-none-eabi/4.7.3/../../../../arm-none-eabi/lib/thumb/cortex-m4/float-abi-hard/fpuv4-sp-d16/libc.a(lib_a-isattyr.o)
                                0x53d (size before relaxing)
 .debug_str     0x00006d59       0x4d /opt/ARM/arm-linaro-eabi-4.6/lib/gcc/arm-none-eabi/4.7.3/../../../../arm-none-eabi/lib/thumb/cortex-m4/float-abi-hard/fpuv4-sp-d16/libc.a(lib_a-lseekr.o)
                                0x541 (size before relaxing)
 .debug_str     0x00006da6       0x4c /opt/ARM/arm-linaro-eabi-4.6/lib/gcc/arm-none-eabi/4.7.3/../../../../arm-none-eabi/lib/thumb/cortex-m4/float-abi-hard/fpuv4-sp-d16/libc.a(lib_a-readr.o)
                                0x541 (size before relaxing)
 .debug_str     0x00006df2       0x60 /opt/ARM/arm-linaro-eabi-4.6/lib/gcc/arm-none-eabi/4.7.3/../../../../arm-none-eabi/lib/thumb/cortex-m4/float-abi-hard/fpuv4-sp-d16/libc.a(lib_a-wcrtomb.o)
                                0x580 (size before relaxing)
 .debug_str     0x00006e52       0x70 /opt/ARM/arm-linaro-eabi-4.6/lib/gcc/arm-none-eabi/4.7.3/../../../../arm-none-eabi/lib/thumb/cortex-m4/float-abi-hard/fpuv4-sp-d16/libc.a(lib_a-wctomb_r.o)
                                0x58f (size before relaxing)

.debug_frame    0x00000000     0x326c
 .debug_frame   0x00000000       0x34 system_stm32f4xx.o
 .debug_frame   0x00000034       0xbc main.o
 .debug_frame   0x000000f0       0xd0 codec.o
 .debug_frame   0x000001c0       0x6c i2s.o
 .debug_frame   0x0000022c       0x8c adc.o
 .debug_frame   0x000002b8      0x118 stm32f4xx_gpio.o
 .debug_frame   0x000003d0      0x248 stm32f4xx_i2c.o
 .debug_frame   0x00000618      0x2e4 stm32f4xx_rcc.o
 .debug_frame   0x000008fc      0x1dc stm32f4xx_spi.o
 .debug_frame   0x00000ad8      0x17c stm32f4xx_dma.o
 .debug_frame   0x00000c54      0x2ac stm32f4xx_adc.o
 .debug_frame   0x00000f00       0xb8 syscalls.o
 .debug_frame   0x00000fb8       0x90 audio.o
 .debug_frame   0x00001048       0x90 vosim.o
 .debug_frame   0x000010d8       0x74 mdavoc.o
 .debug_frame   0x0000114c       0x78 mdavocoder.o
 .debug_frame   0x000011c4      0x208 effect.o
 .debug_frame   0x000013cc       0xa0 vocode.o
 .debug_frame   0x0000146c       0x30 klatt_phoneme.o
 .debug_frame   0x0000149c      0x1f0 sam.o
 .debug_frame   0x0000168c       0xfc render.o
 .debug_frame   0x00001788       0xd8 LPC/lpc.o
 .debug_frame   0x00001860       0x4c vocoder/vocode.o
 .debug_frame   0x000018ac      0x134 vocoder/fftn.o
 .debug_frame   0x000019e0       0x48 scformant.o
 .debug_frame   0x00001a28       0xd8 ./rsynth-2.0-port/holmes.o
 .debug_frame   0x00001b00      0x12c ./rsynth-2.0-port/nsynth.o
 .debug_frame   0x00001c2c       0x3c ./rsynth-2.0-port/say.o
 .debug_frame   0x00001c68       0x6c ./rsynth-2.0-port/darray.o
 .debug_frame   0x00001cd4       0x28 ./rsynth-2.0-port/def_pars.o
 .debug_frame   0x00001cfc       0x2c /root/CMSIS/CMSIS/Lib/GCC/libarm_cortexM4lf_math.a(arm_biquad_cascade_df1_init_f32.o)
 .debug_frame   0x00001d28       0x34 /root/CMSIS/CMSIS/Lib/GCC/libarm_cortexM4lf_math.a(arm_biquad_cascade_df1_f32.o)
 .debug_frame   0x00001d5c       0x28 /opt/ARM/arm-linaro-eabi-4.6/lib/gcc/arm-none-eabi/4.7.3/../../../../arm-none-eabi/lib/thumb/cortex-m4/float-abi-hard/fpuv4-sp-d16/libm.a(lib_a-s_cos.o)
 .debug_frame   0x00001d84       0x28 /opt/ARM/arm-linaro-eabi-4.6/lib/gcc/arm-none-eabi/4.7.3/../../../../arm-none-eabi/lib/thumb/cortex-m4/float-abi-hard/fpuv4-sp-d16/libm.a(lib_a-sf_cos.o)
 .debug_frame   0x00001dac       0x38 /opt/ARM/arm-linaro-eabi-4.6/lib/gcc/arm-none-eabi/4.7.3/../../../../arm-none-eabi/lib/thumb/cortex-m4/float-abi-hard/fpuv4-sp-d16/libm.a(lib_a-s_floor.o)
 .debug_frame   0x00001de4       0x28 /opt/ARM/arm-linaro-eabi-4.6/lib/gcc/arm-none-eabi/4.7.3/../../../../arm-none-eabi/lib/thumb/cortex-m4/float-abi-hard/fpuv4-sp-d16/libm.a(lib_a-sf_sin.o)
 .debug_frame   0x00001e0c       0x28 /opt/ARM/arm-linaro-eabi-4.6/lib/gcc/arm-none-eabi/4.7.3/../../../../arm-none-eabi/lib/thumb/cortex-m4/float-abi-hard/fpuv4-sp-d16/libm.a(lib_a-sf_tan.o)
 .debug_frame   0x00001e34       0x28 /opt/ARM/arm-linaro-eabi-4.6/lib/gcc/arm-none-eabi/4.7.3/../../../../arm-none-eabi/lib/thumb/cortex-m4/float-abi-hard/fpuv4-sp-d16/libm.a(lib_a-s_sin.o)
 .debug_frame   0x00001e5c       0x38 /opt/ARM/arm-linaro-eabi-4.6/lib/gcc/arm-none-eabi/4.7.3/../../../../arm-none-eabi/lib/thumb/cortex-m4/float-abi-hard/fpuv4-sp-d16/libm.a(lib_a-w_exp.o)
 .debug_frame   0x00001e94       0x30 /opt/ARM/arm-linaro-eabi-4.6/lib/gcc/arm-none-eabi/4.7.3/../../../../arm-none-eabi/lib/thumb/cortex-m4/float-abi-hard/fpuv4-sp-d16/libm.a(lib_a-wf_acos.o)
 .debug_frame   0x00001ec4       0x30 /opt/ARM/arm-linaro-eabi-4.6/lib/gcc/arm-none-eabi/4.7.3/../../../../arm-none-eabi/lib/thumb/cortex-m4/float-abi-hard/fpuv4-sp-d16/libm.a(lib_a-wf_exp.o)
 .debug_frame   0x00001ef4       0x38 /opt/ARM/arm-linaro-eabi-4.6/lib/gcc/arm-none-eabi/4.7.3/../../../../arm-none-eabi/lib/thumb/cortex-m4/float-abi-hard/fpuv4-sp-d16/libm.a(lib_a-wf_pow.o)
 .debug_frame   0x00001f2c       0x30 /opt/ARM/arm-linaro-eabi-4.6/lib/gcc/arm-none-eabi/4.7.3/../../../../arm-none-eabi/lib/thumb/cortex-m4/float-abi-hard/fpuv4-sp-d16/libm.a(lib_a-wf_sqrt.o)
 .debug_frame   0x00001f5c       0x34 /opt/ARM/arm-linaro-eabi-4.6/lib/gcc/arm-none-eabi/4.7.3/../../../../arm-none-eabi/lib/thumb/cortex-m4/float-abi-hard/fpuv4-sp-d16/libm.a(lib_a-w_log10.o)
 .debug_frame   0x00001f90       0x38 /opt/ARM/arm-linaro-eabi-4.6/lib/gcc/arm-none-eabi/4.7.3/../../../../arm-none-eabi/lib/thumb/cortex-m4/float-abi-hard/fpuv4-sp-d16/libm.a(lib_a-e_exp.o)
 .debug_frame   0x00001fc8       0x30 /opt/ARM/arm-linaro-eabi-4.6/lib/gcc/arm-none-eabi/4.7.3/../../../../arm-none-eabi/lib/thumb/cortex-m4/float-abi-hard/fpuv4-sp-d16/libm.a(lib_a-ef_acos.o)
 .debug_frame   0x00001ff8       0x20 /opt/ARM/arm-linaro-eabi-4.6/lib/gcc/arm-none-eabi/4.7.3/../../../../arm-none-eabi/lib/thumb/cortex-m4/float-abi-hard/fpuv4-sp-d16/libm.a(lib_a-ef_exp.o)
 .debug_frame   0x00002018       0x3c /opt/ARM/arm-linaro-eabi-4.6/lib/gcc/arm-none-eabi/4.7.3/../../../../arm-none-eabi/lib/thumb/cortex-m4/float-abi-hard/fpuv4-sp-d16/libm.a(lib_a-ef_pow.o)
 .debug_frame   0x00002054       0x30 /opt/ARM/arm-linaro-eabi-4.6/lib/gcc/arm-none-eabi/4.7.3/../../../../arm-none-eabi/lib/thumb/cortex-m4/float-abi-hard/fpuv4-sp-d16/libm.a(lib_a-ef_rem_pio2.o)
 .debug_frame   0x00002084       0x2c /opt/ARM/arm-linaro-eabi-4.6/lib/gcc/arm-none-eabi/4.7.3/../../../../arm-none-eabi/lib/thumb/cortex-m4/float-abi-hard/fpuv4-sp-d16/libm.a(lib_a-ef_sqrt.o)
 .debug_frame   0x000020b0       0x34 /opt/ARM/arm-linaro-eabi-4.6/lib/gcc/arm-none-eabi/4.7.3/../../../../arm-none-eabi/lib/thumb/cortex-m4/float-abi-hard/fpuv4-sp-d16/libm.a(lib_a-e_log10.o)
 .debug_frame   0x000020e4       0x38 /opt/ARM/arm-linaro-eabi-4.6/lib/gcc/arm-none-eabi/4.7.3/../../../../arm-none-eabi/lib/thumb/cortex-m4/float-abi-hard/fpuv4-sp-d16/libm.a(lib_a-e_log.o)
 .debug_frame   0x0000211c       0x38 /opt/ARM/arm-linaro-eabi-4.6/lib/gcc/arm-none-eabi/4.7.3/../../../../arm-none-eabi/lib/thumb/cortex-m4/float-abi-hard/fpuv4-sp-d16/libm.a(lib_a-e_rem_pio2.o)
 .debug_frame   0x00002154       0x40 /opt/ARM/arm-linaro-eabi-4.6/lib/gcc/arm-none-eabi/4.7.3/../../../../arm-none-eabi/lib/thumb/cortex-m4/float-abi-hard/fpuv4-sp-d16/libm.a(lib_a-k_cos.o)
 .debug_frame   0x00002194       0x20 /opt/ARM/arm-linaro-eabi-4.6/lib/gcc/arm-none-eabi/4.7.3/../../../../arm-none-eabi/lib/thumb/cortex-m4/float-abi-hard/fpuv4-sp-d16/libm.a(lib_a-kf_cos.o)
 .debug_frame   0x000021b4       0x44 /opt/ARM/arm-linaro-eabi-4.6/lib/gcc/arm-none-eabi/4.7.3/../../../../arm-none-eabi/lib/thumb/cortex-m4/float-abi-hard/fpuv4-sp-d16/libm.a(lib_a-kf_rem_pio2.o)
 .debug_frame   0x000021f8       0x20 /opt/ARM/arm-linaro-eabi-4.6/lib/gcc/arm-none-eabi/4.7.3/../../../../arm-none-eabi/lib/thumb/cortex-m4/float-abi-hard/fpuv4-sp-d16/libm.a(lib_a-kf_sin.o)
 .debug_frame   0x00002218       0x28 /opt/ARM/arm-linaro-eabi-4.6/lib/gcc/arm-none-eabi/4.7.3/../../../../arm-none-eabi/lib/thumb/cortex-m4/float-abi-hard/fpuv4-sp-d16/libm.a(lib_a-kf_tan.o)
 .debug_frame   0x00002240       0x3c /opt/ARM/arm-linaro-eabi-4.6/lib/gcc/arm-none-eabi/4.7.3/../../../../arm-none-eabi/lib/thumb/cortex-m4/float-abi-hard/fpuv4-sp-d16/libm.a(lib_a-k_rem_pio2.o)
 .debug_frame   0x0000227c       0x40 /opt/ARM/arm-linaro-eabi-4.6/lib/gcc/arm-none-eabi/4.7.3/../../../../arm-none-eabi/lib/thumb/cortex-m4/float-abi-hard/fpuv4-sp-d16/libm.a(lib_a-k_sin.o)
 .debug_frame   0x000022bc       0x20 /opt/ARM/arm-linaro-eabi-4.6/lib/gcc/arm-none-eabi/4.7.3/../../../../arm-none-eabi/lib/thumb/cortex-m4/float-abi-hard/fpuv4-sp-d16/libm.a(lib_a-s_fabs.o)
 .debug_frame   0x000022dc       0x20 /opt/ARM/arm-linaro-eabi-4.6/lib/gcc/arm-none-eabi/4.7.3/../../../../arm-none-eabi/lib/thumb/cortex-m4/float-abi-hard/fpuv4-sp-d16/libm.a(lib_a-sf_fabs.o)
 .debug_frame   0x000022fc       0x20 /opt/ARM/arm-linaro-eabi-4.6/lib/gcc/arm-none-eabi/4.7.3/../../../../arm-none-eabi/lib/thumb/cortex-m4/float-abi-hard/fpuv4-sp-d16/libm.a(lib_a-sf_finite.o)
 .debug_frame   0x0000231c       0x20 /opt/ARM/arm-linaro-eabi-4.6/lib/gcc/arm-none-eabi/4.7.3/../../../../arm-none-eabi/lib/thumb/cortex-m4/float-abi-hard/fpuv4-sp-d16/libm.a(lib_a-sf_floor.o)
 .debug_frame   0x0000233c       0x20 /opt/ARM/arm-linaro-eabi-4.6/lib/gcc/arm-none-eabi/4.7.3/../../../../arm-none-eabi/lib/thumb/cortex-m4/float-abi-hard/fpuv4-sp-d16/libm.a(lib_a-sf_fpclassify.o)
 .debug_frame   0x0000235c       0x20 /opt/ARM/arm-linaro-eabi-4.6/lib/gcc/arm-none-eabi/4.7.3/../../../../arm-none-eabi/lib/thumb/cortex-m4/float-abi-hard/fpuv4-sp-d16/libm.a(lib_a-s_finite.o)
 .debug_frame   0x0000237c       0x20 /opt/ARM/arm-linaro-eabi-4.6/lib/gcc/arm-none-eabi/4.7.3/../../../../arm-none-eabi/lib/thumb/cortex-m4/float-abi-hard/fpuv4-sp-d16/libm.a(lib_a-sf_nan.o)
 .debug_frame   0x0000239c       0x20 /opt/ARM/arm-linaro-eabi-4.6/lib/gcc/arm-none-eabi/4.7.3/../../../../arm-none-eabi/lib/thumb/cortex-m4/float-abi-hard/fpuv4-sp-d16/libm.a(lib_a-s_fpclassify.o)
 .debug_frame   0x000023bc       0x30 /opt/ARM/arm-linaro-eabi-4.6/lib/gcc/arm-none-eabi/4.7.3/../../../../arm-none-eabi/lib/thumb/cortex-m4/float-abi-hard/fpuv4-sp-d16/libm.a(lib_a-sf_scalbn.o)
 .debug_frame   0x000023ec       0x20 /opt/ARM/arm-linaro-eabi-4.6/lib/gcc/arm-none-eabi/4.7.3/../../../../arm-none-eabi/lib/thumb/cortex-m4/float-abi-hard/fpuv4-sp-d16/libm.a(lib_a-s_matherr.o)
 .debug_frame   0x0000240c       0x20 /opt/ARM/arm-linaro-eabi-4.6/lib/gcc/arm-none-eabi/4.7.3/../../../../arm-none-eabi/lib/thumb/cortex-m4/float-abi-hard/fpuv4-sp-d16/libm.a(lib_a-s_nan.o)
 .debug_frame   0x0000242c       0x30 /opt/ARM/arm-linaro-eabi-4.6/lib/gcc/arm-none-eabi/4.7.3/../../../../arm-none-eabi/lib/thumb/cortex-m4/float-abi-hard/fpuv4-sp-d16/libm.a(lib_a-s_rint.o)
 .debug_frame   0x0000245c       0x2c /opt/ARM/arm-linaro-eabi-4.6/lib/gcc/arm-none-eabi/4.7.3/../../../../arm-none-eabi/lib/thumb/cortex-m4/float-abi-hard/fpuv4-sp-d16/libm.a(lib_a-s_scalbn.o)
 .debug_frame   0x00002488       0x28 /opt/ARM/arm-linaro-eabi-4.6/lib/gcc/arm-none-eabi/4.7.3/../../../../arm-none-eabi/lib/thumb/cortex-m4/float-abi-hard/fpuv4-sp-d16/libm.a(lib_a-s_copysign.o)
 .debug_frame   0x000024b0       0x20 /opt/ARM/arm-linaro-eabi-4.6/lib/gcc/arm-none-eabi/4.7.3/../../../../arm-none-eabi/lib/thumb/cortex-m4/float-abi-hard/fpuv4-sp-d16/libm.a(lib_a-sf_copysign.o)
 .debug_frame   0x000024d0       0x20 /opt/ARM/arm-linaro-eabi-4.6/lib/gcc/arm-none-eabi/4.7.3/../../../../arm-none-eabi/lib/thumb/cortex-m4/float-abi-hard/fpuv4-sp-d16/libc.a(lib_a-errno.o)
 .debug_frame   0x000024f0       0x30 /opt/ARM/arm-linaro-eabi-4.6/lib/gcc/arm-none-eabi/4.7.3/../../../../arm-none-eabi/lib/thumb/cortex-m4/float-abi-hard/fpuv4-sp-d16/libc.a(lib_a-malloc.o)
 .debug_frame   0x00002520       0x38 /opt/ARM/arm-linaro-eabi-4.6/lib/gcc/arm-none-eabi/4.7.3/../../../../arm-none-eabi/lib/thumb/cortex-m4/float-abi-hard/fpuv4-sp-d16/libc.a(lib_a-mallocr.o)
 .debug_frame   0x00002558       0x2c /opt/ARM/arm-linaro-eabi-4.6/lib/gcc/arm-none-eabi/4.7.3/../../../../arm-none-eabi/lib/thumb/cortex-m4/float-abi-hard/fpuv4-sp-d16/libc.a(lib_a-memcpy-stub.o)
 .debug_frame   0x00002584       0x2c /opt/ARM/arm-linaro-eabi-4.6/lib/gcc/arm-none-eabi/4.7.3/../../../../arm-none-eabi/lib/thumb/cortex-m4/float-abi-hard/fpuv4-sp-d16/libc.a(lib_a-memset.o)
 .debug_frame   0x000025b0       0x30 /opt/ARM/arm-linaro-eabi-4.6/lib/gcc/arm-none-eabi/4.7.3/../../../../arm-none-eabi/lib/thumb/cortex-m4/float-abi-hard/fpuv4-sp-d16/libc.a(lib_a-mlock.o)
 .debug_frame   0x000025e0       0x58 /opt/ARM/arm-linaro-eabi-4.6/lib/gcc/arm-none-eabi/4.7.3/../../../../arm-none-eabi/lib/thumb/cortex-m4/float-abi-hard/fpuv4-sp-d16/libc.a(lib_a-printf.o)
 .debug_frame   0x00002638       0x30 /opt/ARM/arm-linaro-eabi-4.6/lib/gcc/arm-none-eabi/4.7.3/../../../../arm-none-eabi/lib/thumb/cortex-m4/float-abi-hard/fpuv4-sp-d16/libc.a(lib_a-putchar.o)
 .debug_frame   0x00002668       0x48 /opt/ARM/arm-linaro-eabi-4.6/lib/gcc/arm-none-eabi/4.7.3/../../../../arm-none-eabi/lib/thumb/cortex-m4/float-abi-hard/fpuv4-sp-d16/libc.a(lib_a-putc.o)
 .debug_frame   0x000026b0       0x40 /opt/ARM/arm-linaro-eabi-4.6/lib/gcc/arm-none-eabi/4.7.3/../../../../arm-none-eabi/lib/thumb/cortex-m4/float-abi-hard/fpuv4-sp-d16/libc.a(lib_a-puts.o)
 .debug_frame   0x000026f0       0x38 /opt/ARM/arm-linaro-eabi-4.6/lib/gcc/arm-none-eabi/4.7.3/../../../../arm-none-eabi/lib/thumb/cortex-m4/float-abi-hard/fpuv4-sp-d16/libc.a(lib_a-rand.o)
 .debug_frame   0x00002728       0x2c /opt/ARM/arm-linaro-eabi-4.6/lib/gcc/arm-none-eabi/4.7.3/../../../../arm-none-eabi/lib/thumb/cortex-m4/float-abi-hard/fpuv4-sp-d16/libc.a(lib_a-sbrkr.o)
 .debug_frame   0x00002754       0x20 /opt/ARM/arm-linaro-eabi-4.6/lib/gcc/arm-none-eabi/4.7.3/../../../../arm-none-eabi/lib/thumb/cortex-m4/float-abi-hard/fpuv4-sp-d16/libc.a(lib_a-strlen.o)
 .debug_frame   0x00002774       0x7c /opt/ARM/arm-linaro-eabi-4.6/lib/gcc/arm-none-eabi/4.7.3/../../../../arm-none-eabi/lib/thumb/cortex-m4/float-abi-hard/fpuv4-sp-d16/libc.a(lib_a-vfprintf.o)
 .debug_frame   0x000027f0       0x3c /opt/ARM/arm-linaro-eabi-4.6/lib/gcc/arm-none-eabi/4.7.3/../../../../arm-none-eabi/lib/thumb/cortex-m4/float-abi-hard/fpuv4-sp-d16/libc.a(lib_a-wbuf.o)
 .debug_frame   0x0000282c       0x2c /opt/ARM/arm-linaro-eabi-4.6/lib/gcc/arm-none-eabi/4.7.3/../../../../arm-none-eabi/lib/thumb/cortex-m4/float-abi-hard/fpuv4-sp-d16/libc.a(lib_a-wsetup.o)
 .debug_frame   0x00002858       0x64 /opt/ARM/arm-linaro-eabi-4.6/lib/gcc/arm-none-eabi/4.7.3/../../../../arm-none-eabi/lib/thumb/cortex-m4/float-abi-hard/fpuv4-sp-d16/libc.a(lib_a-dtoa.o)
 .debug_frame   0x000028bc       0x5c /opt/ARM/arm-linaro-eabi-4.6/lib/gcc/arm-none-eabi/4.7.3/../../../../arm-none-eabi/lib/thumb/cortex-m4/float-abi-hard/fpuv4-sp-d16/libc.a(lib_a-fflush.o)
 .debug_frame   0x00002918      0x118 /opt/ARM/arm-linaro-eabi-4.6/lib/gcc/arm-none-eabi/4.7.3/../../../../arm-none-eabi/lib/thumb/cortex-m4/float-abi-hard/fpuv4-sp-d16/libc.a(lib_a-findfp.o)
 .debug_frame   0x00002a30       0x50 /opt/ARM/arm-linaro-eabi-4.6/lib/gcc/arm-none-eabi/4.7.3/../../../../arm-none-eabi/lib/thumb/cortex-m4/float-abi-hard/fpuv4-sp-d16/libc.a(lib_a-freer.o)
 .debug_frame   0x00002a80       0x38 /opt/ARM/arm-linaro-eabi-4.6/lib/gcc/arm-none-eabi/4.7.3/../../../../arm-none-eabi/lib/thumb/cortex-m4/float-abi-hard/fpuv4-sp-d16/libc.a(lib_a-fvwrite.o)
 .debug_frame   0x00002ab8       0x54 /opt/ARM/arm-linaro-eabi-4.6/lib/gcc/arm-none-eabi/4.7.3/../../../../arm-none-eabi/lib/thumb/cortex-m4/float-abi-hard/fpuv4-sp-d16/libc.a(lib_a-fwalk.o)
 .debug_frame   0x00002b0c       0x98 /opt/ARM/arm-linaro-eabi-4.6/lib/gcc/arm-none-eabi/4.7.3/../../../../arm-none-eabi/lib/thumb/cortex-m4/float-abi-hard/fpuv4-sp-d16/libc.a(lib_a-locale.o)
 .debug_frame   0x00002ba4       0x30 /opt/ARM/arm-linaro-eabi-4.6/lib/gcc/arm-none-eabi/4.7.3/../../../../arm-none-eabi/lib/thumb/cortex-m4/float-abi-hard/fpuv4-sp-d16/libc.a(lib_a-makebuf.o)
 .debug_frame   0x00002bd4       0x28 /opt/ARM/arm-linaro-eabi-4.6/lib/gcc/arm-none-eabi/4.7.3/../../../../arm-none-eabi/lib/thumb/cortex-m4/float-abi-hard/fpuv4-sp-d16/libc.a(lib_a-memchr-stub.o)
 .debug_frame   0x00002bfc       0x2c /opt/ARM/arm-linaro-eabi-4.6/lib/gcc/arm-none-eabi/4.7.3/../../../../arm-none-eabi/lib/thumb/cortex-m4/float-abi-hard/fpuv4-sp-d16/libc.a(lib_a-memmove.o)
 .debug_frame   0x00002c28      0x22c /opt/ARM/arm-linaro-eabi-4.6/lib/gcc/arm-none-eabi/4.7.3/../../../../arm-none-eabi/lib/thumb/cortex-m4/float-abi-hard/fpuv4-sp-d16/libc.a(lib_a-mprec.o)
 .debug_frame   0x00002e54       0x38 /opt/ARM/arm-linaro-eabi-4.6/lib/gcc/arm-none-eabi/4.7.3/../../../../arm-none-eabi/lib/thumb/cortex-m4/float-abi-hard/fpuv4-sp-d16/libc.a(lib_a-reallocr.o)
 .debug_frame   0x00002e8c       0x68 /opt/ARM/arm-linaro-eabi-4.6/lib/gcc/arm-none-eabi/4.7.3/../../../../arm-none-eabi/lib/thumb/cortex-m4/float-abi-hard/fpuv4-sp-d16/libc.a(lib_a-reent.o)
 .debug_frame   0x00002ef4       0x80 /opt/ARM/arm-linaro-eabi-4.6/lib/gcc/arm-none-eabi/4.7.3/../../../../arm-none-eabi/lib/thumb/cortex-m4/float-abi-hard/fpuv4-sp-d16/libc.a(lib_a-stdio.o)
 .debug_frame   0x00002f74       0xa0 /opt/ARM/arm-linaro-eabi-4.6/lib/gcc/arm-none-eabi/4.7.3/../../../../arm-none-eabi/lib/thumb/cortex-m4/float-abi-hard/fpuv4-sp-d16/libc.a(lib_a-vfiprintf.o)
 .debug_frame   0x00003014       0x2c /opt/ARM/arm-linaro-eabi-4.6/lib/gcc/arm-none-eabi/4.7.3/../../../../arm-none-eabi/lib/thumb/cortex-m4/float-abi-hard/fpuv4-sp-d16/libc.a(lib_a-writer.o)
 .debug_frame   0x00003040       0x28 /opt/ARM/arm-linaro-eabi-4.6/lib/gcc/arm-none-eabi/4.7.3/../../../../arm-none-eabi/lib/thumb/cortex-m4/float-abi-hard/fpuv4-sp-d16/libc.a(lib_a-callocr.o)
 .debug_frame   0x00003068       0x2c /opt/ARM/arm-linaro-eabi-4.6/lib/gcc/arm-none-eabi/4.7.3/../../../../arm-none-eabi/lib/thumb/cortex-m4/float-abi-hard/fpuv4-sp-d16/libc.a(lib_a-closer.o)
 .debug_frame   0x00003094       0x3c /opt/ARM/arm-linaro-eabi-4.6/lib/gcc/arm-none-eabi/4.7.3/../../../../arm-none-eabi/lib/thumb/cortex-m4/float-abi-hard/fpuv4-sp-d16/libc.a(lib_a-fclose.o)
 .debug_frame   0x000030d0       0x50 /opt/ARM/arm-linaro-eabi-4.6/lib/gcc/arm-none-eabi/4.7.3/../../../../arm-none-eabi/lib/thumb/cortex-m4/float-abi-hard/fpuv4-sp-d16/libc.a(lib_a-fputwc.o)
 .debug_frame   0x00003120       0x2c /opt/ARM/arm-linaro-eabi-4.6/lib/gcc/arm-none-eabi/4.7.3/../../../../arm-none-eabi/lib/thumb/cortex-m4/float-abi-hard/fpuv4-sp-d16/libc.a(lib_a-fstatr.o)
 .debug_frame   0x0000314c       0x2c /opt/ARM/arm-linaro-eabi-4.6/lib/gcc/arm-none-eabi/4.7.3/../../../../arm-none-eabi/lib/thumb/cortex-m4/float-abi-hard/fpuv4-sp-d16/libc.a(lib_a-isattyr.o)
 .debug_frame   0x00003178       0x2c /opt/ARM/arm-linaro-eabi-4.6/lib/gcc/arm-none-eabi/4.7.3/../../../../arm-none-eabi/lib/thumb/cortex-m4/float-abi-hard/fpuv4-sp-d16/libc.a(lib_a-lseekr.o)
 .debug_frame   0x000031a4       0x2c /opt/ARM/arm-linaro-eabi-4.6/lib/gcc/arm-none-eabi/4.7.3/../../../../arm-none-eabi/lib/thumb/cortex-m4/float-abi-hard/fpuv4-sp-d16/libc.a(lib_a-readr.o)
 .debug_frame   0x000031d0       0x58 /opt/ARM/arm-linaro-eabi-4.6/lib/gcc/arm-none-eabi/4.7.3/../../../../arm-none-eabi/lib/thumb/cortex-m4/float-abi-hard/fpuv4-sp-d16/libc.a(lib_a-wcrtomb.o)
 .debug_frame   0x00003228       0x44 /opt/ARM/arm-linaro-eabi-4.6/lib/gcc/arm-none-eabi/4.7.3/../../../../arm-none-eabi/lib/thumb/cortex-m4/float-abi-hard/fpuv4-sp-d16/libc.a(lib_a-wctomb_r.o)
